
ElectronicSpeedControl.elf:     file format elf32-littlearm

Sections:
Idx Name          Size      VMA       LMA       File off  Algn
  0 .isr_vector   000001d8  08000000  08000000  00010000  2**0
                  CONTENTS, ALLOC, LOAD, READONLY, DATA
  1 .text         00009a5c  080001d8  080001d8  000101d8  2**3
                  CONTENTS, ALLOC, LOAD, READONLY, CODE
  2 .rodata       000002ac  08009c34  08009c34  00019c34  2**2
                  CONTENTS, ALLOC, LOAD, READONLY, DATA
  3 .ARM.extab    00000000  08009ee0  08009ee0  00020744  2**0
                  CONTENTS
  4 .ARM          00000008  08009ee0  08009ee0  00019ee0  2**2
                  CONTENTS, ALLOC, LOAD, READONLY, DATA
  5 .preinit_array 00000000  08009ee8  08009ee8  00020744  2**0
                  CONTENTS, ALLOC, LOAD, DATA
  6 .init_array   00000004  08009ee8  08009ee8  00019ee8  2**2
                  CONTENTS, ALLOC, LOAD, DATA
  7 .fini_array   00000004  08009eec  08009eec  00019eec  2**2
                  CONTENTS, ALLOC, LOAD, DATA
  8 .data         00000744  20000000  08009ef0  00020000  2**2
                  CONTENTS, ALLOC, LOAD, DATA
  9 .bss          00000570  20000744  0800a634  00020744  2**2
                  ALLOC
 10 ._user_heap_stack 00000604  20000cb4  0800a634  00020cb4  2**0
                  ALLOC
 11 .ARM.attributes 00000030  00000000  00000000  00020744  2**0
                  CONTENTS, READONLY
 12 .comment      000000f7  00000000  00000000  00020774  2**0
                  CONTENTS, READONLY
 13 .debug_frame  000000ac  00000000  00000000  0002086c  2**2
                  CONTENTS, READONLY, DEBUGGING

Disassembly of section .text:

080001d8 <__do_global_dtors_aux>:
 80001d8:	b510      	push	{r4, lr}
 80001da:	4c05      	ldr	r4, [pc, #20]	; (80001f0 <__do_global_dtors_aux+0x18>)
 80001dc:	7823      	ldrb	r3, [r4, #0]
 80001de:	b933      	cbnz	r3, 80001ee <__do_global_dtors_aux+0x16>
 80001e0:	4b04      	ldr	r3, [pc, #16]	; (80001f4 <__do_global_dtors_aux+0x1c>)
 80001e2:	b113      	cbz	r3, 80001ea <__do_global_dtors_aux+0x12>
 80001e4:	4804      	ldr	r0, [pc, #16]	; (80001f8 <__do_global_dtors_aux+0x20>)
 80001e6:	f3af 8000 	nop.w
 80001ea:	2301      	movs	r3, #1
 80001ec:	7023      	strb	r3, [r4, #0]
 80001ee:	bd10      	pop	{r4, pc}
 80001f0:	20000744 	.word	0x20000744
 80001f4:	00000000 	.word	0x00000000
 80001f8:	08009c1c 	.word	0x08009c1c

080001fc <frame_dummy>:
 80001fc:	b508      	push	{r3, lr}
 80001fe:	4b03      	ldr	r3, [pc, #12]	; (800020c <frame_dummy+0x10>)
 8000200:	b11b      	cbz	r3, 800020a <frame_dummy+0xe>
 8000202:	4903      	ldr	r1, [pc, #12]	; (8000210 <frame_dummy+0x14>)
 8000204:	4803      	ldr	r0, [pc, #12]	; (8000214 <frame_dummy+0x18>)
 8000206:	f3af 8000 	nop.w
 800020a:	bd08      	pop	{r3, pc}
 800020c:	00000000 	.word	0x00000000
 8000210:	20000748 	.word	0x20000748
 8000214:	08009c1c 	.word	0x08009c1c

08000218 <__aeabi_uldivmod>:
 8000218:	b953      	cbnz	r3, 8000230 <__aeabi_uldivmod+0x18>
 800021a:	b94a      	cbnz	r2, 8000230 <__aeabi_uldivmod+0x18>
 800021c:	2900      	cmp	r1, #0
 800021e:	bf08      	it	eq
 8000220:	2800      	cmpeq	r0, #0
 8000222:	bf1c      	itt	ne
 8000224:	f04f 31ff 	movne.w	r1, #4294967295
 8000228:	f04f 30ff 	movne.w	r0, #4294967295
 800022c:	f000 b972 	b.w	8000514 <__aeabi_idiv0>
 8000230:	f1ad 0c08 	sub.w	ip, sp, #8
 8000234:	e96d ce04 	strd	ip, lr, [sp, #-16]!
 8000238:	f000 f806 	bl	8000248 <__udivmoddi4>
 800023c:	f8dd e004 	ldr.w	lr, [sp, #4]
 8000240:	e9dd 2302 	ldrd	r2, r3, [sp, #8]
 8000244:	b004      	add	sp, #16
 8000246:	4770      	bx	lr

08000248 <__udivmoddi4>:
 8000248:	e92d 47f0 	stmdb	sp!, {r4, r5, r6, r7, r8, r9, sl, lr}
 800024c:	9e08      	ldr	r6, [sp, #32]
 800024e:	4604      	mov	r4, r0
 8000250:	4688      	mov	r8, r1
 8000252:	2b00      	cmp	r3, #0
 8000254:	d14b      	bne.n	80002ee <__udivmoddi4+0xa6>
 8000256:	428a      	cmp	r2, r1
 8000258:	4615      	mov	r5, r2
 800025a:	d967      	bls.n	800032c <__udivmoddi4+0xe4>
 800025c:	fab2 f282 	clz	r2, r2
 8000260:	b14a      	cbz	r2, 8000276 <__udivmoddi4+0x2e>
 8000262:	f1c2 0720 	rsb	r7, r2, #32
 8000266:	fa01 f302 	lsl.w	r3, r1, r2
 800026a:	fa20 f707 	lsr.w	r7, r0, r7
 800026e:	4095      	lsls	r5, r2
 8000270:	ea47 0803 	orr.w	r8, r7, r3
 8000274:	4094      	lsls	r4, r2
 8000276:	ea4f 4e15 	mov.w	lr, r5, lsr #16
 800027a:	0c23      	lsrs	r3, r4, #16
 800027c:	fbb8 f7fe 	udiv	r7, r8, lr
 8000280:	fa1f fc85 	uxth.w	ip, r5
 8000284:	fb0e 8817 	mls	r8, lr, r7, r8
 8000288:	ea43 4308 	orr.w	r3, r3, r8, lsl #16
 800028c:	fb07 f10c 	mul.w	r1, r7, ip
 8000290:	4299      	cmp	r1, r3
 8000292:	d909      	bls.n	80002a8 <__udivmoddi4+0x60>
 8000294:	18eb      	adds	r3, r5, r3
 8000296:	f107 30ff 	add.w	r0, r7, #4294967295
 800029a:	f080 811b 	bcs.w	80004d4 <__udivmoddi4+0x28c>
 800029e:	4299      	cmp	r1, r3
 80002a0:	f240 8118 	bls.w	80004d4 <__udivmoddi4+0x28c>
 80002a4:	3f02      	subs	r7, #2
 80002a6:	442b      	add	r3, r5
 80002a8:	1a5b      	subs	r3, r3, r1
 80002aa:	b2a4      	uxth	r4, r4
 80002ac:	fbb3 f0fe 	udiv	r0, r3, lr
 80002b0:	fb0e 3310 	mls	r3, lr, r0, r3
 80002b4:	ea44 4403 	orr.w	r4, r4, r3, lsl #16
 80002b8:	fb00 fc0c 	mul.w	ip, r0, ip
 80002bc:	45a4      	cmp	ip, r4
 80002be:	d909      	bls.n	80002d4 <__udivmoddi4+0x8c>
 80002c0:	192c      	adds	r4, r5, r4
 80002c2:	f100 33ff 	add.w	r3, r0, #4294967295
 80002c6:	f080 8107 	bcs.w	80004d8 <__udivmoddi4+0x290>
 80002ca:	45a4      	cmp	ip, r4
 80002cc:	f240 8104 	bls.w	80004d8 <__udivmoddi4+0x290>
 80002d0:	3802      	subs	r0, #2
 80002d2:	442c      	add	r4, r5
 80002d4:	ea40 4007 	orr.w	r0, r0, r7, lsl #16
 80002d8:	eba4 040c 	sub.w	r4, r4, ip
 80002dc:	2700      	movs	r7, #0
 80002de:	b11e      	cbz	r6, 80002e8 <__udivmoddi4+0xa0>
 80002e0:	40d4      	lsrs	r4, r2
 80002e2:	2300      	movs	r3, #0
 80002e4:	e9c6 4300 	strd	r4, r3, [r6]
 80002e8:	4639      	mov	r1, r7
 80002ea:	e8bd 87f0 	ldmia.w	sp!, {r4, r5, r6, r7, r8, r9, sl, pc}
 80002ee:	428b      	cmp	r3, r1
 80002f0:	d909      	bls.n	8000306 <__udivmoddi4+0xbe>
 80002f2:	2e00      	cmp	r6, #0
 80002f4:	f000 80eb 	beq.w	80004ce <__udivmoddi4+0x286>
 80002f8:	2700      	movs	r7, #0
 80002fa:	e9c6 0100 	strd	r0, r1, [r6]
 80002fe:	4638      	mov	r0, r7
 8000300:	4639      	mov	r1, r7
 8000302:	e8bd 87f0 	ldmia.w	sp!, {r4, r5, r6, r7, r8, r9, sl, pc}
 8000306:	fab3 f783 	clz	r7, r3
 800030a:	2f00      	cmp	r7, #0
 800030c:	d147      	bne.n	800039e <__udivmoddi4+0x156>
 800030e:	428b      	cmp	r3, r1
 8000310:	d302      	bcc.n	8000318 <__udivmoddi4+0xd0>
 8000312:	4282      	cmp	r2, r0
 8000314:	f200 80fa 	bhi.w	800050c <__udivmoddi4+0x2c4>
 8000318:	1a84      	subs	r4, r0, r2
 800031a:	eb61 0303 	sbc.w	r3, r1, r3
 800031e:	2001      	movs	r0, #1
 8000320:	4698      	mov	r8, r3
 8000322:	2e00      	cmp	r6, #0
 8000324:	d0e0      	beq.n	80002e8 <__udivmoddi4+0xa0>
 8000326:	e9c6 4800 	strd	r4, r8, [r6]
 800032a:	e7dd      	b.n	80002e8 <__udivmoddi4+0xa0>
 800032c:	b902      	cbnz	r2, 8000330 <__udivmoddi4+0xe8>
 800032e:	deff      	udf	#255	; 0xff
 8000330:	fab2 f282 	clz	r2, r2
 8000334:	2a00      	cmp	r2, #0
 8000336:	f040 808f 	bne.w	8000458 <__udivmoddi4+0x210>
 800033a:	1b49      	subs	r1, r1, r5
 800033c:	ea4f 4e15 	mov.w	lr, r5, lsr #16
 8000340:	fa1f f885 	uxth.w	r8, r5
 8000344:	2701      	movs	r7, #1
 8000346:	fbb1 fcfe 	udiv	ip, r1, lr
 800034a:	0c23      	lsrs	r3, r4, #16
 800034c:	fb0e 111c 	mls	r1, lr, ip, r1
 8000350:	ea43 4301 	orr.w	r3, r3, r1, lsl #16
 8000354:	fb08 f10c 	mul.w	r1, r8, ip
 8000358:	4299      	cmp	r1, r3
 800035a:	d907      	bls.n	800036c <__udivmoddi4+0x124>
 800035c:	18eb      	adds	r3, r5, r3
 800035e:	f10c 30ff 	add.w	r0, ip, #4294967295
 8000362:	d202      	bcs.n	800036a <__udivmoddi4+0x122>
 8000364:	4299      	cmp	r1, r3
 8000366:	f200 80cd 	bhi.w	8000504 <__udivmoddi4+0x2bc>
 800036a:	4684      	mov	ip, r0
 800036c:	1a59      	subs	r1, r3, r1
 800036e:	b2a3      	uxth	r3, r4
 8000370:	fbb1 f0fe 	udiv	r0, r1, lr
 8000374:	fb0e 1410 	mls	r4, lr, r0, r1
 8000378:	ea43 4404 	orr.w	r4, r3, r4, lsl #16
 800037c:	fb08 f800 	mul.w	r8, r8, r0
 8000380:	45a0      	cmp	r8, r4
 8000382:	d907      	bls.n	8000394 <__udivmoddi4+0x14c>
 8000384:	192c      	adds	r4, r5, r4
 8000386:	f100 33ff 	add.w	r3, r0, #4294967295
 800038a:	d202      	bcs.n	8000392 <__udivmoddi4+0x14a>
 800038c:	45a0      	cmp	r8, r4
 800038e:	f200 80b6 	bhi.w	80004fe <__udivmoddi4+0x2b6>
 8000392:	4618      	mov	r0, r3
 8000394:	eba4 0408 	sub.w	r4, r4, r8
 8000398:	ea40 400c 	orr.w	r0, r0, ip, lsl #16
 800039c:	e79f      	b.n	80002de <__udivmoddi4+0x96>
 800039e:	f1c7 0c20 	rsb	ip, r7, #32
 80003a2:	40bb      	lsls	r3, r7
 80003a4:	fa22 fe0c 	lsr.w	lr, r2, ip
 80003a8:	ea4e 0e03 	orr.w	lr, lr, r3
 80003ac:	fa01 f407 	lsl.w	r4, r1, r7
 80003b0:	fa20 f50c 	lsr.w	r5, r0, ip
 80003b4:	fa21 f30c 	lsr.w	r3, r1, ip
 80003b8:	ea4f 481e 	mov.w	r8, lr, lsr #16
 80003bc:	4325      	orrs	r5, r4
 80003be:	fbb3 f9f8 	udiv	r9, r3, r8
 80003c2:	0c2c      	lsrs	r4, r5, #16
 80003c4:	fb08 3319 	mls	r3, r8, r9, r3
 80003c8:	fa1f fa8e 	uxth.w	sl, lr
 80003cc:	ea44 4303 	orr.w	r3, r4, r3, lsl #16
 80003d0:	fb09 f40a 	mul.w	r4, r9, sl
 80003d4:	429c      	cmp	r4, r3
 80003d6:	fa02 f207 	lsl.w	r2, r2, r7
 80003da:	fa00 f107 	lsl.w	r1, r0, r7
 80003de:	d90b      	bls.n	80003f8 <__udivmoddi4+0x1b0>
 80003e0:	eb1e 0303 	adds.w	r3, lr, r3
 80003e4:	f109 30ff 	add.w	r0, r9, #4294967295
 80003e8:	f080 8087 	bcs.w	80004fa <__udivmoddi4+0x2b2>
 80003ec:	429c      	cmp	r4, r3
 80003ee:	f240 8084 	bls.w	80004fa <__udivmoddi4+0x2b2>
 80003f2:	f1a9 0902 	sub.w	r9, r9, #2
 80003f6:	4473      	add	r3, lr
 80003f8:	1b1b      	subs	r3, r3, r4
 80003fa:	b2ad      	uxth	r5, r5
 80003fc:	fbb3 f0f8 	udiv	r0, r3, r8
 8000400:	fb08 3310 	mls	r3, r8, r0, r3
 8000404:	ea45 4403 	orr.w	r4, r5, r3, lsl #16
 8000408:	fb00 fa0a 	mul.w	sl, r0, sl
 800040c:	45a2      	cmp	sl, r4
 800040e:	d908      	bls.n	8000422 <__udivmoddi4+0x1da>
 8000410:	eb1e 0404 	adds.w	r4, lr, r4
 8000414:	f100 33ff 	add.w	r3, r0, #4294967295
 8000418:	d26b      	bcs.n	80004f2 <__udivmoddi4+0x2aa>
 800041a:	45a2      	cmp	sl, r4
 800041c:	d969      	bls.n	80004f2 <__udivmoddi4+0x2aa>
 800041e:	3802      	subs	r0, #2
 8000420:	4474      	add	r4, lr
 8000422:	ea40 4009 	orr.w	r0, r0, r9, lsl #16
 8000426:	fba0 8902 	umull	r8, r9, r0, r2
 800042a:	eba4 040a 	sub.w	r4, r4, sl
 800042e:	454c      	cmp	r4, r9
 8000430:	46c2      	mov	sl, r8
 8000432:	464b      	mov	r3, r9
 8000434:	d354      	bcc.n	80004e0 <__udivmoddi4+0x298>
 8000436:	d051      	beq.n	80004dc <__udivmoddi4+0x294>
 8000438:	2e00      	cmp	r6, #0
 800043a:	d069      	beq.n	8000510 <__udivmoddi4+0x2c8>
 800043c:	ebb1 050a 	subs.w	r5, r1, sl
 8000440:	eb64 0403 	sbc.w	r4, r4, r3
 8000444:	fa04 fc0c 	lsl.w	ip, r4, ip
 8000448:	40fd      	lsrs	r5, r7
 800044a:	40fc      	lsrs	r4, r7
 800044c:	ea4c 0505 	orr.w	r5, ip, r5
 8000450:	e9c6 5400 	strd	r5, r4, [r6]
 8000454:	2700      	movs	r7, #0
 8000456:	e747      	b.n	80002e8 <__udivmoddi4+0xa0>
 8000458:	f1c2 0320 	rsb	r3, r2, #32
 800045c:	fa20 f703 	lsr.w	r7, r0, r3
 8000460:	4095      	lsls	r5, r2
 8000462:	fa01 f002 	lsl.w	r0, r1, r2
 8000466:	fa21 f303 	lsr.w	r3, r1, r3
 800046a:	ea4f 4e15 	mov.w	lr, r5, lsr #16
 800046e:	4338      	orrs	r0, r7
 8000470:	0c01      	lsrs	r1, r0, #16
 8000472:	fbb3 f7fe 	udiv	r7, r3, lr
 8000476:	fa1f f885 	uxth.w	r8, r5
 800047a:	fb0e 3317 	mls	r3, lr, r7, r3
 800047e:	ea41 4103 	orr.w	r1, r1, r3, lsl #16
 8000482:	fb07 f308 	mul.w	r3, r7, r8
 8000486:	428b      	cmp	r3, r1
 8000488:	fa04 f402 	lsl.w	r4, r4, r2
 800048c:	d907      	bls.n	800049e <__udivmoddi4+0x256>
 800048e:	1869      	adds	r1, r5, r1
 8000490:	f107 3cff 	add.w	ip, r7, #4294967295
 8000494:	d22f      	bcs.n	80004f6 <__udivmoddi4+0x2ae>
 8000496:	428b      	cmp	r3, r1
 8000498:	d92d      	bls.n	80004f6 <__udivmoddi4+0x2ae>
 800049a:	3f02      	subs	r7, #2
 800049c:	4429      	add	r1, r5
 800049e:	1acb      	subs	r3, r1, r3
 80004a0:	b281      	uxth	r1, r0
 80004a2:	fbb3 f0fe 	udiv	r0, r3, lr
 80004a6:	fb0e 3310 	mls	r3, lr, r0, r3
 80004aa:	ea41 4103 	orr.w	r1, r1, r3, lsl #16
 80004ae:	fb00 f308 	mul.w	r3, r0, r8
 80004b2:	428b      	cmp	r3, r1
 80004b4:	d907      	bls.n	80004c6 <__udivmoddi4+0x27e>
 80004b6:	1869      	adds	r1, r5, r1
 80004b8:	f100 3cff 	add.w	ip, r0, #4294967295
 80004bc:	d217      	bcs.n	80004ee <__udivmoddi4+0x2a6>
 80004be:	428b      	cmp	r3, r1
 80004c0:	d915      	bls.n	80004ee <__udivmoddi4+0x2a6>
 80004c2:	3802      	subs	r0, #2
 80004c4:	4429      	add	r1, r5
 80004c6:	1ac9      	subs	r1, r1, r3
 80004c8:	ea40 4707 	orr.w	r7, r0, r7, lsl #16
 80004cc:	e73b      	b.n	8000346 <__udivmoddi4+0xfe>
 80004ce:	4637      	mov	r7, r6
 80004d0:	4630      	mov	r0, r6
 80004d2:	e709      	b.n	80002e8 <__udivmoddi4+0xa0>
 80004d4:	4607      	mov	r7, r0
 80004d6:	e6e7      	b.n	80002a8 <__udivmoddi4+0x60>
 80004d8:	4618      	mov	r0, r3
 80004da:	e6fb      	b.n	80002d4 <__udivmoddi4+0x8c>
 80004dc:	4541      	cmp	r1, r8
 80004de:	d2ab      	bcs.n	8000438 <__udivmoddi4+0x1f0>
 80004e0:	ebb8 0a02 	subs.w	sl, r8, r2
 80004e4:	eb69 020e 	sbc.w	r2, r9, lr
 80004e8:	3801      	subs	r0, #1
 80004ea:	4613      	mov	r3, r2
 80004ec:	e7a4      	b.n	8000438 <__udivmoddi4+0x1f0>
 80004ee:	4660      	mov	r0, ip
 80004f0:	e7e9      	b.n	80004c6 <__udivmoddi4+0x27e>
 80004f2:	4618      	mov	r0, r3
 80004f4:	e795      	b.n	8000422 <__udivmoddi4+0x1da>
 80004f6:	4667      	mov	r7, ip
 80004f8:	e7d1      	b.n	800049e <__udivmoddi4+0x256>
 80004fa:	4681      	mov	r9, r0
 80004fc:	e77c      	b.n	80003f8 <__udivmoddi4+0x1b0>
 80004fe:	3802      	subs	r0, #2
 8000500:	442c      	add	r4, r5
 8000502:	e747      	b.n	8000394 <__udivmoddi4+0x14c>
 8000504:	f1ac 0c02 	sub.w	ip, ip, #2
 8000508:	442b      	add	r3, r5
 800050a:	e72f      	b.n	800036c <__udivmoddi4+0x124>
 800050c:	4638      	mov	r0, r7
 800050e:	e708      	b.n	8000322 <__udivmoddi4+0xda>
 8000510:	4637      	mov	r7, r6
 8000512:	e6e9      	b.n	80002e8 <__udivmoddi4+0xa0>

08000514 <__aeabi_idiv0>:
 8000514:	4770      	bx	lr
 8000516:	bf00      	nop

08000518 <Reset_Handler>:
 8000518:	480d      	ldr	r0, [pc, #52]	; (8000550 <LoopForever+0x2>)
 800051a:	4685      	mov	sp, r0
 800051c:	480d      	ldr	r0, [pc, #52]	; (8000554 <LoopForever+0x6>)
 800051e:	490e      	ldr	r1, [pc, #56]	; (8000558 <LoopForever+0xa>)
 8000520:	4a0e      	ldr	r2, [pc, #56]	; (800055c <LoopForever+0xe>)
 8000522:	2300      	movs	r3, #0
 8000524:	e002      	b.n	800052c <LoopCopyDataInit>

08000526 <CopyDataInit>:
 8000526:	58d4      	ldr	r4, [r2, r3]
 8000528:	50c4      	str	r4, [r0, r3]
 800052a:	3304      	adds	r3, #4

0800052c <LoopCopyDataInit>:
 800052c:	18c4      	adds	r4, r0, r3
 800052e:	428c      	cmp	r4, r1
 8000530:	d3f9      	bcc.n	8000526 <CopyDataInit>
 8000532:	4a0b      	ldr	r2, [pc, #44]	; (8000560 <LoopForever+0x12>)
 8000534:	4c0b      	ldr	r4, [pc, #44]	; (8000564 <LoopForever+0x16>)
 8000536:	2300      	movs	r3, #0
 8000538:	e001      	b.n	800053e <LoopFillZerobss>

0800053a <FillZerobss>:
 800053a:	6013      	str	r3, [r2, #0]
 800053c:	3204      	adds	r2, #4

0800053e <LoopFillZerobss>:
 800053e:	42a2      	cmp	r2, r4
 8000540:	d3fb      	bcc.n	800053a <FillZerobss>
 8000542:	f003 fb27 	bl	8003b94 <SystemInit>
 8000546:	f009 fb3d 	bl	8009bc4 <__libc_init_array>
 800054a:	f000 fb45 	bl	8000bd8 <main>

0800054e <LoopForever>:
 800054e:	e7fe      	b.n	800054e <LoopForever>
 8000550:	20008000 	.word	0x20008000
 8000554:	20000000 	.word	0x20000000
 8000558:	20000744 	.word	0x20000744
 800055c:	08009ef0 	.word	0x08009ef0
 8000560:	20000744 	.word	0x20000744
 8000564:	20000cb4 	.word	0x20000cb4

08000568 <BusFault_Handler>:
 8000568:	e7fe      	b.n	8000568 <BusFault_Handler>
	...

0800056c <DAC_Init>:
 800056c:	4a02      	ldr	r2, [pc, #8]	; (8000578 <DAC_Init+0xc>)
 800056e:	6813      	ldr	r3, [r2, #0]
 8000570:	f043 0301 	orr.w	r3, r3, #1
 8000574:	6013      	str	r3, [r2, #0]
 8000576:	4770      	bx	lr
 8000578:	50000800 	.word	0x50000800

0800057c <DAC_Exec>:
 800057c:	b508      	push	{r3, lr}
 800057e:	2200      	movs	r2, #0
 8000580:	f890 1030 	ldrb.w	r1, [r0, #48]	; 0x30
 8000584:	f002 ffee 	bl	8003564 <UI_GetReg>
 8000588:	4908      	ldr	r1, [pc, #32]	; (80005ac <DAC_Exec+0x30>)
 800058a:	4a09      	ldr	r2, [pc, #36]	; (80005b0 <DAC_Exec+0x34>)
 800058c:	684b      	ldr	r3, [r1, #4]
 800058e:	b200      	sxth	r0, r0
 8000590:	f423 437f 	bic.w	r3, r3, #65280	; 0xff00
 8000594:	f023 03f0 	bic.w	r3, r3, #240	; 0xf0
 8000598:	f500 4000 	add.w	r0, r0, #32768	; 0x8000
 800059c:	4318      	orrs	r0, r3
 800059e:	6048      	str	r0, [r1, #4]
 80005a0:	6853      	ldr	r3, [r2, #4]
 80005a2:	f043 0301 	orr.w	r3, r3, #1
 80005a6:	6053      	str	r3, [r2, #4]
 80005a8:	bd08      	pop	{r3, pc}
 80005aa:	bf00      	nop
 80005ac:	50000808 	.word	0x50000808
 80005b0:	50000800 	.word	0x50000800

080005b4 <esc_boot>:
 80005b4:	6803      	ldr	r3, [r0, #0]
 80005b6:	681b      	ldr	r3, [r3, #0]
 80005b8:	6a1a      	ldr	r2, [r3, #32]
 80005ba:	f042 0210 	orr.w	r2, r2, #16
 80005be:	b410      	push	{r4}
 80005c0:	621a      	str	r2, [r3, #32]
 80005c2:	68da      	ldr	r2, [r3, #12]
 80005c4:	f042 0202 	orr.w	r2, r2, #2
 80005c8:	60da      	str	r2, [r3, #12]
 80005ca:	6a1a      	ldr	r2, [r3, #32]
 80005cc:	2401      	movs	r4, #1
 80005ce:	4322      	orrs	r2, r4
 80005d0:	621a      	str	r2, [r3, #32]
 80005d2:	681a      	ldr	r2, [r3, #0]
 80005d4:	2100      	movs	r1, #0
 80005d6:	4322      	orrs	r2, r4
 80005d8:	601a      	str	r2, [r3, #0]
 80005da:	f880 4032 	strb.w	r4, [r0, #50]	; 0x32
 80005de:	f880 1034 	strb.w	r1, [r0, #52]	; 0x34
 80005e2:	f85d 4b04 	ldr.w	r4, [sp], #4
 80005e6:	4770      	bx	lr

080005e8 <esc_pwm_control>:
 80005e8:	b5f8      	push	{r3, r4, r5, r6, r7, lr}
 80005ea:	4604      	mov	r4, r0
 80005ec:	f002 fd56 	bl	800309c <UI_IdleTimeHasElapsed>
 80005f0:	b900      	cbnz	r0, 80005f4 <esc_pwm_control+0xc>
 80005f2:	bdf8      	pop	{r3, r4, r5, r6, r7, pc}
 80005f4:	2004      	movs	r0, #4
 80005f6:	f002 fd5b 	bl	80030b0 <UI_SetIdleTime>
 80005fa:	f894 2034 	ldrb.w	r2, [r4, #52]	; 0x34
 80005fe:	b34a      	cbz	r2, 8000654 <esc_pwm_control+0x6c>
 8000600:	f000 fdfa 	bl	80011f8 <MC_GetSTMStateMotor1>
 8000604:	280b      	cmp	r0, #11
 8000606:	f000 815f 	beq.w	80008c8 <esc_pwm_control+0x2e0>
 800060a:	f894 1036 	ldrb.w	r1, [r4, #54]	; 0x36
 800060e:	f894 2037 	ldrb.w	r2, [r4, #55]	; 0x37
 8000612:	f894 3038 	ldrb.w	r3, [r4, #56]	; 0x38
 8000616:	6825      	ldr	r5, [r4, #0]
 8000618:	4293      	cmp	r3, r2
 800061a:	d058      	beq.n	80006ce <esc_pwm_control+0xe6>
 800061c:	68e8      	ldr	r0, [r5, #12]
 800061e:	4ba8      	ldr	r3, [pc, #672]	; (80008c0 <esc_pwm_control+0x2d8>)
 8000620:	6220      	str	r0, [r4, #32]
 8000622:	f884 2038 	strb.w	r2, [r4, #56]	; 0x38
 8000626:	6a1a      	ldr	r2, [r3, #32]
 8000628:	f422 62aa 	bic.w	r2, r2, #1360	; 0x550
 800062c:	f022 0205 	bic.w	r2, r2, #5
 8000630:	f241 009a 	movw	r0, #4250	; 0x109a
 8000634:	621a      	str	r2, [r3, #32]
 8000636:	62d8      	str	r0, [r3, #44]	; 0x2c
 8000638:	6a1a      	ldr	r2, [r3, #32]
 800063a:	f442 62aa 	orr.w	r2, r2, #1360	; 0x550
 800063e:	f042 0205 	orr.w	r2, r2, #5
 8000642:	621a      	str	r2, [r3, #32]
 8000644:	2903      	cmp	r1, #3
 8000646:	d8d4      	bhi.n	80005f2 <esc_pwm_control+0xa>
 8000648:	e8df f011 	tbh	[pc, r1, lsl #1]
 800064c:	006400b2 	.word	0x006400b2
 8000650:	00cd004e 	.word	0x00cd004e
 8000654:	6823      	ldr	r3, [r4, #0]
 8000656:	f894 0035 	ldrb.w	r0, [r4, #53]	; 0x35
 800065a:	685b      	ldr	r3, [r3, #4]
 800065c:	bb60      	cbnz	r0, 80006b8 <esc_pwm_control+0xd0>
 800065e:	2001      	movs	r0, #1
 8000660:	f64f 51e8 	movw	r1, #65000	; 0xfde8
 8000664:	f884 0035 	strb.w	r0, [r4, #53]	; 0x35
 8000668:	62d9      	str	r1, [r3, #44]	; 0x2c
 800066a:	6a19      	ldr	r1, [r3, #32]
 800066c:	f421 61aa 	bic.w	r1, r1, #1360	; 0x550
 8000670:	f021 0105 	bic.w	r1, r1, #5
 8000674:	6219      	str	r1, [r3, #32]
 8000676:	6a19      	ldr	r1, [r3, #32]
 8000678:	f441 7188 	orr.w	r1, r1, #272	; 0x110
 800067c:	4301      	orrs	r1, r0
 800067e:	6219      	str	r1, [r3, #32]
 8000680:	6c59      	ldr	r1, [r3, #68]	; 0x44
 8000682:	f441 4100 	orr.w	r1, r1, #32768	; 0x8000
 8000686:	6459      	str	r1, [r3, #68]	; 0x44
 8000688:	f884 0032 	strb.w	r0, [r4, #50]	; 0x32
 800068c:	f64f 51e8 	movw	r1, #65000	; 0xfde8
 8000690:	f640 30b8 	movw	r0, #3000	; 0xbb8
 8000694:	63d8      	str	r0, [r3, #60]	; 0x3c
 8000696:	6399      	str	r1, [r3, #56]	; 0x38
 8000698:	6359      	str	r1, [r3, #52]	; 0x34
 800069a:	6a19      	ldr	r1, [r3, #32]
 800069c:	f021 0111 	bic.w	r1, r1, #17
 80006a0:	6219      	str	r1, [r3, #32]
 80006a2:	6a19      	ldr	r1, [r3, #32]
 80006a4:	f441 61a8 	orr.w	r1, r1, #1344	; 0x540
 80006a8:	f041 0104 	orr.w	r1, r1, #4
 80006ac:	2001      	movs	r0, #1
 80006ae:	6219      	str	r1, [r3, #32]
 80006b0:	8620      	strh	r0, [r4, #48]	; 0x30
 80006b2:	f884 2034 	strb.w	r2, [r4, #52]	; 0x34
 80006b6:	bdf8      	pop	{r3, r4, r5, r6, r7, pc}
 80006b8:	f894 1032 	ldrb.w	r1, [r4, #50]	; 0x32
 80006bc:	3901      	subs	r1, #1
 80006be:	2903      	cmp	r1, #3
 80006c0:	d8f7      	bhi.n	80006b2 <esc_pwm_control+0xca>
 80006c2:	e8df f011 	tbh	[pc, r1, lsl #1]
 80006c6:	01d7      	.short	0x01d7
 80006c8:	00a700c1 	.word	0x00a700c1
 80006cc:	009b      	.short	0x009b
 80006ce:	6a23      	ldr	r3, [r4, #32]
 80006d0:	2b00      	cmp	r3, #0
 80006d2:	f040 8090 	bne.w	80007f6 <esc_pwm_control+0x20e>
 80006d6:	62a3      	str	r3, [r4, #40]	; 0x28
 80006d8:	2903      	cmp	r1, #3
 80006da:	d814      	bhi.n	8000706 <esc_pwm_control+0x11e>
 80006dc:	e8df f011 	tbh	[pc, r1, lsl #1]
 80006e0:	00e000de 	.word	0x00e000de
 80006e4:	00cf00dc 	.word	0x00cf00dc
 80006e8:	2600      	movs	r6, #0
 80006ea:	6aa3      	ldr	r3, [r4, #40]	; 0x28
 80006ec:	69aa      	ldr	r2, [r5, #24]
 80006ee:	4293      	cmp	r3, r2
 80006f0:	f080 80fa 	bcs.w	80008e8 <esc_pwm_control+0x300>
 80006f4:	6a63      	ldr	r3, [r4, #36]	; 0x24
 80006f6:	3b01      	subs	r3, #1
 80006f8:	2b00      	cmp	r3, #0
 80006fa:	6263      	str	r3, [r4, #36]	; 0x24
 80006fc:	f340 80d2 	ble.w	80008a4 <esc_pwm_control+0x2bc>
 8000700:	2e00      	cmp	r6, #0
 8000702:	f43f af76 	beq.w	80005f2 <esc_pwm_control+0xa>
 8000706:	f894 3036 	ldrb.w	r3, [r4, #54]	; 0x36
 800070a:	2b00      	cmp	r3, #0
 800070c:	f47f af71 	bne.w	80005f2 <esc_pwm_control+0xa>
 8000710:	6825      	ldr	r5, [r4, #0]
 8000712:	e010      	b.n	8000736 <esc_pwm_control+0x14e>
 8000714:	2600      	movs	r6, #0
 8000716:	6aa2      	ldr	r2, [r4, #40]	; 0x28
 8000718:	69ab      	ldr	r3, [r5, #24]
 800071a:	429a      	cmp	r2, r3
 800071c:	f080 8149 	bcs.w	80009b2 <esc_pwm_control+0x3ca>
 8000720:	6aa2      	ldr	r2, [r4, #40]	; 0x28
 8000722:	69eb      	ldr	r3, [r5, #28]
 8000724:	429a      	cmp	r2, r3
 8000726:	d2eb      	bcs.n	8000700 <esc_pwm_control+0x118>
 8000728:	2300      	movs	r3, #0
 800072a:	f884 3036 	strb.w	r3, [r4, #54]	; 0x36
 800072e:	61e3      	str	r3, [r4, #28]
 8000730:	2e00      	cmp	r6, #0
 8000732:	f43f af5e 	beq.w	80005f2 <esc_pwm_control+0xa>
 8000736:	f894 2035 	ldrb.w	r2, [r4, #53]	; 0x35
 800073a:	686b      	ldr	r3, [r5, #4]
 800073c:	b9a2      	cbnz	r2, 8000768 <esc_pwm_control+0x180>
 800073e:	2101      	movs	r1, #1
 8000740:	f64f 52e8 	movw	r2, #65000	; 0xfde8
 8000744:	f884 1035 	strb.w	r1, [r4, #53]	; 0x35
 8000748:	62da      	str	r2, [r3, #44]	; 0x2c
 800074a:	6a1a      	ldr	r2, [r3, #32]
 800074c:	f422 62aa 	bic.w	r2, r2, #1360	; 0x550
 8000750:	f022 0205 	bic.w	r2, r2, #5
 8000754:	621a      	str	r2, [r3, #32]
 8000756:	6a1a      	ldr	r2, [r3, #32]
 8000758:	f442 7288 	orr.w	r2, r2, #272	; 0x110
 800075c:	430a      	orrs	r2, r1
 800075e:	621a      	str	r2, [r3, #32]
 8000760:	6c5a      	ldr	r2, [r3, #68]	; 0x44
 8000762:	f442 4200 	orr.w	r2, r2, #32768	; 0x8000
 8000766:	645a      	str	r2, [r3, #68]	; 0x44
 8000768:	f894 2032 	ldrb.w	r2, [r4, #50]	; 0x32
 800076c:	2a03      	cmp	r2, #3
 800076e:	f000 8163 	beq.w	8000a38 <esc_pwm_control+0x450>
 8000772:	2a04      	cmp	r2, #4
 8000774:	f000 813c 	beq.w	80009f0 <esc_pwm_control+0x408>
 8000778:	2a01      	cmp	r2, #1
 800077a:	f47f af3a 	bne.w	80005f2 <esc_pwm_control+0xa>
 800077e:	8e20      	ldrh	r0, [r4, #48]	; 0x30
 8000780:	1c41      	adds	r1, r0, #1
 8000782:	b289      	uxth	r1, r1
 8000784:	2800      	cmp	r0, #0
 8000786:	f040 815f 	bne.w	8000a48 <esc_pwm_control+0x460>
 800078a:	f64f 51e8 	movw	r1, #65000	; 0xfde8
 800078e:	f640 30b8 	movw	r0, #3000	; 0xbb8
 8000792:	6358      	str	r0, [r3, #52]	; 0x34
 8000794:	6399      	str	r1, [r3, #56]	; 0x38
 8000796:	63d9      	str	r1, [r3, #60]	; 0x3c
 8000798:	6a19      	ldr	r1, [r3, #32]
 800079a:	f421 7188 	bic.w	r1, r1, #272	; 0x110
 800079e:	6219      	str	r1, [r3, #32]
 80007a0:	6a19      	ldr	r1, [r3, #32]
 80007a2:	f441 6188 	orr.w	r1, r1, #1088	; 0x440
 80007a6:	f041 0105 	orr.w	r1, r1, #5
 80007aa:	6219      	str	r1, [r3, #32]
 80007ac:	8622      	strh	r2, [r4, #48]	; 0x30
 80007ae:	bdf8      	pop	{r3, r4, r5, r6, r7, pc}
 80007b0:	2600      	movs	r6, #0
 80007b2:	6aa2      	ldr	r2, [r4, #40]	; 0x28
 80007b4:	69eb      	ldr	r3, [r5, #28]
 80007b6:	429a      	cmp	r2, r3
 80007b8:	d3b6      	bcc.n	8000728 <esc_pwm_control+0x140>
 80007ba:	6aa2      	ldr	r2, [r4, #40]	; 0x28
 80007bc:	69ab      	ldr	r3, [r5, #24]
 80007be:	429a      	cmp	r2, r3
 80007c0:	d2b2      	bcs.n	8000728 <esc_pwm_control+0x140>
 80007c2:	69e3      	ldr	r3, [r4, #28]
 80007c4:	68aa      	ldr	r2, [r5, #8]
 80007c6:	3301      	adds	r3, #1
 80007c8:	4293      	cmp	r3, r2
 80007ca:	61e3      	str	r3, [r4, #28]
 80007cc:	d998      	bls.n	8000700 <esc_pwm_control+0x118>
 80007ce:	68eb      	ldr	r3, [r5, #12]
 80007d0:	6223      	str	r3, [r4, #32]
 80007d2:	2201      	movs	r2, #1
 80007d4:	2300      	movs	r3, #0
 80007d6:	f884 2036 	strb.w	r2, [r4, #54]	; 0x36
 80007da:	61e3      	str	r3, [r4, #28]
 80007dc:	f884 3037 	strb.w	r3, [r4, #55]	; 0x37
 80007e0:	f884 3038 	strb.w	r3, [r4, #56]	; 0x38
 80007e4:	e78c      	b.n	8000700 <esc_pwm_control+0x118>
 80007e6:	f9b4 302c 	ldrsh.w	r3, [r4, #44]	; 0x2c
 80007ea:	2b00      	cmp	r3, #0
 80007ec:	f000 80d8 	beq.w	80009a0 <esc_pwm_control+0x3b8>
 80007f0:	3b01      	subs	r3, #1
 80007f2:	85a3      	strh	r3, [r4, #44]	; 0x2c
 80007f4:	bdf8      	pop	{r3, r4, r5, r6, r7, pc}
 80007f6:	3b01      	subs	r3, #1
 80007f8:	6223      	str	r3, [r4, #32]
 80007fa:	e723      	b.n	8000644 <esc_pwm_control+0x5c>
 80007fc:	8e21      	ldrh	r1, [r4, #48]	; 0x30
 80007fe:	1c4d      	adds	r5, r1, #1
 8000800:	b2ad      	uxth	r5, r5
 8000802:	2900      	cmp	r1, #0
 8000804:	f040 80a4 	bne.w	8000950 <esc_pwm_control+0x368>
 8000808:	2001      	movs	r0, #1
 800080a:	6359      	str	r1, [r3, #52]	; 0x34
 800080c:	6399      	str	r1, [r3, #56]	; 0x38
 800080e:	63d9      	str	r1, [r3, #60]	; 0x3c
 8000810:	8620      	strh	r0, [r4, #48]	; 0x30
 8000812:	e74e      	b.n	80006b2 <esc_pwm_control+0xca>
 8000814:	8e20      	ldrh	r0, [r4, #48]	; 0x30
 8000816:	1c41      	adds	r1, r0, #1
 8000818:	b289      	uxth	r1, r1
 800081a:	2800      	cmp	r0, #0
 800081c:	f040 80b6 	bne.w	800098c <esc_pwm_control+0x3a4>
 8000820:	f24d 61d8 	movw	r1, #55000	; 0xd6d8
 8000824:	f640 30b8 	movw	r0, #3000	; 0xbb8
 8000828:	6358      	str	r0, [r3, #52]	; 0x34
 800082a:	6399      	str	r1, [r3, #56]	; 0x38
 800082c:	63d9      	str	r1, [r3, #60]	; 0x3c
 800082e:	6a19      	ldr	r1, [r3, #32]
 8000830:	f421 7188 	bic.w	r1, r1, #272	; 0x110
 8000834:	6219      	str	r1, [r3, #32]
 8000836:	6a19      	ldr	r1, [r3, #32]
 8000838:	f441 6188 	orr.w	r1, r1, #1088	; 0x440
 800083c:	f041 0105 	orr.w	r1, r1, #5
 8000840:	2001      	movs	r0, #1
 8000842:	6219      	str	r1, [r3, #32]
 8000844:	8620      	strh	r0, [r4, #48]	; 0x30
 8000846:	e734      	b.n	80006b2 <esc_pwm_control+0xca>
 8000848:	8e20      	ldrh	r0, [r4, #48]	; 0x30
 800084a:	1c41      	adds	r1, r0, #1
 800084c:	b289      	uxth	r1, r1
 800084e:	2800      	cmp	r0, #0
 8000850:	d16e      	bne.n	8000930 <esc_pwm_control+0x348>
 8000852:	f24f 2130 	movw	r1, #62000	; 0xf230
 8000856:	f640 30b8 	movw	r0, #3000	; 0xbb8
 800085a:	6398      	str	r0, [r3, #56]	; 0x38
 800085c:	6359      	str	r1, [r3, #52]	; 0x34
 800085e:	63d9      	str	r1, [r3, #60]	; 0x3c
 8000860:	6a19      	ldr	r1, [r3, #32]
 8000862:	f421 7180 	bic.w	r1, r1, #256	; 0x100
 8000866:	f021 0101 	bic.w	r1, r1, #1
 800086a:	6219      	str	r1, [r3, #32]
 800086c:	6a19      	ldr	r1, [r3, #32]
 800086e:	f441 618a 	orr.w	r1, r1, #1104	; 0x450
 8000872:	f041 0104 	orr.w	r1, r1, #4
 8000876:	2001      	movs	r0, #1
 8000878:	6219      	str	r1, [r3, #32]
 800087a:	8620      	strh	r0, [r4, #48]	; 0x30
 800087c:	e719      	b.n	80006b2 <esc_pwm_control+0xca>
 800087e:	f9b4 302c 	ldrsh.w	r3, [r4, #44]	; 0x2c
 8000882:	2b00      	cmp	r3, #0
 8000884:	d1b4      	bne.n	80007f0 <esc_pwm_control+0x208>
 8000886:	f884 3036 	strb.w	r3, [r4, #54]	; 0x36
 800088a:	62a3      	str	r3, [r4, #40]	; 0x28
 800088c:	61e3      	str	r3, [r4, #28]
 800088e:	f884 3039 	strb.w	r3, [r4, #57]	; 0x39
 8000892:	e9c4 3305 	strd	r3, r3, [r4, #20]
 8000896:	e74e      	b.n	8000736 <esc_pwm_control+0x14e>
 8000898:	2601      	movs	r6, #1
 800089a:	e726      	b.n	80006ea <esc_pwm_control+0x102>
 800089c:	2601      	movs	r6, #1
 800089e:	e788      	b.n	80007b2 <esc_pwm_control+0x1ca>
 80008a0:	2601      	movs	r6, #1
 80008a2:	e738      	b.n	8000716 <esc_pwm_control+0x12e>
 80008a4:	692b      	ldr	r3, [r5, #16]
 80008a6:	6263      	str	r3, [r4, #36]	; 0x24
 80008a8:	2203      	movs	r2, #3
 80008aa:	f884 2036 	strb.w	r2, [r4, #54]	; 0x36
 80008ae:	f895 2028 	ldrb.w	r2, [r5, #40]	; 0x28
 80008b2:	4b04      	ldr	r3, [pc, #16]	; (80008c4 <esc_pwm_control+0x2dc>)
 80008b4:	f853 0022 	ldr.w	r0, [r3, r2, lsl #2]
 80008b8:	f000 fcde 	bl	8001278 <MCI_StopMotor>
 80008bc:	e720      	b.n	8000700 <esc_pwm_control+0x118>
 80008be:	bf00      	nop
 80008c0:	40012c00 	.word	0x40012c00
 80008c4:	20000ba0 	.word	0x20000ba0
 80008c8:	f000 fc90 	bl	80011ec <MC_GetOccurredFaultsMotor1>
 80008cc:	2804      	cmp	r0, #4
 80008ce:	d104      	bne.n	80008da <esc_pwm_control+0x2f2>
 80008d0:	2300      	movs	r3, #0
 80008d2:	f884 3034 	strb.w	r3, [r4, #52]	; 0x34
 80008d6:	f884 3035 	strb.w	r3, [r4, #53]	; 0x35
 80008da:	f000 fc81 	bl	80011e0 <MC_AcknowledgeFaultMotor1>
 80008de:	2100      	movs	r1, #0
 80008e0:	f884 1036 	strb.w	r1, [r4, #54]	; 0x36
 80008e4:	61e1      	str	r1, [r4, #28]
 80008e6:	e692      	b.n	800060e <esc_pwm_control+0x26>
 80008e8:	e9d5 3104 	ldrd	r3, r1, [r5, #16]
 80008ec:	6aa0      	ldr	r0, [r4, #40]	; 0x28
 80008ee:	6263      	str	r3, [r4, #36]	; 0x24
 80008f0:	4288      	cmp	r0, r1
 80008f2:	8cab      	ldrh	r3, [r5, #36]	; 0x24
 80008f4:	d87a      	bhi.n	80009ec <esc_pwm_control+0x404>
 80008f6:	8cef      	ldrh	r7, [r5, #38]	; 0x26
 80008f8:	6aa1      	ldr	r1, [r4, #40]	; 0x28
 80008fa:	1bdb      	subs	r3, r3, r7
 80008fc:	1a8a      	subs	r2, r1, r2
 80008fe:	fb03 f302 	mul.w	r3, r3, r2
 8000902:	6a2a      	ldr	r2, [r5, #32]
 8000904:	fbb3 f3f2 	udiv	r3, r3, r2
 8000908:	441f      	add	r7, r3
 800090a:	f000 fc75 	bl	80011f8 <MC_GetSTMStateMotor1>
 800090e:	2806      	cmp	r0, #6
 8000910:	f47f aef6 	bne.w	8000700 <esc_pwm_control+0x118>
 8000914:	4b62      	ldr	r3, [pc, #392]	; (8000aa0 <esc_pwm_control+0x4b8>)
 8000916:	f895 1028 	ldrb.w	r1, [r5, #40]	; 0x28
 800091a:	4a62      	ldr	r2, [pc, #392]	; (8000aa4 <esc_pwm_control+0x4bc>)
 800091c:	fba3 0307 	umull	r0, r3, r3, r7
 8000920:	f852 0021 	ldr.w	r0, [r2, r1, lsl #2]
 8000924:	f343 018f 	sbfx	r1, r3, #2, #16
 8000928:	2232      	movs	r2, #50	; 0x32
 800092a:	f000 fc79 	bl	8001220 <MCI_ExecSpeedRamp>
 800092e:	e6e7      	b.n	8000700 <esc_pwm_control+0x118>
 8000930:	2964      	cmp	r1, #100	; 0x64
 8000932:	8621      	strh	r1, [r4, #48]	; 0x30
 8000934:	f67f aebd 	bls.w	80006b2 <esc_pwm_control+0xca>
 8000938:	2103      	movs	r1, #3
 800093a:	f884 1032 	strb.w	r1, [r4, #50]	; 0x32
 800093e:	2500      	movs	r5, #0
 8000940:	f640 30b8 	movw	r0, #3000	; 0xbb8
 8000944:	f24d 61d8 	movw	r1, #55000	; 0xd6d8
 8000948:	8625      	strh	r5, [r4, #48]	; 0x30
 800094a:	6358      	str	r0, [r3, #52]	; 0x34
 800094c:	62d9      	str	r1, [r3, #44]	; 0x2c
 800094e:	e6b0      	b.n	80006b2 <esc_pwm_control+0xca>
 8000950:	f5b5 7f7a 	cmp.w	r5, #1000	; 0x3e8
 8000954:	8625      	strh	r5, [r4, #48]	; 0x30
 8000956:	f67f aeac 	bls.w	80006b2 <esc_pwm_control+0xca>
 800095a:	4b53      	ldr	r3, [pc, #332]	; (8000aa8 <esc_pwm_control+0x4c0>)
 800095c:	6a1a      	ldr	r2, [r3, #32]
 800095e:	2101      	movs	r1, #1
 8000960:	f422 62aa 	bic.w	r2, r2, #1360	; 0x550
 8000964:	f884 1032 	strb.w	r1, [r4, #50]	; 0x32
 8000968:	f022 0205 	bic.w	r2, r2, #5
 800096c:	2500      	movs	r5, #0
 800096e:	f241 019a 	movw	r1, #4250	; 0x109a
 8000972:	8625      	strh	r5, [r4, #48]	; 0x30
 8000974:	621a      	str	r2, [r3, #32]
 8000976:	62d9      	str	r1, [r3, #44]	; 0x2c
 8000978:	6a19      	ldr	r1, [r3, #32]
 800097a:	f441 61aa 	orr.w	r1, r1, #1360	; 0x550
 800097e:	f041 0105 	orr.w	r1, r1, #5
 8000982:	6219      	str	r1, [r3, #32]
 8000984:	4602      	mov	r2, r0
 8000986:	f884 5035 	strb.w	r5, [r4, #53]	; 0x35
 800098a:	e692      	b.n	80006b2 <esc_pwm_control+0xca>
 800098c:	2964      	cmp	r1, #100	; 0x64
 800098e:	8621      	strh	r1, [r4, #48]	; 0x30
 8000990:	f67f ae8f 	bls.w	80006b2 <esc_pwm_control+0xca>
 8000994:	2104      	movs	r1, #4
 8000996:	2300      	movs	r3, #0
 8000998:	f884 1032 	strb.w	r1, [r4, #50]	; 0x32
 800099c:	8623      	strh	r3, [r4, #48]	; 0x30
 800099e:	e688      	b.n	80006b2 <esc_pwm_control+0xca>
 80009a0:	f884 3036 	strb.w	r3, [r4, #54]	; 0x36
 80009a4:	62a3      	str	r3, [r4, #40]	; 0x28
 80009a6:	61e3      	str	r3, [r4, #28]
 80009a8:	f884 3039 	strb.w	r3, [r4, #57]	; 0x39
 80009ac:	e9c4 3305 	strd	r3, r3, [r4, #20]
 80009b0:	bdf8      	pop	{r3, r4, r5, r6, r7, pc}
 80009b2:	8ce9      	ldrh	r1, [r5, #38]	; 0x26
 80009b4:	4a3a      	ldr	r2, [pc, #232]	; (8000aa0 <esc_pwm_control+0x4b8>)
 80009b6:	f895 3028 	ldrb.w	r3, [r5, #40]	; 0x28
 80009ba:	4f3a      	ldr	r7, [pc, #232]	; (8000aa4 <esc_pwm_control+0x4bc>)
 80009bc:	fba2 2101 	umull	r2, r1, r2, r1
 80009c0:	f857 0023 	ldr.w	r0, [r7, r3, lsl #2]
 80009c4:	2200      	movs	r2, #0
 80009c6:	0889      	lsrs	r1, r1, #2
 80009c8:	f000 fc2a 	bl	8001220 <MCI_ExecSpeedRamp>
 80009cc:	f895 3028 	ldrb.w	r3, [r5, #40]	; 0x28
 80009d0:	f857 0023 	ldr.w	r0, [r7, r3, lsl #2]
 80009d4:	f000 fc46 	bl	8001264 <MCI_StartMotor>
 80009d8:	2800      	cmp	r0, #0
 80009da:	bf14      	ite	ne
 80009dc:	2202      	movne	r2, #2
 80009de:	2200      	moveq	r2, #0
 80009e0:	f44f 7348 	mov.w	r3, #800	; 0x320
 80009e4:	f884 2036 	strb.w	r2, [r4, #54]	; 0x36
 80009e8:	85a3      	strh	r3, [r4, #44]	; 0x2c
 80009ea:	e689      	b.n	8000700 <esc_pwm_control+0x118>
 80009ec:	461f      	mov	r7, r3
 80009ee:	e78c      	b.n	800090a <esc_pwm_control+0x322>
 80009f0:	8e22      	ldrh	r2, [r4, #48]	; 0x30
 80009f2:	b912      	cbnz	r2, 80009fa <esc_pwm_control+0x412>
 80009f4:	635a      	str	r2, [r3, #52]	; 0x34
 80009f6:	639a      	str	r2, [r3, #56]	; 0x38
 80009f8:	63da      	str	r2, [r3, #60]	; 0x3c
 80009fa:	1c53      	adds	r3, r2, #1
 80009fc:	8de2      	ldrh	r2, [r4, #46]	; 0x2e
 80009fe:	b29b      	uxth	r3, r3
 8000a00:	429a      	cmp	r2, r3
 8000a02:	8623      	strh	r3, [r4, #48]	; 0x30
 8000a04:	f4bf adf5 	bcs.w	80005f2 <esc_pwm_control+0xa>
 8000a08:	4b27      	ldr	r3, [pc, #156]	; (8000aa8 <esc_pwm_control+0x4c0>)
 8000a0a:	6a1a      	ldr	r2, [r3, #32]
 8000a0c:	f422 62aa 	bic.w	r2, r2, #1360	; 0x550
 8000a10:	f022 0205 	bic.w	r2, r2, #5
 8000a14:	2100      	movs	r1, #0
 8000a16:	2501      	movs	r5, #1
 8000a18:	f241 009a 	movw	r0, #4250	; 0x109a
 8000a1c:	f884 5032 	strb.w	r5, [r4, #50]	; 0x32
 8000a20:	8621      	strh	r1, [r4, #48]	; 0x30
 8000a22:	621a      	str	r2, [r3, #32]
 8000a24:	62d8      	str	r0, [r3, #44]	; 0x2c
 8000a26:	6a1a      	ldr	r2, [r3, #32]
 8000a28:	f442 62aa 	orr.w	r2, r2, #1360	; 0x550
 8000a2c:	f042 0205 	orr.w	r2, r2, #5
 8000a30:	621a      	str	r2, [r3, #32]
 8000a32:	f884 1035 	strb.w	r1, [r4, #53]	; 0x35
 8000a36:	bdf8      	pop	{r3, r4, r5, r6, r7, pc}
 8000a38:	8e21      	ldrh	r1, [r4, #48]	; 0x30
 8000a3a:	1c4a      	adds	r2, r1, #1
 8000a3c:	b292      	uxth	r2, r2
 8000a3e:	b979      	cbnz	r1, 8000a60 <esc_pwm_control+0x478>
 8000a40:	2201      	movs	r2, #1
 8000a42:	6359      	str	r1, [r3, #52]	; 0x34
 8000a44:	8622      	strh	r2, [r4, #48]	; 0x30
 8000a46:	bdf8      	pop	{r3, r4, r5, r6, r7, pc}
 8000a48:	2964      	cmp	r1, #100	; 0x64
 8000a4a:	8621      	strh	r1, [r4, #48]	; 0x30
 8000a4c:	f67f add1 	bls.w	80005f2 <esc_pwm_control+0xa>
 8000a50:	2204      	movs	r2, #4
 8000a52:	f240 233a 	movw	r3, #570	; 0x23a
 8000a56:	f884 2032 	strb.w	r2, [r4, #50]	; 0x32
 8000a5a:	f8c4 302e 	str.w	r3, [r4, #46]	; 0x2e
 8000a5e:	bdf8      	pop	{r3, r4, r5, r6, r7, pc}
 8000a60:	2a32      	cmp	r2, #50	; 0x32
 8000a62:	8622      	strh	r2, [r4, #48]	; 0x30
 8000a64:	f67f adc5 	bls.w	80005f2 <esc_pwm_control+0xa>
 8000a68:	2201      	movs	r2, #1
 8000a6a:	2300      	movs	r3, #0
 8000a6c:	f884 2032 	strb.w	r2, [r4, #50]	; 0x32
 8000a70:	8623      	strh	r3, [r4, #48]	; 0x30
 8000a72:	bdf8      	pop	{r3, r4, r5, r6, r7, pc}
 8000a74:	8e20      	ldrh	r0, [r4, #48]	; 0x30
 8000a76:	1c41      	adds	r1, r0, #1
 8000a78:	b289      	uxth	r1, r1
 8000a7a:	2800      	cmp	r0, #0
 8000a7c:	f43f ae06 	beq.w	800068c <esc_pwm_control+0xa4>
 8000a80:	2964      	cmp	r1, #100	; 0x64
 8000a82:	8621      	strh	r1, [r4, #48]	; 0x30
 8000a84:	f67f ae15 	bls.w	80006b2 <esc_pwm_control+0xca>
 8000a88:	2102      	movs	r1, #2
 8000a8a:	f884 1032 	strb.w	r1, [r4, #50]	; 0x32
 8000a8e:	2500      	movs	r5, #0
 8000a90:	f640 30b8 	movw	r0, #3000	; 0xbb8
 8000a94:	f24f 2130 	movw	r1, #62000	; 0xf230
 8000a98:	8625      	strh	r5, [r4, #48]	; 0x30
 8000a9a:	6398      	str	r0, [r3, #56]	; 0x38
 8000a9c:	62d9      	str	r1, [r3, #44]	; 0x2c
 8000a9e:	e608      	b.n	80006b2 <esc_pwm_control+0xca>
 8000aa0:	aaaaaaab 	.word	0xaaaaaaab
 8000aa4:	20000ba0 	.word	0x20000ba0
 8000aa8:	40012c00 	.word	0x40012c00

08000aac <TIM2_IRQHandler>:
 8000aac:	4928      	ldr	r1, [pc, #160]	; (8000b50 <TIM2_IRQHandler+0xa4>)
 8000aae:	f04f 4080 	mov.w	r0, #1073741824	; 0x40000000
 8000ab2:	b470      	push	{r4, r5, r6}
 8000ab4:	694a      	ldr	r2, [r1, #20]
 8000ab6:	f891 6039 	ldrb.w	r6, [r1, #57]	; 0x39
 8000aba:	698b      	ldr	r3, [r1, #24]
 8000abc:	f06f 0402 	mvn.w	r4, #2
 8000ac0:	6104      	str	r4, [r0, #16]
 8000ac2:	6b85      	ldr	r5, [r0, #56]	; 0x38
 8000ac4:	1c54      	adds	r4, r2, #1
 8000ac6:	bb06      	cbnz	r6, 8000b0a <TIM2_IRQHandler+0x5e>
 8000ac8:	eb01 0282 	add.w	r2, r1, r2, lsl #2
 8000acc:	2c03      	cmp	r4, #3
 8000ace:	6055      	str	r5, [r2, #4]
 8000ad0:	bf88      	it	hi
 8000ad2:	2201      	movhi	r2, #1
 8000ad4:	442b      	add	r3, r5
 8000ad6:	bf92      	itee	ls
 8000ad8:	614c      	strls	r4, [r1, #20]
 8000ada:	614e      	strhi	r6, [r1, #20]
 8000adc:	f881 2039 	strbhi.w	r2, [r1, #57]	; 0x39
 8000ae0:	618b      	str	r3, [r1, #24]
 8000ae2:	fbb3 f3f4 	udiv	r3, r3, r4
 8000ae6:	f891 2037 	ldrb.w	r2, [r1, #55]	; 0x37
 8000aea:	2b00      	cmp	r3, #0
 8000aec:	f102 0201 	add.w	r2, r2, #1
 8000af0:	bf08      	it	eq
 8000af2:	2301      	moveq	r3, #1
 8000af4:	f012 02ff 	ands.w	r2, r2, #255	; 0xff
 8000af8:	628b      	str	r3, [r1, #40]	; 0x28
 8000afa:	bf0a      	itet	eq
 8000afc:	2301      	moveq	r3, #1
 8000afe:	f881 2037 	strbne.w	r2, [r1, #55]	; 0x37
 8000b02:	f881 3037 	strbeq.w	r3, [r1, #55]	; 0x37
 8000b06:	bc70      	pop	{r4, r5, r6}
 8000b08:	4770      	bx	lr
 8000b0a:	eb01 0082 	add.w	r0, r1, r2, lsl #2
 8000b0e:	18ea      	adds	r2, r5, r3
 8000b10:	6843      	ldr	r3, [r0, #4]
 8000b12:	6045      	str	r5, [r0, #4]
 8000b14:	e9d1 0501 	ldrd	r0, r5, [r1, #4]
 8000b18:	68ce      	ldr	r6, [r1, #12]
 8000b1a:	42a8      	cmp	r0, r5
 8000b1c:	bf38      	it	cc
 8000b1e:	4628      	movcc	r0, r5
 8000b20:	42b0      	cmp	r0, r6
 8000b22:	690d      	ldr	r5, [r1, #16]
 8000b24:	bf38      	it	cc
 8000b26:	4630      	movcc	r0, r6
 8000b28:	42a8      	cmp	r0, r5
 8000b2a:	bf38      	it	cc
 8000b2c:	4628      	movcc	r0, r5
 8000b2e:	2c03      	cmp	r4, #3
 8000b30:	eba2 0303 	sub.w	r3, r2, r3
 8000b34:	bf84      	itt	hi
 8000b36:	2200      	movhi	r2, #0
 8000b38:	614a      	strhi	r2, [r1, #20]
 8000b3a:	4a06      	ldr	r2, [pc, #24]	; (8000b54 <TIM2_IRQHandler+0xa8>)
 8000b3c:	618b      	str	r3, [r1, #24]
 8000b3e:	eba3 0300 	sub.w	r3, r3, r0
 8000b42:	fba2 2303 	umull	r2, r3, r2, r3
 8000b46:	bf98      	it	ls
 8000b48:	614c      	strls	r4, [r1, #20]
 8000b4a:	085b      	lsrs	r3, r3, #1
 8000b4c:	e7cb      	b.n	8000ae6 <TIM2_IRQHandler+0x3a>
 8000b4e:	bf00      	nop
 8000b50:	200000f0 	.word	0x200000f0
 8000b54:	aaaaaaab 	.word	0xaaaaaaab

08000b58 <SystemClock_Config>:
 8000b58:	b530      	push	{r4, r5, lr}
 8000b5a:	2100      	movs	r1, #0
 8000b5c:	b0a5      	sub	sp, #148	; 0x94
 8000b5e:	460c      	mov	r4, r1
 8000b60:	a805      	add	r0, sp, #20
 8000b62:	2238      	movs	r2, #56	; 0x38
 8000b64:	f009 f852 	bl	8009c0c <memset>
 8000b68:	4621      	mov	r1, r4
 8000b6a:	2244      	movs	r2, #68	; 0x44
 8000b6c:	a813      	add	r0, sp, #76	; 0x4c
 8000b6e:	e9cd 4400 	strd	r4, r4, [sp]
 8000b72:	e9cd 4402 	strd	r4, r4, [sp, #8]
 8000b76:	9404      	str	r4, [sp, #16]
 8000b78:	f009 f848 	bl	8009c0c <memset>
 8000b7c:	4620      	mov	r0, r4
 8000b7e:	f004 fa45 	bl	800500c <HAL_PWREx_ControlVoltageScaling>
 8000b82:	2101      	movs	r1, #1
 8000b84:	f44f 3280 	mov.w	r2, #65536	; 0x10000
 8000b88:	2302      	movs	r3, #2
 8000b8a:	2503      	movs	r5, #3
 8000b8c:	9105      	str	r1, [sp, #20]
 8000b8e:	9206      	str	r2, [sp, #24]
 8000b90:	2155      	movs	r1, #85	; 0x55
 8000b92:	2205      	movs	r2, #5
 8000b94:	a805      	add	r0, sp, #20
 8000b96:	e9cd 120f 	strd	r1, r2, [sp, #60]	; 0x3c
 8000b9a:	930c      	str	r3, [sp, #48]	; 0x30
 8000b9c:	930e      	str	r3, [sp, #56]	; 0x38
 8000b9e:	e9cd 3311 	strd	r3, r3, [sp, #68]	; 0x44
 8000ba2:	950d      	str	r5, [sp, #52]	; 0x34
 8000ba4:	f004 fab0 	bl	8005108 <HAL_RCC_OscConfig>
 8000ba8:	2108      	movs	r1, #8
 8000baa:	230f      	movs	r3, #15
 8000bac:	4668      	mov	r0, sp
 8000bae:	9300      	str	r3, [sp, #0]
 8000bb0:	e9cd 5401 	strd	r5, r4, [sp, #4]
 8000bb4:	e9cd 4403 	strd	r4, r4, [sp, #12]
 8000bb8:	f004 fcf8 	bl	80055ac <HAL_RCC_ClockConfig>
 8000bbc:	f248 0202 	movw	r2, #32770	; 0x8002
 8000bc0:	f04f 5380 	mov.w	r3, #268435456	; 0x10000000
 8000bc4:	a813      	add	r0, sp, #76	; 0x4c
 8000bc6:	9213      	str	r2, [sp, #76]	; 0x4c
 8000bc8:	9322      	str	r3, [sp, #136]	; 0x88
 8000bca:	9415      	str	r4, [sp, #84]	; 0x54
 8000bcc:	f004 fec6 	bl	800595c <HAL_RCCEx_PeriphCLKConfig>
 8000bd0:	f004 febc 	bl	800594c <HAL_RCC_EnableCSS>
 8000bd4:	b025      	add	sp, #148	; 0x94
 8000bd6:	bd30      	pop	{r4, r5, pc}

08000bd8 <main>:
 8000bd8:	e92d 4880 	stmdb	sp!, {r7, fp, lr}
 8000bdc:	2400      	movs	r4, #0
 8000bde:	b0ab      	sub	sp, #172	; 0xac
 8000be0:	f003 f80c 	bl	8003bfc <HAL_Init>
 8000be4:	f7ff ffb8 	bl	8000b58 <SystemClock_Config>
 8000be8:	e9cd 441a 	strd	r4, r4, [sp, #104]	; 0x68
 8000bec:	e9cd 441c 	strd	r4, r4, [sp, #112]	; 0x70
 8000bf0:	4bbc      	ldr	r3, [pc, #752]	; (8000ee4 <main+0x30c>)
 8000bf2:	941e      	str	r4, [sp, #120]	; 0x78
 8000bf4:	6cda      	ldr	r2, [r3, #76]	; 0x4c
 8000bf6:	48bc      	ldr	r0, [pc, #752]	; (8000ee8 <main+0x310>)
 8000bf8:	4dbc      	ldr	r5, [pc, #752]	; (8000eec <main+0x314>)
 8000bfa:	f8df a354 	ldr.w	sl, [pc, #852]	; 8000f50 <main+0x378>
 8000bfe:	f042 0204 	orr.w	r2, r2, #4
 8000c02:	64da      	str	r2, [r3, #76]	; 0x4c
 8000c04:	6cda      	ldr	r2, [r3, #76]	; 0x4c
 8000c06:	f002 0204 	and.w	r2, r2, #4
 8000c0a:	9203      	str	r2, [sp, #12]
 8000c0c:	9a03      	ldr	r2, [sp, #12]
 8000c0e:	6cda      	ldr	r2, [r3, #76]	; 0x4c
 8000c10:	f042 0220 	orr.w	r2, r2, #32
 8000c14:	64da      	str	r2, [r3, #76]	; 0x4c
 8000c16:	6cda      	ldr	r2, [r3, #76]	; 0x4c
 8000c18:	f002 0220 	and.w	r2, r2, #32
 8000c1c:	9204      	str	r2, [sp, #16]
 8000c1e:	9a04      	ldr	r2, [sp, #16]
 8000c20:	6cda      	ldr	r2, [r3, #76]	; 0x4c
 8000c22:	f042 0201 	orr.w	r2, r2, #1
 8000c26:	64da      	str	r2, [r3, #76]	; 0x4c
 8000c28:	6cda      	ldr	r2, [r3, #76]	; 0x4c
 8000c2a:	f002 0201 	and.w	r2, r2, #1
 8000c2e:	9205      	str	r2, [sp, #20]
 8000c30:	9a05      	ldr	r2, [sp, #20]
 8000c32:	6cda      	ldr	r2, [r3, #76]	; 0x4c
 8000c34:	f042 0202 	orr.w	r2, r2, #2
 8000c38:	64da      	str	r2, [r3, #76]	; 0x4c
 8000c3a:	6cdb      	ldr	r3, [r3, #76]	; 0x4c
 8000c3c:	f003 0302 	and.w	r3, r3, #2
 8000c40:	4622      	mov	r2, r4
 8000c42:	2140      	movs	r1, #64	; 0x40
 8000c44:	9306      	str	r3, [sp, #24]
 8000c46:	f04f 0801 	mov.w	r8, #1
 8000c4a:	460e      	mov	r6, r1
 8000c4c:	9b06      	ldr	r3, [sp, #24]
 8000c4e:	f004 f953 	bl	8004ef8 <HAL_GPIO_WritePin>
 8000c52:	a91a      	add	r1, sp, #104	; 0x68
 8000c54:	48a4      	ldr	r0, [pc, #656]	; (8000ee8 <main+0x310>)
 8000c56:	e9cd 681a 	strd	r6, r8, [sp, #104]	; 0x68
 8000c5a:	e9cd 441c 	strd	r4, r4, [sp, #112]	; 0x70
 8000c5e:	f004 f865 	bl	8004d2c <HAL_GPIO_Init>
 8000c62:	4ba3      	ldr	r3, [pc, #652]	; (8000ef0 <main+0x318>)
 8000c64:	48a0      	ldr	r0, [pc, #640]	; (8000ee8 <main+0x310>)
 8000c66:	941c      	str	r4, [sp, #112]	; 0x70
 8000c68:	f44f 6280 	mov.w	r2, #1024	; 0x400
 8000c6c:	a91a      	add	r1, sp, #104	; 0x68
 8000c6e:	e9cd 231a 	strd	r2, r3, [sp, #104]	; 0x68
 8000c72:	f004 f85b 	bl	8004d2c <HAL_GPIO_Init>
 8000c76:	4621      	mov	r1, r4
 8000c78:	223c      	movs	r2, #60	; 0x3c
 8000c7a:	a81a      	add	r0, sp, #104	; 0x68
 8000c7c:	e9cd 440d 	strd	r4, r4, [sp, #52]	; 0x34
 8000c80:	940f      	str	r4, [sp, #60]	; 0x3c
 8000c82:	f008 ffc3 	bl	8009c0c <memset>
 8000c86:	4621      	mov	r1, r4
 8000c88:	2220      	movs	r2, #32
 8000c8a:	a812      	add	r0, sp, #72	; 0x48
 8000c8c:	f008 ffbe 	bl	8009c0c <memset>
 8000c90:	2702      	movs	r7, #2
 8000c92:	f04f 0904 	mov.w	r9, #4
 8000c96:	f44f 4300 	mov.w	r3, #32768	; 0x8000
 8000c9a:	f04f 42a0 	mov.w	r2, #1342177280	; 0x50000000
 8000c9e:	f44f 2b00 	mov.w	fp, #524288	; 0x80000
 8000ca2:	4628      	mov	r0, r5
 8000ca4:	e9c5 2b00 	strd	r2, fp, [r5]
 8000ca8:	60eb      	str	r3, [r5, #12]
 8000caa:	9301      	str	r3, [sp, #4]
 8000cac:	60ac      	str	r4, [r5, #8]
 8000cae:	e9c5 4804 	strd	r4, r8, [r5, #16]
 8000cb2:	772c      	strb	r4, [r5, #28]
 8000cb4:	776c      	strb	r4, [r5, #29]
 8000cb6:	f885 4024 	strb.w	r4, [r5, #36]	; 0x24
 8000cba:	e9c5 440b 	strd	r4, r4, [r5, #44]	; 0x2c
 8000cbe:	f885 4038 	strb.w	r4, [r5, #56]	; 0x38
 8000cc2:	63ec      	str	r4, [r5, #60]	; 0x3c
 8000cc4:	f885 4040 	strb.w	r4, [r5, #64]	; 0x40
 8000cc8:	f8c5 9018 	str.w	r9, [r5, #24]
 8000ccc:	622f      	str	r7, [r5, #32]
 8000cce:	f002 ffcd 	bl	8003c6c <HAL_ADC_Init>
 8000cd2:	a90d      	add	r1, sp, #52	; 0x34
 8000cd4:	4628      	mov	r0, r5
 8000cd6:	940d      	str	r4, [sp, #52]	; 0x34
 8000cd8:	f003 fd8c 	bl	80047f4 <HAL_ADCEx_MultiModeConfigChannel>
 8000cdc:	4a85      	ldr	r2, [pc, #532]	; (8000ef4 <main+0x31c>)
 8000cde:	9722      	str	r7, [sp, #136]	; 0x88
 8000ce0:	2309      	movs	r3, #9
 8000ce2:	e9cd 231a 	strd	r2, r3, [sp, #104]	; 0x68
 8000ce6:	2202      	movs	r2, #2
 8000ce8:	237f      	movs	r3, #127	; 0x7f
 8000cea:	e9cd 231c 	strd	r2, r3, [sp, #112]	; 0x70
 8000cee:	2204      	movs	r2, #4
 8000cf0:	2300      	movs	r3, #0
 8000cf2:	e9cd 231e 	strd	r2, r3, [sp, #120]	; 0x78
 8000cf6:	a91a      	add	r1, sp, #104	; 0x68
 8000cf8:	2284      	movs	r2, #132	; 0x84
 8000cfa:	2380      	movs	r3, #128	; 0x80
 8000cfc:	4628      	mov	r0, r5
 8000cfe:	e9cd 2324 	strd	r2, r3, [sp, #144]	; 0x90
 8000d02:	f88d 408c 	strb.w	r4, [sp, #140]	; 0x8c
 8000d06:	f88d 408d 	strb.w	r4, [sp, #141]	; 0x8d
 8000d0a:	f88d 408e 	strb.w	r4, [sp, #142]	; 0x8e
 8000d0e:	f88d 4098 	strb.w	r4, [sp, #152]	; 0x98
 8000d12:	f003 facd 	bl	80042b0 <HAL_ADCEx_InjectedConfigChannel>
 8000d16:	4a78      	ldr	r2, [pc, #480]	; (8000ef8 <main+0x320>)
 8000d18:	f240 130f 	movw	r3, #271	; 0x10f
 8000d1c:	a91a      	add	r1, sp, #104	; 0x68
 8000d1e:	4628      	mov	r0, r5
 8000d20:	e9cd 231a 	strd	r2, r3, [sp, #104]	; 0x68
 8000d24:	f003 fac4 	bl	80042b0 <HAL_ADCEx_InjectedConfigChannel>
 8000d28:	4a74      	ldr	r2, [pc, #464]	; (8000efc <main+0x324>)
 8000d2a:	9212      	str	r2, [sp, #72]	; 0x48
 8000d2c:	2306      	movs	r3, #6
 8000d2e:	227f      	movs	r2, #127	; 0x7f
 8000d30:	a912      	add	r1, sp, #72	; 0x48
 8000d32:	4628      	mov	r0, r5
 8000d34:	9313      	str	r3, [sp, #76]	; 0x4c
 8000d36:	9215      	str	r2, [sp, #84]	; 0x54
 8000d38:	f8cd 9050 	str.w	r9, [sp, #80]	; 0x50
 8000d3c:	e9cd 9416 	strd	r9, r4, [sp, #88]	; 0x58
 8000d40:	f003 f8a2 	bl	8003e88 <HAL_ADC_ConfigChannel>
 8000d44:	4a6e      	ldr	r2, [pc, #440]	; (8000f00 <main+0x328>)
 8000d46:	230c      	movs	r3, #12
 8000d48:	4628      	mov	r0, r5
 8000d4a:	a912      	add	r1, sp, #72	; 0x48
 8000d4c:	e9cd 2312 	strd	r2, r3, [sp, #72]	; 0x48
 8000d50:	f003 f89a 	bl	8003e88 <HAL_ADC_ConfigChannel>
 8000d54:	4621      	mov	r1, r4
 8000d56:	223c      	movs	r2, #60	; 0x3c
 8000d58:	a81a      	add	r0, sp, #104	; 0x68
 8000d5a:	f008 ff57 	bl	8009c0c <memset>
 8000d5e:	9b01      	ldr	r3, [sp, #4]
 8000d60:	4a68      	ldr	r2, [pc, #416]	; (8000f04 <main+0x32c>)
 8000d62:	f8ca b004 	str.w	fp, [sl, #4]
 8000d66:	4650      	mov	r0, sl
 8000d68:	e9ca 3403 	strd	r3, r4, [sl, #12]
 8000d6c:	f8ca 2000 	str.w	r2, [sl]
 8000d70:	f8ca 4008 	str.w	r4, [sl, #8]
 8000d74:	e9ca 8905 	strd	r8, r9, [sl, #20]
 8000d78:	f88a 401c 	strb.w	r4, [sl, #28]
 8000d7c:	f88a 401d 	strb.w	r4, [sl, #29]
 8000d80:	f8ca 8020 	str.w	r8, [sl, #32]
 8000d84:	f88a 4024 	strb.w	r4, [sl, #36]	; 0x24
 8000d88:	f88a 4038 	strb.w	r4, [sl, #56]	; 0x38
 8000d8c:	f8ca 403c 	str.w	r4, [sl, #60]	; 0x3c
 8000d90:	f88a 4040 	strb.w	r4, [sl, #64]	; 0x40
 8000d94:	f002 ff6a 	bl	8003c6c <HAL_ADC_Init>
 8000d98:	4a56      	ldr	r2, [pc, #344]	; (8000ef4 <main+0x31c>)
 8000d9a:	9722      	str	r7, [sp, #136]	; 0x88
 8000d9c:	2309      	movs	r3, #9
 8000d9e:	e9cd 231a 	strd	r2, r3, [sp, #104]	; 0x68
 8000da2:	2202      	movs	r2, #2
 8000da4:	237f      	movs	r3, #127	; 0x7f
 8000da6:	e9cd 231c 	strd	r2, r3, [sp, #112]	; 0x70
 8000daa:	2204      	movs	r2, #4
 8000dac:	2300      	movs	r3, #0
 8000dae:	e9cd 231e 	strd	r2, r3, [sp, #120]	; 0x78
 8000db2:	a91a      	add	r1, sp, #104	; 0x68
 8000db4:	2284      	movs	r2, #132	; 0x84
 8000db6:	2380      	movs	r3, #128	; 0x80
 8000db8:	4650      	mov	r0, sl
 8000dba:	e9cd 2324 	strd	r2, r3, [sp, #144]	; 0x90
 8000dbe:	f88d 408c 	strb.w	r4, [sp, #140]	; 0x8c
 8000dc2:	f88d 408d 	strb.w	r4, [sp, #141]	; 0x8d
 8000dc6:	f88d 408e 	strb.w	r4, [sp, #142]	; 0x8e
 8000dca:	f88d 4098 	strb.w	r4, [sp, #152]	; 0x98
 8000dce:	f003 fa6f 	bl	80042b0 <HAL_ADCEx_InjectedConfigChannel>
 8000dd2:	4b4d      	ldr	r3, [pc, #308]	; (8000f08 <main+0x330>)
 8000dd4:	a91a      	add	r1, sp, #104	; 0x68
 8000dd6:	f240 120f 	movw	r2, #271	; 0x10f
 8000dda:	4650      	mov	r0, sl
 8000ddc:	e9cd 321a 	strd	r3, r2, [sp, #104]	; 0x68
 8000de0:	f003 fa66 	bl	80042b0 <HAL_ADCEx_InjectedConfigChannel>
 8000de4:	4b49      	ldr	r3, [pc, #292]	; (8000f0c <main+0x334>)
 8000de6:	4a4a      	ldr	r2, [pc, #296]	; (8000f10 <main+0x338>)
 8000de8:	601a      	str	r2, [r3, #0]
 8000dea:	f44f 0540 	mov.w	r5, #12582912	; 0xc00000
 8000dee:	4618      	mov	r0, r3
 8000df0:	609d      	str	r5, [r3, #8]
 8000df2:	605c      	str	r4, [r3, #4]
 8000df4:	e9c3 4403 	strd	r4, r4, [r3, #12]
 8000df8:	e9c3 4405 	strd	r4, r4, [r3, #20]
 8000dfc:	f003 fd64 	bl	80048c8 <HAL_COMP_Init>
 8000e00:	4b44      	ldr	r3, [pc, #272]	; (8000f14 <main+0x33c>)
 8000e02:	4a45      	ldr	r2, [pc, #276]	; (8000f18 <main+0x340>)
 8000e04:	609d      	str	r5, [r3, #8]
 8000e06:	4618      	mov	r0, r3
 8000e08:	601a      	str	r2, [r3, #0]
 8000e0a:	605c      	str	r4, [r3, #4]
 8000e0c:	e9c3 4403 	strd	r4, r4, [r3, #12]
 8000e10:	e9c3 4405 	strd	r4, r4, [r3, #20]
 8000e14:	f003 fd58 	bl	80048c8 <HAL_COMP_Init>
 8000e18:	4b40      	ldr	r3, [pc, #256]	; (8000f1c <main+0x344>)
 8000e1a:	4a41      	ldr	r2, [pc, #260]	; (8000f20 <main+0x348>)
 8000e1c:	601a      	str	r2, [r3, #0]
 8000e1e:	4618      	mov	r0, r3
 8000e20:	609d      	str	r5, [r3, #8]
 8000e22:	605c      	str	r4, [r3, #4]
 8000e24:	e9c3 4403 	strd	r4, r4, [r3, #12]
 8000e28:	e9c3 4405 	strd	r4, r4, [r3, #20]
 8000e2c:	f003 fd4c 	bl	80048c8 <HAL_COMP_Init>
 8000e30:	483c      	ldr	r0, [pc, #240]	; (8000f24 <main+0x34c>)
 8000e32:	4b3d      	ldr	r3, [pc, #244]	; (8000f28 <main+0x350>)
 8000e34:	4d3d      	ldr	r5, [pc, #244]	; (8000f2c <main+0x354>)
 8000e36:	6003      	str	r3, [r0, #0]
 8000e38:	f003 fdea 	bl	8004a10 <HAL_CORDIC_Init>
 8000e3c:	4621      	mov	r1, r4
 8000e3e:	2230      	movs	r2, #48	; 0x30
 8000e40:	a81a      	add	r0, sp, #104	; 0x68
 8000e42:	f008 fee3 	bl	8009c0c <memset>
 8000e46:	f04f 0a00 	mov.w	sl, #0
 8000e4a:	4b39      	ldr	r3, [pc, #228]	; (8000f30 <main+0x358>)
 8000e4c:	602b      	str	r3, [r5, #0]
 8000e4e:	f04f 0b02 	mov.w	fp, #2
 8000e52:	4628      	mov	r0, r5
 8000e54:	f003 fe6c 	bl	8004b30 <HAL_DAC_Init>
 8000e58:	a91a      	add	r1, sp, #104	; 0x68
 8000e5a:	e9cd ab1c 	strd	sl, fp, [sp, #112]	; 0x70
 8000e5e:	e9cd ab1e 	strd	sl, fp, [sp, #120]	; 0x78
 8000e62:	4628      	mov	r0, r5
 8000e64:	4622      	mov	r2, r4
 8000e66:	f04f 0a05 	mov.w	sl, #5
 8000e6a:	f04f 0b00 	mov.w	fp, #0
 8000e6e:	e9cd ab20 	strd	sl, fp, [sp, #128]	; 0x80
 8000e72:	971a      	str	r7, [sp, #104]	; 0x68
 8000e74:	f88d 406c 	strb.w	r4, [sp, #108]	; 0x6c
 8000e78:	f88d 406d 	strb.w	r4, [sp, #109]	; 0x6d
 8000e7c:	f003 fe6e 	bl	8004b5c <HAL_DAC_ConfigChannel>
 8000e80:	4b2c      	ldr	r3, [pc, #176]	; (8000f34 <main+0x35c>)
 8000e82:	4a2d      	ldr	r2, [pc, #180]	; (8000f38 <main+0x360>)
 8000e84:	609e      	str	r6, [r3, #8]
 8000e86:	f44f 3b00 	mov.w	fp, #131072	; 0x20000
 8000e8a:	f44f 4a40 	mov.w	sl, #49152	; 0xc000
 8000e8e:	4618      	mov	r0, r3
 8000e90:	e9c3 ba09 	strd	fp, sl, [r3, #36]	; 0x24
 8000e94:	601a      	str	r2, [r3, #0]
 8000e96:	605c      	str	r4, [r3, #4]
 8000e98:	611c      	str	r4, [r3, #16]
 8000e9a:	751c      	strb	r4, [r3, #20]
 8000e9c:	619c      	str	r4, [r3, #24]
 8000e9e:	62dc      	str	r4, [r3, #44]	; 0x2c
 8000ea0:	f004 f830 	bl	8004f04 <HAL_OPAMP_Init>
 8000ea4:	4b25      	ldr	r3, [pc, #148]	; (8000f3c <main+0x364>)
 8000ea6:	4a26      	ldr	r2, [pc, #152]	; (8000f40 <main+0x368>)
 8000ea8:	609e      	str	r6, [r3, #8]
 8000eaa:	4618      	mov	r0, r3
 8000eac:	e9c3 ba09 	strd	fp, sl, [r3, #36]	; 0x24
 8000eb0:	601a      	str	r2, [r3, #0]
 8000eb2:	605c      	str	r4, [r3, #4]
 8000eb4:	611c      	str	r4, [r3, #16]
 8000eb6:	751c      	strb	r4, [r3, #20]
 8000eb8:	619c      	str	r4, [r3, #24]
 8000eba:	62dc      	str	r4, [r3, #44]	; 0x2c
 8000ebc:	f004 f822 	bl	8004f04 <HAL_OPAMP_Init>
 8000ec0:	4b20      	ldr	r3, [pc, #128]	; (8000f44 <main+0x36c>)
 8000ec2:	4a21      	ldr	r2, [pc, #132]	; (8000f48 <main+0x370>)
 8000ec4:	4d21      	ldr	r5, [pc, #132]	; (8000f4c <main+0x374>)
 8000ec6:	609e      	str	r6, [r3, #8]
 8000ec8:	4618      	mov	r0, r3
 8000eca:	e9c3 ba09 	strd	fp, sl, [r3, #36]	; 0x24
 8000ece:	601a      	str	r2, [r3, #0]
 8000ed0:	605c      	str	r4, [r3, #4]
 8000ed2:	611c      	str	r4, [r3, #16]
 8000ed4:	f883 8014 	strb.w	r8, [r3, #20]
 8000ed8:	619c      	str	r4, [r3, #24]
 8000eda:	62dc      	str	r4, [r3, #44]	; 0x2c
 8000edc:	f004 f812 	bl	8004f04 <HAL_OPAMP_Init>
 8000ee0:	4621      	mov	r1, r4
 8000ee2:	e037      	b.n	8000f54 <main+0x37c>
 8000ee4:	40021000 	.word	0x40021000
 8000ee8:	48000800 	.word	0x48000800
 8000eec:	200008fc 	.word	0x200008fc
 8000ef0:	10210000 	.word	0x10210000
 8000ef4:	0c900008 	.word	0x0c900008
 8000ef8:	32601000 	.word	0x32601000
 8000efc:	04300002 	.word	0x04300002
 8000f00:	14f00020 	.word	0x14f00020
 8000f04:	50000100 	.word	0x50000100
 8000f08:	cb8c0000 	.word	0xcb8c0000
 8000f0c:	20000878 	.word	0x20000878
 8000f10:	40010200 	.word	0x40010200
 8000f14:	200009d0 	.word	0x200009d0
 8000f18:	40010204 	.word	0x40010204
 8000f1c:	200008d8 	.word	0x200008d8
 8000f20:	4001020c 	.word	0x4001020c
 8000f24:	20000968 	.word	0x20000968
 8000f28:	40020c00 	.word	0x40020c00
 8000f2c:	200007bc 	.word	0x200007bc
 8000f30:	50000800 	.word	0x50000800
 8000f34:	2000089c 	.word	0x2000089c
 8000f38:	40010300 	.word	0x40010300
 8000f3c:	20000780 	.word	0x20000780
 8000f40:	40010304 	.word	0x40010304
 8000f44:	2000083c 	.word	0x2000083c
 8000f48:	40010308 	.word	0x40010308
 8000f4c:	20000990 	.word	0x20000990
 8000f50:	200007d0 	.word	0x200007d0
 8000f54:	2234      	movs	r2, #52	; 0x34
 8000f56:	a81a      	add	r0, sp, #104	; 0x68
 8000f58:	e9cd 440d 	strd	r4, r4, [sp, #52]	; 0x34
 8000f5c:	e9cd 440f 	strd	r4, r4, [sp, #60]	; 0x3c
 8000f60:	9411      	str	r4, [sp, #68]	; 0x44
 8000f62:	9407      	str	r4, [sp, #28]
 8000f64:	940a      	str	r4, [sp, #40]	; 0x28
 8000f66:	e9cd 4412 	strd	r4, r4, [sp, #72]	; 0x48
 8000f6a:	e9cd 4414 	strd	r4, r4, [sp, #80]	; 0x50
 8000f6e:	e9cd 4416 	strd	r4, r4, [sp, #88]	; 0x58
 8000f72:	9418      	str	r4, [sp, #96]	; 0x60
 8000f74:	e9cd 4408 	strd	r4, r4, [sp, #32]
 8000f78:	e9cd 440b 	strd	r4, r4, [sp, #44]	; 0x2c
 8000f7c:	f008 fe46 	bl	8009c0c <memset>
 8000f80:	2320      	movs	r3, #32
 8000f82:	4a8c      	ldr	r2, [pc, #560]	; (80011b4 <main+0x5dc>)
 8000f84:	60ab      	str	r3, [r5, #8]
 8000f86:	f44f 7b80 	mov.w	fp, #256	; 0x100
 8000f8a:	f241 039a 	movw	r3, #4250	; 0x109a
 8000f8e:	4628      	mov	r0, r5
 8000f90:	602a      	str	r2, [r5, #0]
 8000f92:	e9c5 3b03 	strd	r3, fp, [r5, #12]
 8000f96:	606c      	str	r4, [r5, #4]
 8000f98:	e9c5 8405 	strd	r8, r4, [r5, #20]
 8000f9c:	f004 fe2a 	bl	8005bf4 <HAL_TIM_Base_Init>
 8000fa0:	4628      	mov	r0, r5
 8000fa2:	f004 feb1 	bl	8005d08 <HAL_TIM_PWM_Init>
 8000fa6:	f04f 0a10 	mov.w	sl, #16
 8000faa:	2306      	movs	r3, #6
 8000fac:	4628      	mov	r0, r5
 8000fae:	a90d      	add	r1, sp, #52	; 0x34
 8000fb0:	e9cd 3a0d 	strd	r3, sl, [sp, #52]	; 0x34
 8000fb4:	2670      	movs	r6, #112	; 0x70
 8000fb6:	f005 fa55 	bl	8006464 <HAL_TIM_SlaveConfigSynchro>
 8000fba:	a907      	add	r1, sp, #28
 8000fbc:	4628      	mov	r0, r5
 8000fbe:	9607      	str	r6, [sp, #28]
 8000fc0:	e9cd 4408 	strd	r4, r4, [sp, #32]
 8000fc4:	f005 fad0 	bl	8006568 <HAL_TIMEx_MasterConfigSynchronization>
 8000fc8:	aa0a      	add	r2, sp, #40	; 0x28
 8000fca:	4639      	mov	r1, r7
 8000fcc:	4628      	mov	r0, r5
 8000fce:	970a      	str	r7, [sp, #40]	; 0x28
 8000fd0:	e9cd 840b 	strd	r8, r4, [sp, #44]	; 0x2c
 8000fd4:	f005 fb48 	bl	8006668 <HAL_TIMEx_ConfigBreakInput>
 8000fd8:	aa0a      	add	r2, sp, #40	; 0x28
 8000fda:	4639      	mov	r1, r7
 8000fdc:	4628      	mov	r0, r5
 8000fde:	f8cd 9028 	str.w	r9, [sp, #40]	; 0x28
 8000fe2:	f005 fb41 	bl	8006668 <HAL_TIMEx_ConfigBreakInput>
 8000fe6:	aa0a      	add	r2, sp, #40	; 0x28
 8000fe8:	4639      	mov	r1, r7
 8000fea:	4628      	mov	r0, r5
 8000fec:	f8cd a028 	str.w	sl, [sp, #40]	; 0x28
 8000ff0:	f005 fb3a 	bl	8006668 <HAL_TIMEx_ConfigBreakInput>
 8000ff4:	2360      	movs	r3, #96	; 0x60
 8000ff6:	4622      	mov	r2, r4
 8000ff8:	a912      	add	r1, sp, #72	; 0x48
 8000ffa:	4628      	mov	r0, r5
 8000ffc:	9312      	str	r3, [sp, #72]	; 0x48
 8000ffe:	e9cd 4413 	strd	r4, r4, [sp, #76]	; 0x4c
 8001002:	e9cd 4415 	strd	r4, r4, [sp, #84]	; 0x54
 8001006:	e9cd 4417 	strd	r4, r4, [sp, #92]	; 0x5c
 800100a:	f005 f84d 	bl	80060a8 <HAL_TIM_PWM_ConfigChannel>
 800100e:	464a      	mov	r2, r9
 8001010:	a912      	add	r1, sp, #72	; 0x48
 8001012:	4628      	mov	r0, r5
 8001014:	9413      	str	r4, [sp, #76]	; 0x4c
 8001016:	f005 f847 	bl	80060a8 <HAL_TIM_PWM_ConfigChannel>
 800101a:	a912      	add	r1, sp, #72	; 0x48
 800101c:	4628      	mov	r0, r5
 800101e:	2208      	movs	r2, #8
 8001020:	9413      	str	r4, [sp, #76]	; 0x4c
 8001022:	f005 f841 	bl	80060a8 <HAL_TIM_PWM_ConfigChannel>
 8001026:	220c      	movs	r2, #12
 8001028:	a912      	add	r1, sp, #72	; 0x48
 800102a:	4628      	mov	r0, r5
 800102c:	e9cd 6412 	strd	r6, r4, [sp, #72]	; 0x48
 8001030:	9415      	str	r4, [sp, #84]	; 0x54
 8001032:	f005 f839 	bl	80060a8 <HAL_TIM_PWM_ConfigChannel>
 8001036:	f44f 6380 	mov.w	r3, #1024	; 0x400
 800103a:	f04f 0e44 	mov.w	lr, #68	; 0x44
 800103e:	f44f 5c00 	mov.w	ip, #8192	; 0x2000
 8001042:	4e5d      	ldr	r6, [pc, #372]	; (80011b8 <main+0x5e0>)
 8001044:	f8cd b070 	str.w	fp, [sp, #112]	; 0x70
 8001048:	a91a      	add	r1, sp, #104	; 0x68
 800104a:	f04f 7280 	mov.w	r2, #16777216	; 0x1000000
 800104e:	f04f 0a03 	mov.w	sl, #3
 8001052:	4628      	mov	r0, r5
 8001054:	f44f 6b00 	mov.w	fp, #2048	; 0x800
 8001058:	931b      	str	r3, [sp, #108]	; 0x6c
 800105a:	f04f 7300 	mov.w	r3, #33554432	; 0x2000000
 800105e:	f8cd e074 	str.w	lr, [sp, #116]	; 0x74
 8001062:	f8cd c07c 	str.w	ip, [sp, #124]	; 0x7c
 8001066:	9222      	str	r2, [sp, #136]	; 0x88
 8001068:	e9cd 3a23 	strd	r3, sl, [sp, #140]	; 0x8c
 800106c:	f8cd b068 	str.w	fp, [sp, #104]	; 0x68
 8001070:	941e      	str	r4, [sp, #120]	; 0x78
 8001072:	e9cd 4420 	strd	r4, r4, [sp, #128]	; 0x80
 8001076:	e9cd 4425 	strd	r4, r4, [sp, #148]	; 0x94
 800107a:	f005 faa7 	bl	80065cc <HAL_TIMEx_ConfigBreakDeadTime>
 800107e:	4628      	mov	r0, r5
 8001080:	f001 fe14 	bl	8002cac <HAL_TIM_MspPostInit>
 8001084:	f04f 4280 	mov.w	r2, #1073741824	; 0x40000000
 8001088:	f04f 33ff 	mov.w	r3, #4294967295
 800108c:	4630      	mov	r0, r6
 800108e:	6032      	str	r2, [r6, #0]
 8001090:	60f3      	str	r3, [r6, #12]
 8001092:	e9cd 441a 	strd	r4, r4, [sp, #104]	; 0x68
 8001096:	e9cd 441c 	strd	r4, r4, [sp, #112]	; 0x70
 800109a:	941e      	str	r4, [sp, #120]	; 0x78
 800109c:	e9cd 440d 	strd	r4, r4, [sp, #52]	; 0x34
 80010a0:	940f      	str	r4, [sp, #60]	; 0x3c
 80010a2:	e9cd 4412 	strd	r4, r4, [sp, #72]	; 0x48
 80010a6:	e9cd 4414 	strd	r4, r4, [sp, #80]	; 0x50
 80010aa:	e9c6 4401 	strd	r4, r4, [r6, #4]
 80010ae:	6134      	str	r4, [r6, #16]
 80010b0:	61b4      	str	r4, [r6, #24]
 80010b2:	f004 fd9f 	bl	8005bf4 <HAL_TIM_Base_Init>
 80010b6:	4630      	mov	r0, r6
 80010b8:	f004 feb0 	bl	8005e1c <HAL_TIM_IC_Init>
 80010bc:	2350      	movs	r3, #80	; 0x50
 80010be:	a91a      	add	r1, sp, #104	; 0x68
 80010c0:	4630      	mov	r0, r6
 80010c2:	931b      	str	r3, [sp, #108]	; 0x6c
 80010c4:	f8cd 9068 	str.w	r9, [sp, #104]	; 0x68
 80010c8:	941c      	str	r4, [sp, #112]	; 0x70
 80010ca:	941e      	str	r4, [sp, #120]	; 0x78
 80010cc:	f005 f9ca 	bl	8006464 <HAL_TIM_SlaveConfigSynchro>
 80010d0:	a90d      	add	r1, sp, #52	; 0x34
 80010d2:	4630      	mov	r0, r6
 80010d4:	940d      	str	r4, [sp, #52]	; 0x34
 80010d6:	940f      	str	r4, [sp, #60]	; 0x3c
 80010d8:	f005 fa46 	bl	8006568 <HAL_TIMEx_MasterConfigSynchronization>
 80010dc:	4622      	mov	r2, r4
 80010de:	a912      	add	r1, sp, #72	; 0x48
 80010e0:	4630      	mov	r0, r6
 80010e2:	f8df b0e0 	ldr.w	fp, [pc, #224]	; 80011c4 <main+0x5ec>
 80010e6:	4d35      	ldr	r5, [pc, #212]	; (80011bc <main+0x5e4>)
 80010e8:	e9cd 4812 	strd	r4, r8, [sp, #72]	; 0x48
 80010ec:	e9cd 4414 	strd	r4, r4, [sp, #80]	; 0x50
 80010f0:	f004 ff1c 	bl	8005f2c <HAL_TIM_IC_ConfigChannel>
 80010f4:	a912      	add	r1, sp, #72	; 0x48
 80010f6:	464a      	mov	r2, r9
 80010f8:	4630      	mov	r0, r6
 80010fa:	e9cd 7712 	strd	r7, r7, [sp, #72]	; 0x48
 80010fe:	f004 ff15 	bl	8005f2c <HAL_TIM_IC_ConfigChannel>
 8001102:	4a2f      	ldr	r2, [pc, #188]	; (80011c0 <main+0x5e8>)
 8001104:	f8cb 4010 	str.w	r4, [fp, #16]
 8001108:	230c      	movs	r3, #12
 800110a:	f8cb 3014 	str.w	r3, [fp, #20]
 800110e:	4658      	mov	r0, fp
 8001110:	f44f 33e1 	mov.w	r3, #115200	; 0x1c200
 8001114:	e9cb 2300 	strd	r2, r3, [fp]
 8001118:	e9cb 4402 	strd	r4, r4, [fp, #8]
 800111c:	e9cb 4406 	strd	r4, r4, [fp, #24]
 8001120:	e9cb 4408 	strd	r4, r4, [fp, #32]
 8001124:	f8cb 4028 	str.w	r4, [fp, #40]	; 0x28
 8001128:	f005 fb52 	bl	80067d0 <HAL_UART_Init>
 800112c:	4621      	mov	r1, r4
 800112e:	4658      	mov	r0, fp
 8001130:	f006 f950 	bl	80073d4 <HAL_UARTEx_SetTxFifoThreshold>
 8001134:	4621      	mov	r1, r4
 8001136:	4658      	mov	r0, fp
 8001138:	f006 f99e 	bl	8007478 <HAL_UARTEx_SetRxFifoThreshold>
 800113c:	4658      	mov	r0, fp
 800113e:	f006 f92b 	bl	8007398 <HAL_UARTEx_DisableFifoMode>
 8001142:	f001 fa53 	bl	80025ec <MX_MotorControl_Init>
 8001146:	4642      	mov	r2, r8
 8001148:	4649      	mov	r1, r9
 800114a:	2018      	movs	r0, #24
 800114c:	f003 fc8c 	bl	8004a68 <HAL_NVIC_SetPriority>
 8001150:	2018      	movs	r0, #24
 8001152:	f003 fcbf 	bl	8004ad4 <HAL_NVIC_EnableIRQ>
 8001156:	4622      	mov	r2, r4
 8001158:	4621      	mov	r1, r4
 800115a:	2019      	movs	r0, #25
 800115c:	f003 fc84 	bl	8004a68 <HAL_NVIC_SetPriority>
 8001160:	2019      	movs	r0, #25
 8001162:	f003 fcb7 	bl	8004ad4 <HAL_NVIC_EnableIRQ>
 8001166:	4622      	mov	r2, r4
 8001168:	4639      	mov	r1, r7
 800116a:	2012      	movs	r0, #18
 800116c:	f003 fc7c 	bl	8004a68 <HAL_NVIC_SetPriority>
 8001170:	2012      	movs	r0, #18
 8001172:	f003 fcaf 	bl	8004ad4 <HAL_NVIC_EnableIRQ>
 8001176:	4642      	mov	r2, r8
 8001178:	4651      	mov	r1, sl
 800117a:	2026      	movs	r0, #38	; 0x26
 800117c:	f003 fc74 	bl	8004a68 <HAL_NVIC_SetPriority>
 8001180:	2026      	movs	r0, #38	; 0x26
 8001182:	f003 fca7 	bl	8004ad4 <HAL_NVIC_EnableIRQ>
 8001186:	4622      	mov	r2, r4
 8001188:	4621      	mov	r1, r4
 800118a:	2028      	movs	r0, #40	; 0x28
 800118c:	f003 fc6c 	bl	8004a68 <HAL_NVIC_SetPriority>
 8001190:	2028      	movs	r0, #40	; 0x28
 8001192:	f003 fc9f 	bl	8004ad4 <HAL_NVIC_EnableIRQ>
 8001196:	4622      	mov	r2, r4
 8001198:	4651      	mov	r1, sl
 800119a:	201c      	movs	r0, #28
 800119c:	f003 fc64 	bl	8004a68 <HAL_NVIC_SetPriority>
 80011a0:	201c      	movs	r0, #28
 80011a2:	f003 fc97 	bl	8004ad4 <HAL_NVIC_EnableIRQ>
 80011a6:	4628      	mov	r0, r5
 80011a8:	f7ff fa04 	bl	80005b4 <esc_boot>
 80011ac:	4628      	mov	r0, r5
 80011ae:	f7ff fa1b 	bl	80005e8 <esc_pwm_control>
 80011b2:	e7fb      	b.n	80011ac <main+0x5d4>
 80011b4:	40012c00 	.word	0x40012c00
 80011b8:	200009f4 	.word	0x200009f4
 80011bc:	200000f0 	.word	0x200000f0
 80011c0:	40004400 	.word	0x40004400
 80011c4:	20000a34 	.word	0x20000a34

080011c8 <MC_StartMotor1>:
 80011c8:	4b01      	ldr	r3, [pc, #4]	; (80011d0 <MC_StartMotor1+0x8>)
 80011ca:	6818      	ldr	r0, [r3, #0]
 80011cc:	f000 b84a 	b.w	8001264 <MCI_StartMotor>
 80011d0:	20000ba0 	.word	0x20000ba0

080011d4 <MC_StopMotor1>:
 80011d4:	4b01      	ldr	r3, [pc, #4]	; (80011dc <MC_StopMotor1+0x8>)
 80011d6:	6818      	ldr	r0, [r3, #0]
 80011d8:	f000 b84e 	b.w	8001278 <MCI_StopMotor>
 80011dc:	20000ba0 	.word	0x20000ba0

080011e0 <MC_AcknowledgeFaultMotor1>:
 80011e0:	4b01      	ldr	r3, [pc, #4]	; (80011e8 <MC_AcknowledgeFaultMotor1+0x8>)
 80011e2:	6818      	ldr	r0, [r3, #0]
 80011e4:	f000 b84c 	b.w	8001280 <MCI_FaultAcknowledged>
 80011e8:	20000ba0 	.word	0x20000ba0

080011ec <MC_GetOccurredFaultsMotor1>:
 80011ec:	4b01      	ldr	r3, [pc, #4]	; (80011f4 <MC_GetOccurredFaultsMotor1+0x8>)
 80011ee:	6818      	ldr	r0, [r3, #0]
 80011f0:	f000 b88c 	b.w	800130c <MCI_GetOccurredFaults>
 80011f4:	20000ba0 	.word	0x20000ba0

080011f8 <MC_GetSTMStateMotor1>:
 80011f8:	4b01      	ldr	r3, [pc, #4]	; (8001200 <MC_GetSTMStateMotor1+0x8>)
 80011fa:	6818      	ldr	r0, [r3, #0]
 80011fc:	f000 b882 	b.w	8001304 <MCI_GetSTMState>
 8001200:	20000ba0 	.word	0x20000ba0

08001204 <MCI_Init>:
 8001204:	b410      	push	{r4}
 8001206:	2400      	movs	r4, #0
 8001208:	7304      	strb	r4, [r0, #12]
 800120a:	f8c0 400e 	str.w	r4, [r0, #14]
 800120e:	82c4      	strh	r4, [r0, #22]
 8001210:	7604      	strb	r4, [r0, #24]
 8001212:	e9c0 1200 	strd	r1, r2, [r0]
 8001216:	6083      	str	r3, [r0, #8]
 8001218:	f85d 4b04 	ldr.w	r4, [sp], #4
 800121c:	4770      	bx	lr
 800121e:	bf00      	nop

08001220 <MCI_ExecSpeedRamp>:
 8001220:	2301      	movs	r3, #1
 8001222:	81c1      	strh	r1, [r0, #14]
 8001224:	82c2      	strh	r2, [r0, #22]
 8001226:	7303      	strb	r3, [r0, #12]
 8001228:	7603      	strb	r3, [r0, #24]
 800122a:	7643      	strb	r3, [r0, #25]
 800122c:	4770      	bx	lr
 800122e:	bf00      	nop

08001230 <MCI_ExecTorqueRamp>:
 8001230:	b430      	push	{r4, r5}
 8001232:	2300      	movs	r3, #0
 8001234:	2502      	movs	r5, #2
 8001236:	2401      	movs	r4, #1
 8001238:	7305      	strb	r5, [r0, #12]
 800123a:	7604      	strb	r4, [r0, #24]
 800123c:	8201      	strh	r1, [r0, #16]
 800123e:	82c2      	strh	r2, [r0, #22]
 8001240:	7643      	strb	r3, [r0, #25]
 8001242:	bc30      	pop	{r4, r5}
 8001244:	4770      	bx	lr
 8001246:	bf00      	nop

08001248 <MCI_SetCurrentReferences>:
 8001248:	b410      	push	{r4}
 800124a:	2201      	movs	r2, #1
 800124c:	b083      	sub	sp, #12
 800124e:	2403      	movs	r4, #3
 8001250:	2300      	movs	r3, #0
 8001252:	f8c0 1012 	str.w	r1, [r0, #18]
 8001256:	7304      	strb	r4, [r0, #12]
 8001258:	7602      	strb	r2, [r0, #24]
 800125a:	7643      	strb	r3, [r0, #25]
 800125c:	b003      	add	sp, #12
 800125e:	f85d 4b04 	ldr.w	r4, [sp], #4
 8001262:	4770      	bx	lr

08001264 <MCI_StartMotor>:
 8001264:	b510      	push	{r4, lr}
 8001266:	2103      	movs	r1, #3
 8001268:	4604      	mov	r4, r0
 800126a:	6800      	ldr	r0, [r0, #0]
 800126c:	f007 fe02 	bl	8008e74 <STM_NextState>
 8001270:	b108      	cbz	r0, 8001276 <MCI_StartMotor+0x12>
 8001272:	2301      	movs	r3, #1
 8001274:	7623      	strb	r3, [r4, #24]
 8001276:	bd10      	pop	{r4, pc}

08001278 <MCI_StopMotor>:
 8001278:	6800      	ldr	r0, [r0, #0]
 800127a:	2107      	movs	r1, #7
 800127c:	f007 bdfa 	b.w	8008e74 <STM_NextState>

08001280 <MCI_FaultAcknowledged>:
 8001280:	6800      	ldr	r0, [r0, #0]
 8001282:	f007 be6d 	b.w	8008f60 <STM_FaultAcknowledged>
 8001286:	bf00      	nop

08001288 <MCI_EncoderAlign>:
 8001288:	6800      	ldr	r0, [r0, #0]
 800128a:	2101      	movs	r1, #1
 800128c:	f007 bdf2 	b.w	8008e74 <STM_NextState>

08001290 <MCI_ExecBufferedCommands>:
 8001290:	b110      	cbz	r0, 8001298 <MCI_ExecBufferedCommands+0x8>
 8001292:	7e03      	ldrb	r3, [r0, #24]
 8001294:	2b01      	cmp	r3, #1
 8001296:	d000      	beq.n	800129a <MCI_ExecBufferedCommands+0xa>
 8001298:	4770      	bx	lr
 800129a:	7b01      	ldrb	r1, [r0, #12]
 800129c:	2902      	cmp	r1, #2
 800129e:	b510      	push	{r4, lr}
 80012a0:	4604      	mov	r4, r0
 80012a2:	d01f      	beq.n	80012e4 <MCI_ExecBufferedCommands+0x54>
 80012a4:	2903      	cmp	r1, #3
 80012a6:	d004      	beq.n	80012b2 <MCI_ExecBufferedCommands+0x22>
 80012a8:	2901      	cmp	r1, #1
 80012aa:	d00b      	beq.n	80012c4 <MCI_ExecBufferedCommands+0x34>
 80012ac:	2303      	movs	r3, #3
 80012ae:	7623      	strb	r3, [r4, #24]
 80012b0:	bd10      	pop	{r4, pc}
 80012b2:	6882      	ldr	r2, [r0, #8]
 80012b4:	f8d0 1012 	ldr.w	r1, [r0, #18]
 80012b8:	6111      	str	r1, [r2, #16]
 80012ba:	f882 3024 	strb.w	r3, [r2, #36]	; 0x24
 80012be:	2302      	movs	r3, #2
 80012c0:	7623      	strb	r3, [r4, #24]
 80012c2:	bd10      	pop	{r4, pc}
 80012c4:	e9d0 0301 	ldrd	r0, r3, [r0, #4]
 80012c8:	2200      	movs	r2, #0
 80012ca:	f883 2024 	strb.w	r2, [r3, #36]	; 0x24
 80012ce:	f007 fd11 	bl	8008cf4 <STC_SetControlMode>
 80012d2:	8ae2      	ldrh	r2, [r4, #22]
 80012d4:	f9b4 100e 	ldrsh.w	r1, [r4, #14]
 80012d8:	6860      	ldr	r0, [r4, #4]
 80012da:	f007 fd0f 	bl	8008cfc <STC_ExecRamp>
 80012de:	2800      	cmp	r0, #0
 80012e0:	d0e4      	beq.n	80012ac <MCI_ExecBufferedCommands+0x1c>
 80012e2:	e7ec      	b.n	80012be <MCI_ExecBufferedCommands+0x2e>
 80012e4:	e9d0 0301 	ldrd	r0, r3, [r0, #4]
 80012e8:	2100      	movs	r1, #0
 80012ea:	f883 1024 	strb.w	r1, [r3, #36]	; 0x24
 80012ee:	f007 fd01 	bl	8008cf4 <STC_SetControlMode>
 80012f2:	8ae2      	ldrh	r2, [r4, #22]
 80012f4:	f9b4 1010 	ldrsh.w	r1, [r4, #16]
 80012f8:	6860      	ldr	r0, [r4, #4]
 80012fa:	f007 fcff 	bl	8008cfc <STC_ExecRamp>
 80012fe:	2800      	cmp	r0, #0
 8001300:	d0d4      	beq.n	80012ac <MCI_ExecBufferedCommands+0x1c>
 8001302:	e7dc      	b.n	80012be <MCI_ExecBufferedCommands+0x2e>

08001304 <MCI_GetSTMState>:
 8001304:	6800      	ldr	r0, [r0, #0]
 8001306:	f007 be29 	b.w	8008f5c <STM_GetState>
 800130a:	bf00      	nop

0800130c <MCI_GetOccurredFaults>:
 800130c:	b508      	push	{r3, lr}
 800130e:	6800      	ldr	r0, [r0, #0]
 8001310:	f007 fe32 	bl	8008f78 <STM_GetFaultState>
 8001314:	b280      	uxth	r0, r0
 8001316:	bd08      	pop	{r3, pc}

08001318 <MCI_GetControlMode>:
 8001318:	7e40      	ldrb	r0, [r0, #25]
 800131a:	4770      	bx	lr

0800131c <MCI_GetImposedMotorDirection>:
 800131c:	7b03      	ldrb	r3, [r0, #12]
 800131e:	2b02      	cmp	r3, #2
 8001320:	d015      	beq.n	800134e <MCI_GetImposedMotorDirection+0x32>
 8001322:	2b03      	cmp	r3, #3
 8001324:	d00b      	beq.n	800133e <MCI_GetImposedMotorDirection+0x22>
 8001326:	2b01      	cmp	r3, #1
 8001328:	d001      	beq.n	800132e <MCI_GetImposedMotorDirection+0x12>
 800132a:	2001      	movs	r0, #1
 800132c:	4770      	bx	lr
 800132e:	f9b0 300e 	ldrsh.w	r3, [r0, #14]
 8001332:	2b00      	cmp	r3, #0
 8001334:	bfac      	ite	ge
 8001336:	2001      	movge	r0, #1
 8001338:	f04f 30ff 	movlt.w	r0, #4294967295
 800133c:	4770      	bx	lr
 800133e:	f9b0 3012 	ldrsh.w	r3, [r0, #18]
 8001342:	2b00      	cmp	r3, #0
 8001344:	bfac      	ite	ge
 8001346:	2001      	movge	r0, #1
 8001348:	f04f 30ff 	movlt.w	r0, #4294967295
 800134c:	4770      	bx	lr
 800134e:	f9b0 3010 	ldrsh.w	r3, [r0, #16]
 8001352:	2b00      	cmp	r3, #0
 8001354:	bfac      	ite	ge
 8001356:	2001      	movge	r0, #1
 8001358:	f04f 30ff 	movlt.w	r0, #4294967295
 800135c:	4770      	bx	lr
 800135e:	bf00      	nop

08001360 <MCI_GetLastRampFinalSpeed>:
 8001360:	7b03      	ldrb	r3, [r0, #12]
 8001362:	2b01      	cmp	r3, #1
 8001364:	bf0c      	ite	eq
 8001366:	f9b0 000e 	ldrsheq.w	r0, [r0, #14]
 800136a:	2000      	movne	r0, #0
 800136c:	4770      	bx	lr
 800136e:	bf00      	nop

08001370 <MCI_StopRamp>:
 8001370:	6840      	ldr	r0, [r0, #4]
 8001372:	f007 bd0d 	b.w	8008d90 <STC_StopRamp>
 8001376:	bf00      	nop

08001378 <MCI_GetAvrgMecSpeedUnit>:
 8001378:	b508      	push	{r3, lr}
 800137a:	6840      	ldr	r0, [r0, #4]
 800137c:	f007 fca0 	bl	8008cc0 <STC_GetSpeedSensor>
 8001380:	e8bd 4008 	ldmia.w	sp!, {r3, lr}
 8001384:	f007 bc44 	b.w	8008c10 <SPD_GetAvrgMecSpeedUnit>

08001388 <MCI_GetMecSpeedRefUnit>:
 8001388:	6840      	ldr	r0, [r0, #4]
 800138a:	f007 bca3 	b.w	8008cd4 <STC_GetMecSpeedRefUnit>
 800138e:	bf00      	nop

08001390 <MCI_GetIab>:
 8001390:	6883      	ldr	r3, [r0, #8]
 8001392:	6818      	ldr	r0, [r3, #0]
 8001394:	b283      	uxth	r3, r0
 8001396:	b082      	sub	sp, #8
 8001398:	f363 000f 	bfi	r0, r3, #0, #16
 800139c:	b002      	add	sp, #8
 800139e:	4770      	bx	lr

080013a0 <MCI_GetIalphabeta>:
 80013a0:	6883      	ldr	r3, [r0, #8]
 80013a2:	6858      	ldr	r0, [r3, #4]
 80013a4:	b283      	uxth	r3, r0
 80013a6:	b082      	sub	sp, #8
 80013a8:	f363 000f 	bfi	r0, r3, #0, #16
 80013ac:	b002      	add	sp, #8
 80013ae:	4770      	bx	lr

080013b0 <MCI_GetIqd>:
 80013b0:	6883      	ldr	r3, [r0, #8]
 80013b2:	68d8      	ldr	r0, [r3, #12]
 80013b4:	b283      	uxth	r3, r0
 80013b6:	b082      	sub	sp, #8
 80013b8:	f363 000f 	bfi	r0, r3, #0, #16
 80013bc:	b002      	add	sp, #8
 80013be:	4770      	bx	lr

080013c0 <MCI_GetIqdref>:
 80013c0:	6883      	ldr	r3, [r0, #8]
 80013c2:	6918      	ldr	r0, [r3, #16]
 80013c4:	b283      	uxth	r3, r0
 80013c6:	b082      	sub	sp, #8
 80013c8:	f363 000f 	bfi	r0, r3, #0, #16
 80013cc:	b002      	add	sp, #8
 80013ce:	4770      	bx	lr

080013d0 <MCI_GetVqd>:
 80013d0:	6883      	ldr	r3, [r0, #8]
 80013d2:	f8d3 0016 	ldr.w	r0, [r3, #22]
 80013d6:	b283      	uxth	r3, r0
 80013d8:	b082      	sub	sp, #8
 80013da:	f363 000f 	bfi	r0, r3, #0, #16
 80013de:	b002      	add	sp, #8
 80013e0:	4770      	bx	lr
 80013e2:	bf00      	nop

080013e4 <MCI_GetValphabeta>:
 80013e4:	6883      	ldr	r3, [r0, #8]
 80013e6:	f8d3 001a 	ldr.w	r0, [r3, #26]
 80013ea:	b283      	uxth	r3, r0
 80013ec:	b082      	sub	sp, #8
 80013ee:	f363 000f 	bfi	r0, r3, #0, #16
 80013f2:	b002      	add	sp, #8
 80013f4:	4770      	bx	lr
 80013f6:	bf00      	nop

080013f8 <MCI_GetTeref>:
 80013f8:	6883      	ldr	r3, [r0, #8]
 80013fa:	f9b3 001e 	ldrsh.w	r0, [r3, #30]
 80013fe:	4770      	bx	lr

08001400 <MCI_SetIdref>:
 8001400:	6883      	ldr	r3, [r0, #8]
 8001402:	8259      	strh	r1, [r3, #18]
 8001404:	8299      	strh	r1, [r3, #20]
 8001406:	4770      	bx	lr

08001408 <MCI_Clear_Iqdref>:
 8001408:	b510      	push	{r4, lr}
 800140a:	e9d0 0401 	ldrd	r0, r4, [r0, #4]
 800140e:	f007 fcfd 	bl	8008e0c <STC_GetDefaultIqdref>
 8001412:	f3c0 430f 	ubfx	r3, r0, #16, #16
 8001416:	8220      	strh	r0, [r4, #16]
 8001418:	8263      	strh	r3, [r4, #18]
 800141a:	bd10      	pop	{r4, pc}

0800141c <MCM_Clarke>:
 800141c:	f644 11e6 	movw	r1, #18918	; 0x49e6
 8001420:	b202      	sxth	r2, r0
 8001422:	f3c0 430f 	ubfx	r3, r0, #16, #16
 8001426:	fb12 f001 	smulbb	r0, r2, r1
 800142a:	fb13 f301 	smulbb	r3, r3, r1
 800142e:	4240      	negs	r0, r0
 8001430:	eba0 0043 	sub.w	r0, r0, r3, lsl #1
 8001434:	13c0      	asrs	r0, r0, #15
 8001436:	f5b0 4f00 	cmp.w	r0, #32768	; 0x8000
 800143a:	b084      	sub	sp, #16
 800143c:	da04      	bge.n	8001448 <MCM_Clarke+0x2c>
 800143e:	f510 4f00 	cmn.w	r0, #32768	; 0x8000
 8001442:	da0c      	bge.n	800145e <MCM_Clarke+0x42>
 8001444:	4b07      	ldr	r3, [pc, #28]	; (8001464 <MCM_Clarke+0x48>)
 8001446:	e001      	b.n	800144c <MCM_Clarke+0x30>
 8001448:	f647 73ff 	movw	r3, #32767	; 0x7fff
 800144c:	b292      	uxth	r2, r2
 800144e:	2000      	movs	r0, #0
 8001450:	b29b      	uxth	r3, r3
 8001452:	f362 000f 	bfi	r0, r2, #0, #16
 8001456:	f363 401f 	bfi	r0, r3, #16, #16
 800145a:	b004      	add	sp, #16
 800145c:	4770      	bx	lr
 800145e:	b203      	sxth	r3, r0
 8001460:	d1f4      	bne.n	800144c <MCM_Clarke+0x30>
 8001462:	e7ef      	b.n	8001444 <MCM_Clarke+0x28>
 8001464:	ffff8001 	.word	0xffff8001

08001468 <MCM_Trig_Functions>:
 8001468:	4b09      	ldr	r3, [pc, #36]	; (8001490 <MCM_Trig_Functions+0x28>)
 800146a:	4a0a      	ldr	r2, [pc, #40]	; (8001494 <MCM_Trig_Functions+0x2c>)
 800146c:	601a      	str	r2, [r3, #0]
 800146e:	f100 40ff 	add.w	r0, r0, #2139095040	; 0x7f800000
 8001472:	f500 00fe 	add.w	r0, r0, #8323072	; 0x7f0000
 8001476:	6058      	str	r0, [r3, #4]
 8001478:	689b      	ldr	r3, [r3, #8]
 800147a:	2000      	movs	r0, #0
 800147c:	b29a      	uxth	r2, r3
 800147e:	f362 000f 	bfi	r0, r2, #0, #16
 8001482:	0c1b      	lsrs	r3, r3, #16
 8001484:	b082      	sub	sp, #8
 8001486:	f363 401f 	bfi	r0, r3, #16, #16
 800148a:	b002      	add	sp, #8
 800148c:	4770      	bx	lr
 800148e:	bf00      	nop
 8001490:	40020c00 	.word	0x40020c00
 8001494:	00600040 	.word	0x00600040

08001498 <MCM_Park>:
 8001498:	b530      	push	{r4, r5, lr}
 800149a:	b085      	sub	sp, #20
 800149c:	b204      	sxth	r4, r0
 800149e:	9001      	str	r0, [sp, #4]
 80014a0:	1405      	asrs	r5, r0, #16
 80014a2:	4608      	mov	r0, r1
 80014a4:	f7ff ffe0 	bl	8001468 <MCM_Trig_Functions>
 80014a8:	b201      	sxth	r1, r0
 80014aa:	fb04 f301 	mul.w	r3, r4, r1
 80014ae:	1400      	asrs	r0, r0, #16
 80014b0:	fb05 3310 	mls	r3, r5, r0, r3
 80014b4:	13db      	asrs	r3, r3, #15
 80014b6:	f5b3 4f00 	cmp.w	r3, #32768	; 0x8000
 80014ba:	da04      	bge.n	80014c6 <MCM_Park+0x2e>
 80014bc:	f513 4f00 	cmn.w	r3, #32768	; 0x8000
 80014c0:	da1e      	bge.n	8001500 <MCM_Park+0x68>
 80014c2:	4a11      	ldr	r2, [pc, #68]	; (8001508 <MCM_Park+0x70>)
 80014c4:	e001      	b.n	80014ca <MCM_Park+0x32>
 80014c6:	f647 72ff 	movw	r2, #32767	; 0x7fff
 80014ca:	fb01 f105 	mul.w	r1, r1, r5
 80014ce:	fb04 1000 	mla	r0, r4, r0, r1
 80014d2:	13c0      	asrs	r0, r0, #15
 80014d4:	f5b0 4f00 	cmp.w	r0, #32768	; 0x8000
 80014d8:	da04      	bge.n	80014e4 <MCM_Park+0x4c>
 80014da:	f510 4f00 	cmn.w	r0, #32768	; 0x8000
 80014de:	da0c      	bge.n	80014fa <MCM_Park+0x62>
 80014e0:	4b09      	ldr	r3, [pc, #36]	; (8001508 <MCM_Park+0x70>)
 80014e2:	e001      	b.n	80014e8 <MCM_Park+0x50>
 80014e4:	f647 73ff 	movw	r3, #32767	; 0x7fff
 80014e8:	b292      	uxth	r2, r2
 80014ea:	2000      	movs	r0, #0
 80014ec:	b29b      	uxth	r3, r3
 80014ee:	f362 000f 	bfi	r0, r2, #0, #16
 80014f2:	f363 401f 	bfi	r0, r3, #16, #16
 80014f6:	b005      	add	sp, #20
 80014f8:	bd30      	pop	{r4, r5, pc}
 80014fa:	b203      	sxth	r3, r0
 80014fc:	d1f4      	bne.n	80014e8 <MCM_Park+0x50>
 80014fe:	e7ef      	b.n	80014e0 <MCM_Park+0x48>
 8001500:	b21a      	sxth	r2, r3
 8001502:	d1e2      	bne.n	80014ca <MCM_Park+0x32>
 8001504:	e7dd      	b.n	80014c2 <MCM_Park+0x2a>
 8001506:	bf00      	nop
 8001508:	ffff8001 	.word	0xffff8001

0800150c <MCM_Rev_Park>:
 800150c:	b530      	push	{r4, r5, lr}
 800150e:	b085      	sub	sp, #20
 8001510:	b204      	sxth	r4, r0
 8001512:	1405      	asrs	r5, r0, #16
 8001514:	9001      	str	r0, [sp, #4]
 8001516:	4608      	mov	r0, r1
 8001518:	f7ff ffa6 	bl	8001468 <MCM_Trig_Functions>
 800151c:	1403      	asrs	r3, r0, #16
 800151e:	fb05 f203 	mul.w	r2, r5, r3
 8001522:	b200      	sxth	r0, r0
 8001524:	fb04 2200 	mla	r2, r4, r0, r2
 8001528:	fb00 f005 	mul.w	r0, r0, r5
 800152c:	fb04 0313 	mls	r3, r4, r3, r0
 8001530:	f3c2 32cf 	ubfx	r2, r2, #15, #16
 8001534:	2000      	movs	r0, #0
 8001536:	f3c3 33cf 	ubfx	r3, r3, #15, #16
 800153a:	f362 000f 	bfi	r0, r2, #0, #16
 800153e:	f363 401f 	bfi	r0, r3, #16, #16
 8001542:	b005      	add	sp, #20
 8001544:	bd30      	pop	{r4, r5, pc}
 8001546:	bf00      	nop

08001548 <FOC_Clear>:
 8001548:	b5f8      	push	{r3, r4, r5, r6, r7, lr}
 800154a:	eb00 03c0 	add.w	r3, r0, r0, lsl #3
 800154e:	4a18      	ldr	r2, [pc, #96]	; (80015b0 <FOC_Clear+0x68>)
 8001550:	eb00 0343 	add.w	r3, r0, r3, lsl #1
 8001554:	005b      	lsls	r3, r3, #1
 8001556:	2400      	movs	r4, #0
 8001558:	189f      	adds	r7, r3, r2
 800155a:	f103 060c 	add.w	r6, r3, #12
 800155e:	509c      	str	r4, [r3, r2]
 8001560:	4605      	mov	r5, r0
 8001562:	f103 0116 	add.w	r1, r3, #22
 8001566:	2326      	movs	r3, #38	; 0x26
 8001568:	607c      	str	r4, [r7, #4]
 800156a:	fb03 2305 	mla	r3, r3, r5, r2
 800156e:	50b4      	str	r4, [r6, r2]
 8001570:	18b7      	adds	r7, r6, r2
 8001572:	4810      	ldr	r0, [pc, #64]	; (80015b4 <FOC_Clear+0x6c>)
 8001574:	607c      	str	r4, [r7, #4]
 8001576:	188e      	adds	r6, r1, r2
 8001578:	83dc      	strh	r4, [r3, #30]
 800157a:	f850 0025 	ldr.w	r0, [r0, r5, lsl #2]
 800157e:	508c      	str	r4, [r1, r2]
 8001580:	4621      	mov	r1, r4
 8001582:	6074      	str	r4, [r6, #4]
 8001584:	841c      	strh	r4, [r3, #32]
 8001586:	f006 f8db 	bl	8007740 <PID_SetIntegralTerm>
 800158a:	4b0b      	ldr	r3, [pc, #44]	; (80015b8 <FOC_Clear+0x70>)
 800158c:	4621      	mov	r1, r4
 800158e:	f853 0025 	ldr.w	r0, [r3, r5, lsl #2]
 8001592:	f006 f8d5 	bl	8007740 <PID_SetIntegralTerm>
 8001596:	4b09      	ldr	r3, [pc, #36]	; (80015bc <FOC_Clear+0x74>)
 8001598:	f853 0025 	ldr.w	r0, [r3, r5, lsl #2]
 800159c:	f007 fb92 	bl	8008cc4 <STC_Clear>
 80015a0:	4b07      	ldr	r3, [pc, #28]	; (80015c0 <FOC_Clear+0x78>)
 80015a2:	f853 0025 	ldr.w	r0, [r3, r5, lsl #2]
 80015a6:	e8bd 40f8 	ldmia.w	sp!, {r3, r4, r5, r6, r7, lr}
 80015aa:	f006 babd 	b.w	8007b28 <PWMC_SwitchOffPWM>
 80015ae:	bf00      	nop
 80015b0:	20000ae8 	.word	0x20000ae8
 80015b4:	20000adc 	.word	0x20000adc
 80015b8:	20000b98 	.word	0x20000b98
 80015bc:	20000b9c 	.word	0x20000b9c
 80015c0:	20000ad4 	.word	0x20000ad4

080015c4 <MCboot>:
 80015c4:	e92d 4ff0 	stmdb	sp!, {r4, r5, r6, r7, r8, r9, sl, fp, lr}
 80015c8:	b089      	sub	sp, #36	; 0x24
 80015ca:	4f63      	ldr	r7, [pc, #396]	; (8001758 <MCboot+0x194>)
 80015cc:	9004      	str	r0, [sp, #16]
 80015ce:	4863      	ldr	r0, [pc, #396]	; (800175c <MCboot+0x198>)
 80015d0:	9105      	str	r1, [sp, #20]
 80015d2:	f007 fc2f 	bl	8008e34 <STM_Init>
 80015d6:	4962      	ldr	r1, [pc, #392]	; (8001760 <MCboot+0x19c>)
 80015d8:	4b62      	ldr	r3, [pc, #392]	; (8001764 <MCboot+0x1a0>)
 80015da:	4a63      	ldr	r2, [pc, #396]	; (8001768 <MCboot+0x1a4>)
 80015dc:	4863      	ldr	r0, [pc, #396]	; (800176c <MCboot+0x1a8>)
 80015de:	4d64      	ldr	r5, [pc, #400]	; (8001770 <MCboot+0x1ac>)
 80015e0:	601a      	str	r2, [r3, #0]
 80015e2:	2400      	movs	r4, #0
 80015e4:	700c      	strb	r4, [r1, #0]
 80015e6:	f8df b1d4 	ldr.w	fp, [pc, #468]	; 80017bc <MCboot+0x1f8>
 80015ea:	6038      	str	r0, [r7, #0]
 80015ec:	f006 fd62 	bl	80080b4 <R3_2_Init>
 80015f0:	f006 f92c 	bl	800784c <startTimers>
 80015f4:	485f      	ldr	r0, [pc, #380]	; (8001774 <MCboot+0x1b0>)
 80015f6:	f8df 91c8 	ldr.w	r9, [pc, #456]	; 80017c0 <MCboot+0x1fc>
 80015fa:	f8df a1c8 	ldr.w	sl, [pc, #456]	; 80017c4 <MCboot+0x200>
 80015fe:	f8df 81c8 	ldr.w	r8, [pc, #456]	; 80017c8 <MCboot+0x204>
 8001602:	4e5d      	ldr	r6, [pc, #372]	; (8001778 <MCboot+0x1b4>)
 8001604:	f006 f888 	bl	8007718 <PID_HandleInit>
 8001608:	4b5c      	ldr	r3, [pc, #368]	; (800177c <MCboot+0x1b8>)
 800160a:	4a5a      	ldr	r2, [pc, #360]	; (8001774 <MCboot+0x1b0>)
 800160c:	485c      	ldr	r0, [pc, #368]	; (8001780 <MCboot+0x1bc>)
 800160e:	602b      	str	r3, [r5, #0]
 8001610:	f8cb 2000 	str.w	r2, [fp]
 8001614:	f008 f9de 	bl	80099d4 <STO_PLL_Init>
 8001618:	f8db 1000 	ldr.w	r1, [fp]
 800161c:	4a58      	ldr	r2, [pc, #352]	; (8001780 <MCboot+0x1bc>)
 800161e:	6828      	ldr	r0, [r5, #0]
 8001620:	f007 fb38 	bl	8008c94 <STC_Init>
 8001624:	4857      	ldr	r0, [pc, #348]	; (8001784 <MCboot+0x1c0>)
 8001626:	f007 fe0b 	bl	8009240 <VSS_Init>
 800162a:	683b      	ldr	r3, [r7, #0]
 800162c:	6829      	ldr	r1, [r5, #0]
 800162e:	4a55      	ldr	r2, [pc, #340]	; (8001784 <MCboot+0x1c0>)
 8001630:	9300      	str	r3, [sp, #0]
 8001632:	4855      	ldr	r0, [pc, #340]	; (8001788 <MCboot+0x1c4>)
 8001634:	4b55      	ldr	r3, [pc, #340]	; (800178c <MCboot+0x1c8>)
 8001636:	f007 feed 	bl	8009414 <RUC_Init>
 800163a:	4855      	ldr	r0, [pc, #340]	; (8001790 <MCboot+0x1cc>)
 800163c:	f006 f86c 	bl	8007718 <PID_HandleInit>
 8001640:	4648      	mov	r0, r9
 8001642:	f006 f869 	bl	8007718 <PID_HandleInit>
 8001646:	4a53      	ldr	r2, [pc, #332]	; (8001794 <MCboot+0x1d0>)
 8001648:	4b53      	ldr	r3, [pc, #332]	; (8001798 <MCboot+0x1d4>)
 800164a:	4851      	ldr	r0, [pc, #324]	; (8001790 <MCboot+0x1cc>)
 800164c:	6010      	str	r0, [r2, #0]
 800164e:	4a53      	ldr	r2, [pc, #332]	; (800179c <MCboot+0x1d8>)
 8001650:	f8ca 3000 	str.w	r3, [sl]
 8001654:	4618      	mov	r0, r3
 8001656:	f8c2 9000 	str.w	r9, [r2]
 800165a:	f007 fa05 	bl	8008a68 <RVBS_Init>
 800165e:	4950      	ldr	r1, [pc, #320]	; (80017a0 <MCboot+0x1dc>)
 8001660:	4b50      	ldr	r3, [pc, #320]	; (80017a4 <MCboot+0x1e0>)
 8001662:	f8da 2000 	ldr.w	r2, [sl]
 8001666:	600b      	str	r3, [r1, #0]
 8001668:	4640      	mov	r0, r8
 800166a:	f8c3 2110 	str.w	r2, [r3, #272]	; 0x110
 800166e:	f8c3 610c 	str.w	r6, [r3, #268]	; 0x10c
 8001672:	f006 f80b 	bl	800768c <NTC_Init>
 8001676:	4b4c      	ldr	r3, [pc, #304]	; (80017a8 <MCboot+0x1e4>)
 8001678:	484c      	ldr	r0, [pc, #304]	; (80017ac <MCboot+0x1e8>)
 800167a:	4a4d      	ldr	r2, [pc, #308]	; (80017b0 <MCboot+0x1ec>)
 800167c:	f8c0 8000 	str.w	r8, [r0]
 8001680:	4618      	mov	r0, r3
 8001682:	6013      	str	r3, [r2, #0]
 8001684:	f04f 0901 	mov.w	r9, #1
 8001688:	f007 fa3c 	bl	8008b04 <REMNG_Init>
 800168c:	4620      	mov	r0, r4
 800168e:	f7ff ff5b 	bl	8001548 <FOC_Clear>
 8001692:	f886 9024 	strb.w	r9, [r6, #36]	; 0x24
 8001696:	6828      	ldr	r0, [r5, #0]
 8001698:	f8df 8130 	ldr.w	r8, [pc, #304]	; 80017cc <MCboot+0x208>
 800169c:	f007 fbb6 	bl	8008e0c <STC_GetDefaultIqdref>
 80016a0:	4603      	mov	r3, r0
 80016a2:	f3c0 420f 	ubfx	r2, r0, #16, #16
 80016a6:	8233      	strh	r3, [r6, #16]
 80016a8:	8272      	strh	r2, [r6, #18]
 80016aa:	6828      	ldr	r0, [r5, #0]
 80016ac:	f007 fbae 	bl	8008e0c <STC_GetDefaultIqdref>
 80016b0:	4940      	ldr	r1, [pc, #256]	; (80017b4 <MCboot+0x1f0>)
 80016b2:	682a      	ldr	r2, [r5, #0]
 80016b4:	f8c8 1000 	str.w	r1, [r8]
 80016b8:	f3c0 4c0f 	ubfx	ip, r0, #16, #16
 80016bc:	4633      	mov	r3, r6
 80016be:	f8a6 c014 	strh.w	ip, [r6, #20]
 80016c2:	4608      	mov	r0, r1
 80016c4:	4925      	ldr	r1, [pc, #148]	; (800175c <MCboot+0x198>)
 80016c6:	f7ff fd9d 	bl	8001204 <MCI_Init>
 80016ca:	6828      	ldr	r0, [r5, #0]
 80016cc:	f8d8 6000 	ldr.w	r6, [r8]
 80016d0:	f007 fb92 	bl	8008df8 <STC_GetMecSpeedRefUnitDefault>
 80016d4:	4622      	mov	r2, r4
 80016d6:	4601      	mov	r1, r0
 80016d8:	4630      	mov	r0, r6
 80016da:	f7ff fda1 	bl	8001220 <MCI_ExecSpeedRamp>
 80016de:	4a2d      	ldr	r2, [pc, #180]	; (8001794 <MCboot+0x1d0>)
 80016e0:	f8d8 6000 	ldr.w	r6, [r8]
 80016e4:	9603      	str	r6, [sp, #12]
 80016e6:	6816      	ldr	r6, [r2, #0]
 80016e8:	4a2c      	ldr	r2, [pc, #176]	; (800179c <MCboot+0x1d8>)
 80016ea:	f8db c000 	ldr.w	ip, [fp]
 80016ee:	6810      	ldr	r0, [r2, #0]
 80016f0:	4a2b      	ldr	r2, [pc, #172]	; (80017a0 <MCboot+0x1dc>)
 80016f2:	f8d5 b000 	ldr.w	fp, [r5]
 80016f6:	f8d2 e000 	ldr.w	lr, [r2]
 80016fa:	9a04      	ldr	r2, [sp, #16]
 80016fc:	4d2b      	ldr	r5, [pc, #172]	; (80017ac <MCboot+0x1e8>)
 80016fe:	4b2e      	ldr	r3, [pc, #184]	; (80017b8 <MCboot+0x1f4>)
 8001700:	6839      	ldr	r1, [r7, #0]
 8001702:	682d      	ldr	r5, [r5, #0]
 8001704:	f8da 7000 	ldr.w	r7, [sl]
 8001708:	4690      	mov	r8, r2
 800170a:	9a03      	ldr	r2, [sp, #12]
 800170c:	f8c8 2000 	str.w	r2, [r8]
 8001710:	4a1d      	ldr	r2, [pc, #116]	; (8001788 <MCboot+0x1c4>)
 8001712:	615a      	str	r2, [r3, #20]
 8001714:	4a1a      	ldr	r2, [pc, #104]	; (8001780 <MCboot+0x1bc>)
 8001716:	6119      	str	r1, [r3, #16]
 8001718:	e9c3 2406 	strd	r2, r4, [r3, #24]
 800171c:	4a19      	ldr	r2, [pc, #100]	; (8001784 <MCboot+0x1c0>)
 800171e:	621a      	str	r2, [r3, #32]
 8001720:	4a0e      	ldr	r2, [pc, #56]	; (800175c <MCboot+0x198>)
 8001722:	629a      	str	r2, [r3, #40]	; 0x28
 8001724:	e9c3 c600 	strd	ip, r6, [r3]
 8001728:	6098      	str	r0, [r3, #8]
 800172a:	f8c3 b024 	str.w	fp, [r3, #36]	; 0x24
 800172e:	e9c3 570b 	strd	r5, r7, [r3, #44]	; 0x2c
 8001732:	f8c3 e03c 	str.w	lr, [r3, #60]	; 0x3c
 8001736:	60dc      	str	r4, [r3, #12]
 8001738:	e9c3 440d 	strd	r4, r4, [r3, #52]	; 0x34
 800173c:	e9c3 4410 	strd	r4, r4, [r3, #64]	; 0x40
 8001740:	4907      	ldr	r1, [pc, #28]	; (8001760 <MCboot+0x19c>)
 8001742:	e9c3 4412 	strd	r4, r4, [r3, #72]	; 0x48
 8001746:	9a05      	ldr	r2, [sp, #20]
 8001748:	651c      	str	r4, [r3, #80]	; 0x50
 800174a:	6013      	str	r3, [r2, #0]
 800174c:	f881 9000 	strb.w	r9, [r1]
 8001750:	b009      	add	sp, #36	; 0x24
 8001752:	e8bd 8ff0 	ldmia.w	sp!, {r4, r5, r6, r7, r8, r9, sl, fp, pc}
 8001756:	bf00      	nop
 8001758:	20000ad4 	.word	0x20000ad4
 800175c:	20000b88 	.word	0x20000b88
 8001760:	20000760 	.word	0x20000760
 8001764:	20000b64 	.word	0x20000b64
 8001768:	20000000 	.word	0x20000000
 800176c:	200002c4 	.word	0x200002c4
 8001770:	20000b9c 	.word	0x20000b9c
 8001774:	20000184 	.word	0x20000184
 8001778:	20000ae8 	.word	0x20000ae8
 800177c:	20000530 	.word	0x20000530
 8001780:	20000408 	.word	0x20000408
 8001784:	200005bc 	.word	0x200005bc
 8001788:	2000037c 	.word	0x2000037c
 800178c:	200003f4 	.word	0x200003f4
 8001790:	20000158 	.word	0x20000158
 8001794:	20000adc 	.word	0x20000adc
 8001798:	20000354 	.word	0x20000354
 800179c:	20000b98 	.word	0x20000b98
 80017a0:	20000b94 	.word	0x20000b94
 80017a4:	200001b0 	.word	0x200001b0
 80017a8:	2000033c 	.word	0x2000033c
 80017ac:	20000ad0 	.word	0x20000ad0
 80017b0:	20000b90 	.word	0x20000b90
 80017b4:	20000b6c 	.word	0x20000b6c
 80017b8:	20000b10 	.word	0x20000b10
 80017bc:	20000ad8 	.word	0x20000ad8
 80017c0:	2000012c 	.word	0x2000012c
 80017c4:	20000b68 	.word	0x20000b68
 80017c8:	20000564 	.word	0x20000564
 80017cc:	20000ae0 	.word	0x20000ae0

080017d0 <FOC_InitAdditionalMethods>:
 80017d0:	4770      	bx	lr
 80017d2:	bf00      	nop

080017d4 <FOC_CalcCurrRef>:
 80017d4:	4b08      	ldr	r3, [pc, #32]	; (80017f8 <FOC_CalcCurrRef+0x24>)
 80017d6:	b510      	push	{r4, lr}
 80017d8:	2426      	movs	r4, #38	; 0x26
 80017da:	fb04 3400 	mla	r4, r4, r0, r3
 80017de:	f894 3024 	ldrb.w	r3, [r4, #36]	; 0x24
 80017e2:	b103      	cbz	r3, 80017e6 <FOC_CalcCurrRef+0x12>
 80017e4:	bd10      	pop	{r4, pc}
 80017e6:	4b05      	ldr	r3, [pc, #20]	; (80017fc <FOC_CalcCurrRef+0x28>)
 80017e8:	f853 0020 	ldr.w	r0, [r3, r0, lsl #2]
 80017ec:	f007 fad4 	bl	8008d98 <STC_CalcTorqueReference>
 80017f0:	83e0      	strh	r0, [r4, #30]
 80017f2:	8220      	strh	r0, [r4, #16]
 80017f4:	bd10      	pop	{r4, pc}
 80017f6:	bf00      	nop
 80017f8:	20000ae8 	.word	0x20000ae8
 80017fc:	20000b9c 	.word	0x20000b9c

08001800 <TSK_SetChargeBootCapDelayM1>:
 8001800:	4b01      	ldr	r3, [pc, #4]	; (8001808 <TSK_SetChargeBootCapDelayM1+0x8>)
 8001802:	8018      	strh	r0, [r3, #0]
 8001804:	4770      	bx	lr
 8001806:	bf00      	nop
 8001808:	20000762 	.word	0x20000762

0800180c <TSK_ChargeBootCapDelayHasElapsedM1>:
 800180c:	4b03      	ldr	r3, [pc, #12]	; (800181c <TSK_ChargeBootCapDelayHasElapsedM1+0x10>)
 800180e:	8818      	ldrh	r0, [r3, #0]
 8001810:	b280      	uxth	r0, r0
 8001812:	fab0 f080 	clz	r0, r0
 8001816:	0940      	lsrs	r0, r0, #5
 8001818:	4770      	bx	lr
 800181a:	bf00      	nop
 800181c:	20000762 	.word	0x20000762

08001820 <TSK_SetStopPermanencyTimeM1>:
 8001820:	4b01      	ldr	r3, [pc, #4]	; (8001828 <TSK_SetStopPermanencyTimeM1+0x8>)
 8001822:	8018      	strh	r0, [r3, #0]
 8001824:	4770      	bx	lr
 8001826:	bf00      	nop
 8001828:	20000766 	.word	0x20000766

0800182c <TSK_StopPermanencyTimeHasElapsedM1>:
 800182c:	4b03      	ldr	r3, [pc, #12]	; (800183c <TSK_StopPermanencyTimeHasElapsedM1+0x10>)
 800182e:	8818      	ldrh	r0, [r3, #0]
 8001830:	b280      	uxth	r0, r0
 8001832:	fab0 f080 	clz	r0, r0
 8001836:	0940      	lsrs	r0, r0, #5
 8001838:	4770      	bx	lr
 800183a:	bf00      	nop
 800183c:	20000766 	.word	0x20000766

08001840 <TSK_MediumFrequencyTaskM1>:
 8001840:	b530      	push	{r4, r5, lr}
 8001842:	b083      	sub	sp, #12
 8001844:	a902      	add	r1, sp, #8
 8001846:	2300      	movs	r3, #0
 8001848:	f821 3d08 	strh.w	r3, [r1, #-8]!
 800184c:	4893      	ldr	r0, [pc, #588]	; (8001a9c <TSK_MediumFrequencyTaskM1+0x25c>)
 800184e:	4c94      	ldr	r4, [pc, #592]	; (8001aa0 <TSK_MediumFrequencyTaskM1+0x260>)
 8001850:	f007 ffbe 	bl	80097d0 <STO_PLL_CalcAvrgMecSpeedUnit>
 8001854:	4605      	mov	r5, r0
 8001856:	6820      	ldr	r0, [r4, #0]
 8001858:	f005 ffc2 	bl	80077e0 <PQD_CalcElMotorPower>
 800185c:	4891      	ldr	r0, [pc, #580]	; (8001aa4 <TSK_MediumFrequencyTaskM1+0x264>)
 800185e:	f007 fb7d 	bl	8008f5c <STM_GetState>
 8001862:	3803      	subs	r0, #3
 8001864:	2810      	cmp	r0, #16
 8001866:	d84e      	bhi.n	8001906 <TSK_MediumFrequencyTaskM1+0xc6>
 8001868:	e8df f010 	tbh	[pc, r0, lsl #1]
 800186c:	00110072 	.word	0x00110072
 8001870:	009d0086 	.word	0x009d0086
 8001874:	00bf00ac 	.word	0x00bf00ac
 8001878:	004d00c8 	.word	0x004d00c8
 800187c:	004d004d 	.word	0x004d004d
 8001880:	004d004d 	.word	0x004d004d
 8001884:	00d5004d 	.word	0x00d5004d
 8001888:	00f100e4 	.word	0x00f100e4
 800188c:	004f      	.short	0x004f
 800188e:	4886      	ldr	r0, [pc, #536]	; (8001aa8 <TSK_MediumFrequencyTaskM1+0x268>)
 8001890:	f007 fe46 	bl	8009520 <RUC_Exec>
 8001894:	2800      	cmp	r0, #0
 8001896:	f000 80f5 	beq.w	8001a84 <TSK_MediumFrequencyTaskM1+0x244>
 800189a:	4b84      	ldr	r3, [pc, #528]	; (8001aac <TSK_MediumFrequencyTaskM1+0x26c>)
 800189c:	6818      	ldr	r0, [r3, #0]
 800189e:	f007 fa7b 	bl	8008d98 <STC_CalcTorqueReference>
 80018a2:	4b83      	ldr	r3, [pc, #524]	; (8001ab0 <TSK_MediumFrequencyTaskM1+0x270>)
 80018a4:	f9b3 2014 	ldrsh.w	r2, [r3, #20]
 80018a8:	8218      	strh	r0, [r3, #16]
 80018aa:	825a      	strh	r2, [r3, #18]
 80018ac:	f10d 0102 	add.w	r1, sp, #2
 80018b0:	4880      	ldr	r0, [pc, #512]	; (8001ab4 <TSK_MediumFrequencyTaskM1+0x274>)
 80018b2:	f007 fd17 	bl	80092e4 <VSS_CalcAvrgMecSpeedUnit>
 80018b6:	f9bd 1002 	ldrsh.w	r1, [sp, #2]
 80018ba:	4878      	ldr	r0, [pc, #480]	; (8001a9c <TSK_MediumFrequencyTaskM1+0x25c>)
 80018bc:	f008 f8c2 	bl	8009a44 <STO_PLL_IsObserverConverged>
 80018c0:	4604      	mov	r4, r0
 80018c2:	4601      	mov	r1, r0
 80018c4:	487b      	ldr	r0, [pc, #492]	; (8001ab4 <TSK_MediumFrequencyTaskM1+0x274>)
 80018c6:	f007 fd93 	bl	80093f0 <VSS_SetStartTransition>
 80018ca:	b1e4      	cbz	r4, 8001906 <TSK_MediumFrequencyTaskM1+0xc6>
 80018cc:	4873      	ldr	r0, [pc, #460]	; (8001a9c <TSK_MediumFrequencyTaskM1+0x25c>)
 80018ce:	4d78      	ldr	r5, [pc, #480]	; (8001ab0 <TSK_MediumFrequencyTaskM1+0x270>)
 80018d0:	4c79      	ldr	r4, [pc, #484]	; (8001ab8 <TSK_MediumFrequencyTaskM1+0x278>)
 80018d2:	f007 f999 	bl	8008c08 <SPD_GetElAngle>
 80018d6:	4601      	mov	r1, r0
 80018d8:	6868      	ldr	r0, [r5, #4]
 80018da:	f7ff fddd 	bl	8001498 <MCM_Park>
 80018de:	9001      	str	r0, [sp, #4]
 80018e0:	6820      	ldr	r0, [r4, #0]
 80018e2:	f007 f90f 	bl	8008b04 <REMNG_Init>
 80018e6:	f9b5 1010 	ldrsh.w	r1, [r5, #16]
 80018ea:	6820      	ldr	r0, [r4, #0]
 80018ec:	2200      	movs	r2, #0
 80018ee:	f007 f947 	bl	8008b80 <REMNG_ExecRamp>
 80018f2:	f9bd 1004 	ldrsh.w	r1, [sp, #4]
 80018f6:	6820      	ldr	r0, [r4, #0]
 80018f8:	2219      	movs	r2, #25
 80018fa:	f007 f941 	bl	8008b80 <REMNG_ExecRamp>
 80018fe:	2113      	movs	r1, #19
 8001900:	4868      	ldr	r0, [pc, #416]	; (8001aa4 <TSK_MediumFrequencyTaskM1+0x264>)
 8001902:	f007 fab7 	bl	8008e74 <STM_NextState>
 8001906:	b003      	add	sp, #12
 8001908:	bd30      	pop	{r4, r5, pc}
 800190a:	4867      	ldr	r0, [pc, #412]	; (8001aa8 <TSK_MediumFrequencyTaskM1+0x268>)
 800190c:	f007 fe08 	bl	8009520 <RUC_Exec>
 8001910:	2800      	cmp	r0, #0
 8001912:	f000 80bd 	beq.w	8001a90 <TSK_MediumFrequencyTaskM1+0x250>
 8001916:	a901      	add	r1, sp, #4
 8001918:	4866      	ldr	r0, [pc, #408]	; (8001ab4 <TSK_MediumFrequencyTaskM1+0x274>)
 800191a:	f007 fce3 	bl	80092e4 <VSS_CalcAvrgMecSpeedUnit>
 800191e:	4604      	mov	r4, r0
 8001920:	4864      	ldr	r0, [pc, #400]	; (8001ab4 <TSK_MediumFrequencyTaskM1+0x274>)
 8001922:	f007 fd73 	bl	800940c <VSS_TransitionEnded>
 8001926:	b90c      	cbnz	r4, 800192c <TSK_MediumFrequencyTaskM1+0xec>
 8001928:	2800      	cmp	r0, #0
 800192a:	d0ec      	beq.n	8001906 <TSK_MediumFrequencyTaskM1+0xc6>
 800192c:	4a63      	ldr	r2, [pc, #396]	; (8001abc <TSK_MediumFrequencyTaskM1+0x27c>)
 800192e:	4b60      	ldr	r3, [pc, #384]	; (8001ab0 <TSK_MediumFrequencyTaskM1+0x270>)
 8001930:	6814      	ldr	r4, [r2, #0]
 8001932:	f9b3 5010 	ldrsh.w	r5, [r3, #16]
 8001936:	4620      	mov	r0, r4
 8001938:	f005 ff06 	bl	8007748 <PID_GetKIDivisor>
 800193c:	fb05 f100 	mul.w	r1, r5, r0
 8001940:	4620      	mov	r0, r4
 8001942:	f005 fefd 	bl	8007740 <PID_SetIntegralTerm>
 8001946:	2105      	movs	r1, #5
 8001948:	4856      	ldr	r0, [pc, #344]	; (8001aa4 <TSK_MediumFrequencyTaskM1+0x264>)
 800194a:	f007 fa93 	bl	8008e74 <STM_NextState>
 800194e:	e7da      	b.n	8001906 <TSK_MediumFrequencyTaskM1+0xc6>
 8001950:	4b5b      	ldr	r3, [pc, #364]	; (8001ac0 <TSK_MediumFrequencyTaskM1+0x280>)
 8001952:	6818      	ldr	r0, [r3, #0]
 8001954:	f7ff fce2 	bl	800131c <MCI_GetImposedMotorDirection>
 8001958:	4601      	mov	r1, r0
 800195a:	4853      	ldr	r0, [pc, #332]	; (8001aa8 <TSK_MediumFrequencyTaskM1+0x268>)
 800195c:	f007 fd98 	bl	8009490 <RUC_Clear>
 8001960:	4b58      	ldr	r3, [pc, #352]	; (8001ac4 <TSK_MediumFrequencyTaskM1+0x284>)
 8001962:	6818      	ldr	r0, [r3, #0]
 8001964:	f006 fa6c 	bl	8007e40 <R3_2_TurnOnLowSides>
 8001968:	2014      	movs	r0, #20
 800196a:	f7ff ff49 	bl	8001800 <TSK_SetChargeBootCapDelayM1>
 800196e:	2110      	movs	r1, #16
 8001970:	484c      	ldr	r0, [pc, #304]	; (8001aa4 <TSK_MediumFrequencyTaskM1+0x264>)
 8001972:	f007 fa7f 	bl	8008e74 <STM_NextState>
 8001976:	e7c6      	b.n	8001906 <TSK_MediumFrequencyTaskM1+0xc6>
 8001978:	4c4c      	ldr	r4, [pc, #304]	; (8001aac <TSK_MediumFrequencyTaskM1+0x26c>)
 800197a:	4948      	ldr	r1, [pc, #288]	; (8001a9c <TSK_MediumFrequencyTaskM1+0x25c>)
 800197c:	6820      	ldr	r0, [r4, #0]
 800197e:	f007 f99d 	bl	8008cbc <STC_SetSpeedSensor>
 8001982:	2000      	movs	r0, #0
 8001984:	f7ff ff24 	bl	80017d0 <FOC_InitAdditionalMethods>
 8001988:	2000      	movs	r0, #0
 800198a:	f7ff ff23 	bl	80017d4 <FOC_CalcCurrRef>
 800198e:	2106      	movs	r1, #6
 8001990:	4844      	ldr	r0, [pc, #272]	; (8001aa4 <TSK_MediumFrequencyTaskM1+0x264>)
 8001992:	f007 fa6f 	bl	8008e74 <STM_NextState>
 8001996:	6820      	ldr	r0, [r4, #0]
 8001998:	f007 fa44 	bl	8008e24 <STC_ForceSpeedReferenceToCurrentSpeed>
 800199c:	4b48      	ldr	r3, [pc, #288]	; (8001ac0 <TSK_MediumFrequencyTaskM1+0x280>)
 800199e:	6818      	ldr	r0, [r3, #0]
 80019a0:	f7ff fc76 	bl	8001290 <MCI_ExecBufferedCommands>
 80019a4:	e7af      	b.n	8001906 <TSK_MediumFrequencyTaskM1+0xc6>
 80019a6:	4b46      	ldr	r3, [pc, #280]	; (8001ac0 <TSK_MediumFrequencyTaskM1+0x280>)
 80019a8:	6818      	ldr	r0, [r3, #0]
 80019aa:	f7ff fc71 	bl	8001290 <MCI_ExecBufferedCommands>
 80019ae:	2000      	movs	r0, #0
 80019b0:	f7ff ff10 	bl	80017d4 <FOC_CalcCurrRef>
 80019b4:	2d00      	cmp	r5, #0
 80019b6:	d1a6      	bne.n	8001906 <TSK_MediumFrequencyTaskM1+0xc6>
 80019b8:	462a      	mov	r2, r5
 80019ba:	2120      	movs	r1, #32
 80019bc:	4839      	ldr	r0, [pc, #228]	; (8001aa4 <TSK_MediumFrequencyTaskM1+0x264>)
 80019be:	f007 fa3f 	bl	8008e40 <STM_FaultProcessing>
 80019c2:	e7a0      	b.n	8001906 <TSK_MediumFrequencyTaskM1+0xc6>
 80019c4:	4b3f      	ldr	r3, [pc, #252]	; (8001ac4 <TSK_MediumFrequencyTaskM1+0x284>)
 80019c6:	6818      	ldr	r0, [r3, #0]
 80019c8:	f006 faa6 	bl	8007f18 <R3_2_SwitchOffPWM>
 80019cc:	2000      	movs	r0, #0
 80019ce:	f7ff fdbb 	bl	8001548 <FOC_Clear>
 80019d2:	6820      	ldr	r0, [r4, #0]
 80019d4:	f005 fe1a 	bl	800760c <MPM_Clear>
 80019d8:	f44f 7048 	mov.w	r0, #800	; 0x320
 80019dc:	f7ff ff20 	bl	8001820 <TSK_SetStopPermanencyTimeM1>
 80019e0:	2108      	movs	r1, #8
 80019e2:	4830      	ldr	r0, [pc, #192]	; (8001aa4 <TSK_MediumFrequencyTaskM1+0x264>)
 80019e4:	f007 fa46 	bl	8008e74 <STM_NextState>
 80019e8:	e78d      	b.n	8001906 <TSK_MediumFrequencyTaskM1+0xc6>
 80019ea:	f7ff ff1f 	bl	800182c <TSK_StopPermanencyTimeHasElapsedM1>
 80019ee:	2800      	cmp	r0, #0
 80019f0:	d089      	beq.n	8001906 <TSK_MediumFrequencyTaskM1+0xc6>
 80019f2:	2109      	movs	r1, #9
 80019f4:	482b      	ldr	r0, [pc, #172]	; (8001aa4 <TSK_MediumFrequencyTaskM1+0x264>)
 80019f6:	f007 fa3d 	bl	8008e74 <STM_NextState>
 80019fa:	e784      	b.n	8001906 <TSK_MediumFrequencyTaskM1+0xc6>
 80019fc:	4b2b      	ldr	r3, [pc, #172]	; (8001aac <TSK_MediumFrequencyTaskM1+0x26c>)
 80019fe:	492d      	ldr	r1, [pc, #180]	; (8001ab4 <TSK_MediumFrequencyTaskM1+0x274>)
 8001a00:	6818      	ldr	r0, [r3, #0]
 8001a02:	f007 f95b 	bl	8008cbc <STC_SetSpeedSensor>
 8001a06:	482b      	ldr	r0, [pc, #172]	; (8001ab4 <TSK_MediumFrequencyTaskM1+0x274>)
 8001a08:	f007 fc06 	bl	8009218 <VSS_Clear>
 8001a0c:	2100      	movs	r1, #0
 8001a0e:	4825      	ldr	r0, [pc, #148]	; (8001aa4 <TSK_MediumFrequencyTaskM1+0x264>)
 8001a10:	f007 fa30 	bl	8008e74 <STM_NextState>
 8001a14:	e777      	b.n	8001906 <TSK_MediumFrequencyTaskM1+0xc6>
 8001a16:	f7ff fef9 	bl	800180c <TSK_ChargeBootCapDelayHasElapsedM1>
 8001a1a:	2800      	cmp	r0, #0
 8001a1c:	f43f af73 	beq.w	8001906 <TSK_MediumFrequencyTaskM1+0xc6>
 8001a20:	4b28      	ldr	r3, [pc, #160]	; (8001ac4 <TSK_MediumFrequencyTaskM1+0x284>)
 8001a22:	2100      	movs	r1, #0
 8001a24:	6818      	ldr	r0, [r3, #0]
 8001a26:	f006 f881 	bl	8007b2c <PWMC_CurrentReadingCalibr>
 8001a2a:	2111      	movs	r1, #17
 8001a2c:	481d      	ldr	r0, [pc, #116]	; (8001aa4 <TSK_MediumFrequencyTaskM1+0x264>)
 8001a2e:	f007 fa21 	bl	8008e74 <STM_NextState>
 8001a32:	e768      	b.n	8001906 <TSK_MediumFrequencyTaskM1+0xc6>
 8001a34:	4b23      	ldr	r3, [pc, #140]	; (8001ac4 <TSK_MediumFrequencyTaskM1+0x284>)
 8001a36:	2101      	movs	r1, #1
 8001a38:	6818      	ldr	r0, [r3, #0]
 8001a3a:	f006 f877 	bl	8007b2c <PWMC_CurrentReadingCalibr>
 8001a3e:	2800      	cmp	r0, #0
 8001a40:	f43f af61 	beq.w	8001906 <TSK_MediumFrequencyTaskM1+0xc6>
 8001a44:	2112      	movs	r1, #18
 8001a46:	4817      	ldr	r0, [pc, #92]	; (8001aa4 <TSK_MediumFrequencyTaskM1+0x264>)
 8001a48:	f007 fa14 	bl	8008e74 <STM_NextState>
 8001a4c:	e75b      	b.n	8001906 <TSK_MediumFrequencyTaskM1+0xc6>
 8001a4e:	4a17      	ldr	r2, [pc, #92]	; (8001aac <TSK_MediumFrequencyTaskM1+0x26c>)
 8001a50:	4b17      	ldr	r3, [pc, #92]	; (8001ab0 <TSK_MediumFrequencyTaskM1+0x270>)
 8001a52:	6810      	ldr	r0, [r2, #0]
 8001a54:	4917      	ldr	r1, [pc, #92]	; (8001ab4 <TSK_MediumFrequencyTaskM1+0x274>)
 8001a56:	2201      	movs	r2, #1
 8001a58:	f883 2024 	strb.w	r2, [r3, #36]	; 0x24
 8001a5c:	f007 f92e 	bl	8008cbc <STC_SetSpeedSensor>
 8001a60:	480e      	ldr	r0, [pc, #56]	; (8001a9c <TSK_MediumFrequencyTaskM1+0x25c>)
 8001a62:	f007 ff87 	bl	8009974 <STO_PLL_Clear>
 8001a66:	2104      	movs	r1, #4
 8001a68:	480e      	ldr	r0, [pc, #56]	; (8001aa4 <TSK_MediumFrequencyTaskM1+0x264>)
 8001a6a:	f007 fa03 	bl	8008e74 <STM_NextState>
 8001a6e:	2800      	cmp	r0, #0
 8001a70:	f43f af49 	beq.w	8001906 <TSK_MediumFrequencyTaskM1+0xc6>
 8001a74:	2000      	movs	r0, #0
 8001a76:	f7ff fd67 	bl	8001548 <FOC_Clear>
 8001a7a:	4b12      	ldr	r3, [pc, #72]	; (8001ac4 <TSK_MediumFrequencyTaskM1+0x284>)
 8001a7c:	6818      	ldr	r0, [r3, #0]
 8001a7e:	f006 fa07 	bl	8007e90 <R3_2_SwitchOnPWM>
 8001a82:	e740      	b.n	8001906 <TSK_MediumFrequencyTaskM1+0xc6>
 8001a84:	4602      	mov	r2, r0
 8001a86:	2110      	movs	r1, #16
 8001a88:	4806      	ldr	r0, [pc, #24]	; (8001aa4 <TSK_MediumFrequencyTaskM1+0x264>)
 8001a8a:	f007 f9d9 	bl	8008e40 <STM_FaultProcessing>
 8001a8e:	e70d      	b.n	80018ac <TSK_MediumFrequencyTaskM1+0x6c>
 8001a90:	4602      	mov	r2, r0
 8001a92:	2110      	movs	r1, #16
 8001a94:	4803      	ldr	r0, [pc, #12]	; (8001aa4 <TSK_MediumFrequencyTaskM1+0x264>)
 8001a96:	f007 f9d3 	bl	8008e40 <STM_FaultProcessing>
 8001a9a:	e734      	b.n	8001906 <TSK_MediumFrequencyTaskM1+0xc6>
 8001a9c:	20000408 	.word	0x20000408
 8001aa0:	20000b94 	.word	0x20000b94
 8001aa4:	20000b88 	.word	0x20000b88
 8001aa8:	2000037c 	.word	0x2000037c
 8001aac:	20000b9c 	.word	0x20000b9c
 8001ab0:	20000ae8 	.word	0x20000ae8
 8001ab4:	200005bc 	.word	0x200005bc
 8001ab8:	20000b90 	.word	0x20000b90
 8001abc:	20000ad8 	.word	0x20000ad8
 8001ac0:	20000ae0 	.word	0x20000ae0
 8001ac4:	20000ad4 	.word	0x20000ad4

08001ac8 <MC_Scheduler>:
 8001ac8:	b538      	push	{r3, r4, r5, lr}
 8001aca:	4b12      	ldr	r3, [pc, #72]	; (8001b14 <MC_Scheduler+0x4c>)
 8001acc:	781c      	ldrb	r4, [r3, #0]
 8001ace:	2c01      	cmp	r4, #1
 8001ad0:	d000      	beq.n	8001ad4 <MC_Scheduler+0xc>
 8001ad2:	bd38      	pop	{r3, r4, r5, pc}
 8001ad4:	4d10      	ldr	r5, [pc, #64]	; (8001b18 <MC_Scheduler+0x50>)
 8001ad6:	882b      	ldrh	r3, [r5, #0]
 8001ad8:	b29b      	uxth	r3, r3
 8001ada:	b1b3      	cbz	r3, 8001b0a <MC_Scheduler+0x42>
 8001adc:	882b      	ldrh	r3, [r5, #0]
 8001ade:	3b01      	subs	r3, #1
 8001ae0:	b29b      	uxth	r3, r3
 8001ae2:	802b      	strh	r3, [r5, #0]
 8001ae4:	4a0d      	ldr	r2, [pc, #52]	; (8001b1c <MC_Scheduler+0x54>)
 8001ae6:	8813      	ldrh	r3, [r2, #0]
 8001ae8:	b29b      	uxth	r3, r3
 8001aea:	b94b      	cbnz	r3, 8001b00 <MC_Scheduler+0x38>
 8001aec:	4a0c      	ldr	r2, [pc, #48]	; (8001b20 <MC_Scheduler+0x58>)
 8001aee:	8813      	ldrh	r3, [r2, #0]
 8001af0:	b29b      	uxth	r3, r3
 8001af2:	2b00      	cmp	r3, #0
 8001af4:	d0ed      	beq.n	8001ad2 <MC_Scheduler+0xa>
 8001af6:	8813      	ldrh	r3, [r2, #0]
 8001af8:	3b01      	subs	r3, #1
 8001afa:	b29b      	uxth	r3, r3
 8001afc:	8013      	strh	r3, [r2, #0]
 8001afe:	bd38      	pop	{r3, r4, r5, pc}
 8001b00:	8813      	ldrh	r3, [r2, #0]
 8001b02:	3b01      	subs	r3, #1
 8001b04:	b29b      	uxth	r3, r3
 8001b06:	8013      	strh	r3, [r2, #0]
 8001b08:	e7f0      	b.n	8001aec <MC_Scheduler+0x24>
 8001b0a:	f7ff fe99 	bl	8001840 <TSK_MediumFrequencyTaskM1>
 8001b0e:	802c      	strh	r4, [r5, #0]
 8001b10:	e7e8      	b.n	8001ae4 <MC_Scheduler+0x1c>
 8001b12:	bf00      	nop
 8001b14:	20000760 	.word	0x20000760
 8001b18:	20000764 	.word	0x20000764
 8001b1c:	20000762 	.word	0x20000762
 8001b20:	20000766 	.word	0x20000766

08001b24 <TSK_HighFrequencyTask>:
 8001b24:	e92d 43f0 	stmdb	sp!, {r4, r5, r6, r7, r8, r9, lr}
 8001b28:	4b53      	ldr	r3, [pc, #332]	; (8001c78 <TSK_HighFrequencyTask+0x154>)
 8001b2a:	4c54      	ldr	r4, [pc, #336]	; (8001c7c <TSK_HighFrequencyTask+0x158>)
 8001b2c:	781b      	ldrb	r3, [r3, #0]
 8001b2e:	f8d4 001a 	ldr.w	r0, [r4, #26]
 8001b32:	b089      	sub	sp, #36	; 0x24
 8001b34:	2b13      	cmp	r3, #19
 8001b36:	9005      	str	r0, [sp, #20]
 8001b38:	f000 8092 	beq.w	8001c60 <TSK_HighFrequencyTask+0x13c>
 8001b3c:	4b50      	ldr	r3, [pc, #320]	; (8001c80 <TSK_HighFrequencyTask+0x15c>)
 8001b3e:	4f51      	ldr	r7, [pc, #324]	; (8001c84 <TSK_HighFrequencyTask+0x160>)
 8001b40:	6818      	ldr	r0, [r3, #0]
 8001b42:	f8df 8164 	ldr.w	r8, [pc, #356]	; 8001ca8 <TSK_HighFrequencyTask+0x184>
 8001b46:	f007 f8bb 	bl	8008cc0 <STC_GetSpeedSensor>
 8001b4a:	4605      	mov	r5, r0
 8001b4c:	f007 f85c 	bl	8008c08 <SPD_GetElAngle>
 8001b50:	4606      	mov	r6, r0
 8001b52:	4628      	mov	r0, r5
 8001b54:	f007 f860 	bl	8008c18 <SPD_GetInstElSpeedDpp>
 8001b58:	a902      	add	r1, sp, #8
 8001b5a:	6838      	ldr	r0, [r7, #0]
 8001b5c:	f005 fece 	bl	80078fc <PWMC_GetPhaseCurrents>
 8001b60:	9802      	ldr	r0, [sp, #8]
 8001b62:	f7ff fc5b 	bl	800141c <MCM_Clarke>
 8001b66:	4631      	mov	r1, r6
 8001b68:	9003      	str	r0, [sp, #12]
 8001b6a:	f7ff fc95 	bl	8001498 <MCM_Park>
 8001b6e:	4b46      	ldr	r3, [pc, #280]	; (8001c88 <TSK_HighFrequencyTask+0x164>)
 8001b70:	f9b4 1010 	ldrsh.w	r1, [r4, #16]
 8001b74:	9000      	str	r0, [sp, #0]
 8001b76:	b200      	sxth	r0, r0
 8001b78:	1a09      	subs	r1, r1, r0
 8001b7a:	6818      	ldr	r0, [r3, #0]
 8001b7c:	f005 fdec 	bl	8007758 <PI_Controller>
 8001b80:	f9bd 2002 	ldrsh.w	r2, [sp, #2]
 8001b84:	4b41      	ldr	r3, [pc, #260]	; (8001c8c <TSK_HighFrequencyTask+0x168>)
 8001b86:	f9b4 1012 	ldrsh.w	r1, [r4, #18]
 8001b8a:	4681      	mov	r9, r0
 8001b8c:	1a89      	subs	r1, r1, r2
 8001b8e:	6818      	ldr	r0, [r3, #0]
 8001b90:	f005 fde2 	bl	8007758 <PI_Controller>
 8001b94:	4b3e      	ldr	r3, [pc, #248]	; (8001c90 <TSK_HighFrequencyTask+0x16c>)
 8001b96:	f8ad 9004 	strh.w	r9, [sp, #4]
 8001b9a:	681b      	ldr	r3, [r3, #0]
 8001b9c:	f8ad 0006 	strh.w	r0, [sp, #6]
 8001ba0:	9901      	ldr	r1, [sp, #4]
 8001ba2:	4618      	mov	r0, r3
 8001ba4:	f005 fcc2 	bl	800752c <Circle_Limitation>
 8001ba8:	4603      	mov	r3, r0
 8001baa:	4628      	mov	r0, r5
 8001bac:	fa0f f983 	sxth.w	r9, r3
 8001bb0:	141d      	asrs	r5, r3, #16
 8001bb2:	9301      	str	r3, [sp, #4]
 8001bb4:	f007 f830 	bl	8008c18 <SPD_GetInstElSpeedDpp>
 8001bb8:	4631      	mov	r1, r6
 8001bba:	9801      	ldr	r0, [sp, #4]
 8001bbc:	f7ff fca6 	bl	800150c <MCM_Rev_Park>
 8001bc0:	4601      	mov	r1, r0
 8001bc2:	6838      	ldr	r0, [r7, #0]
 8001bc4:	9104      	str	r1, [sp, #16]
 8001bc6:	f005 fe9b 	bl	8007900 <PWMC_SetPhaseVoltage>
 8001bca:	4601      	mov	r1, r0
 8001bcc:	9802      	ldr	r0, [sp, #8]
 8001bce:	6020      	str	r0, [r4, #0]
 8001bd0:	9803      	ldr	r0, [sp, #12]
 8001bd2:	6060      	str	r0, [r4, #4]
 8001bd4:	9800      	ldr	r0, [sp, #0]
 8001bd6:	60e0      	str	r0, [r4, #12]
 8001bd8:	2901      	cmp	r1, #1
 8001bda:	9804      	ldr	r0, [sp, #16]
 8001bdc:	f8a4 9016 	strh.w	r9, [r4, #22]
 8001be0:	8325      	strh	r5, [r4, #24]
 8001be2:	8426      	strh	r6, [r4, #32]
 8001be4:	f8c4 001a 	str.w	r0, [r4, #26]
 8001be8:	d032      	beq.n	8001c50 <TSK_HighFrequencyTask+0x12c>
 8001bea:	482a      	ldr	r0, [pc, #168]	; (8001c94 <TSK_HighFrequencyTask+0x170>)
 8001bec:	f007 fcd0 	bl	8009590 <RUC_FirstAccelerationStageReached>
 8001bf0:	4b29      	ldr	r3, [pc, #164]	; (8001c98 <TSK_HighFrequencyTask+0x174>)
 8001bf2:	4604      	mov	r4, r0
 8001bf4:	f8d8 0000 	ldr.w	r0, [r8]
 8001bf8:	9006      	str	r0, [sp, #24]
 8001bfa:	6818      	ldr	r0, [r3, #0]
 8001bfc:	f005 fc8e 	bl	800751c <VBS_GetAvBusVoltage_d>
 8001c00:	a905      	add	r1, sp, #20
 8001c02:	f8ad 001c 	strh.w	r0, [sp, #28]
 8001c06:	4825      	ldr	r0, [pc, #148]	; (8001c9c <TSK_HighFrequencyTask+0x178>)
 8001c08:	f007 fcf8 	bl	80095fc <STO_PLL_CalcElAngle>
 8001c0c:	4823      	ldr	r0, [pc, #140]	; (8001c9c <TSK_HighFrequencyTask+0x178>)
 8001c0e:	f007 fe81 	bl	8009914 <STO_PLL_CalcAvrgElSpeedDpp>
 8001c12:	b164      	cbz	r4, 8001c2e <TSK_HighFrequencyTask+0x10a>
 8001c14:	4818      	ldr	r0, [pc, #96]	; (8001c78 <TSK_HighFrequencyTask+0x154>)
 8001c16:	f007 f9a1 	bl	8008f5c <STM_GetState>
 8001c1a:	1f03      	subs	r3, r0, #4
 8001c1c:	b2db      	uxtb	r3, r3
 8001c1e:	2b01      	cmp	r3, #1
 8001c20:	d909      	bls.n	8001c36 <TSK_HighFrequencyTask+0x112>
 8001c22:	2813      	cmp	r0, #19
 8001c24:	d007      	beq.n	8001c36 <TSK_HighFrequencyTask+0x112>
 8001c26:	2000      	movs	r0, #0
 8001c28:	b009      	add	sp, #36	; 0x24
 8001c2a:	e8bd 83f0 	ldmia.w	sp!, {r4, r5, r6, r7, r8, r9, pc}
 8001c2e:	481b      	ldr	r0, [pc, #108]	; (8001c9c <TSK_HighFrequencyTask+0x178>)
 8001c30:	f007 ffac 	bl	8009b8c <STO_ResetPLL>
 8001c34:	e7ee      	b.n	8001c14 <TSK_HighFrequencyTask+0xf0>
 8001c36:	4819      	ldr	r0, [pc, #100]	; (8001c9c <TSK_HighFrequencyTask+0x178>)
 8001c38:	f006 ffe6 	bl	8008c08 <SPD_GetElAngle>
 8001c3c:	a908      	add	r1, sp, #32
 8001c3e:	f821 0d10 	strh.w	r0, [r1, #-16]!
 8001c42:	4817      	ldr	r0, [pc, #92]	; (8001ca0 <TSK_HighFrequencyTask+0x17c>)
 8001c44:	f007 fb00 	bl	8009248 <VSS_CalcElAngle>
 8001c48:	2000      	movs	r0, #0
 8001c4a:	b009      	add	sp, #36	; 0x24
 8001c4c:	e8bd 83f0 	ldmia.w	sp!, {r4, r5, r6, r7, r8, r9, pc}
 8001c50:	2200      	movs	r2, #0
 8001c52:	4809      	ldr	r0, [pc, #36]	; (8001c78 <TSK_HighFrequencyTask+0x154>)
 8001c54:	f007 f8f4 	bl	8008e40 <STM_FaultProcessing>
 8001c58:	2000      	movs	r0, #0
 8001c5a:	b009      	add	sp, #36	; 0x24
 8001c5c:	e8bd 83f0 	ldmia.w	sp!, {r4, r5, r6, r7, r8, r9, pc}
 8001c60:	4d10      	ldr	r5, [pc, #64]	; (8001ca4 <TSK_HighFrequencyTask+0x180>)
 8001c62:	6828      	ldr	r0, [r5, #0]
 8001c64:	f006 ff70 	bl	8008b48 <REMNG_RampCompleted>
 8001c68:	2800      	cmp	r0, #0
 8001c6a:	f47f af67 	bne.w	8001b3c <TSK_HighFrequencyTask+0x18>
 8001c6e:	6828      	ldr	r0, [r5, #0]
 8001c70:	f006 ff50 	bl	8008b14 <REMNG_Calc>
 8001c74:	8220      	strh	r0, [r4, #16]
 8001c76:	e761      	b.n	8001b3c <TSK_HighFrequencyTask+0x18>
 8001c78:	20000b88 	.word	0x20000b88
 8001c7c:	20000ae8 	.word	0x20000ae8
 8001c80:	20000b9c 	.word	0x20000b9c
 8001c84:	20000ad4 	.word	0x20000ad4
 8001c88:	20000adc 	.word	0x20000adc
 8001c8c:	20000b98 	.word	0x20000b98
 8001c90:	20000b64 	.word	0x20000b64
 8001c94:	2000037c 	.word	0x2000037c
 8001c98:	20000b68 	.word	0x20000b68
 8001c9c:	20000408 	.word	0x20000408
 8001ca0:	200005bc 	.word	0x200005bc
 8001ca4:	20000b90 	.word	0x20000b90
 8001ca8:	20000aec 	.word	0x20000aec

08001cac <TSK_SafetyTask_PWMOFF>:
 8001cac:	b5f8      	push	{r3, r4, r5, r6, r7, lr}
 8001cae:	4b20      	ldr	r3, [pc, #128]	; (8001d30 <TSK_SafetyTask_PWMOFF+0x84>)
 8001cb0:	4f20      	ldr	r7, [pc, #128]	; (8001d34 <TSK_SafetyTask_PWMOFF+0x88>)
 8001cb2:	4605      	mov	r5, r0
 8001cb4:	f853 0020 	ldr.w	r0, [r3, r0, lsl #2]
 8001cb8:	f005 fcfa 	bl	80076b0 <NTC_CalcAvTemp>
 8001cbc:	4604      	mov	r4, r0
 8001cbe:	f857 0025 	ldr.w	r0, [r7, r5, lsl #2]
 8001cc2:	f005 ff5d 	bl	8007b80 <PWMC_CheckOverCurrent>
 8001cc6:	f004 040e 	and.w	r4, r4, #14
 8001cca:	4304      	orrs	r4, r0
 8001ccc:	b2a4      	uxth	r4, r4
 8001cce:	b335      	cbz	r5, 8001d1e <TSK_SafetyTask_PWMOFF+0x72>
 8001cd0:	4e19      	ldr	r6, [pc, #100]	; (8001d38 <TSK_SafetyTask_PWMOFF+0x8c>)
 8001cd2:	eb05 0345 	add.w	r3, r5, r5, lsl #1
 8001cd6:	eb06 0643 	add.w	r6, r6, r3, lsl #1
 8001cda:	43e2      	mvns	r2, r4
 8001cdc:	b292      	uxth	r2, r2
 8001cde:	4621      	mov	r1, r4
 8001ce0:	4630      	mov	r0, r6
 8001ce2:	f007 f8ad 	bl	8008e40 <STM_FaultProcessing>
 8001ce6:	4630      	mov	r0, r6
 8001ce8:	f007 f938 	bl	8008f5c <STM_GetState>
 8001cec:	280a      	cmp	r0, #10
 8001cee:	d008      	beq.n	8001d02 <TSK_SafetyTask_PWMOFF+0x56>
 8001cf0:	280b      	cmp	r0, #11
 8001cf2:	d105      	bne.n	8001d00 <TSK_SafetyTask_PWMOFF+0x54>
 8001cf4:	f857 0025 	ldr.w	r0, [r7, r5, lsl #2]
 8001cf8:	e8bd 40f8 	ldmia.w	sp!, {r3, r4, r5, r6, r7, lr}
 8001cfc:	f005 bf14 	b.w	8007b28 <PWMC_SwitchOffPWM>
 8001d00:	bdf8      	pop	{r3, r4, r5, r6, r7, pc}
 8001d02:	f857 0025 	ldr.w	r0, [r7, r5, lsl #2]
 8001d06:	f005 ff0f 	bl	8007b28 <PWMC_SwitchOffPWM>
 8001d0a:	4628      	mov	r0, r5
 8001d0c:	f7ff fc1c 	bl	8001548 <FOC_Clear>
 8001d10:	4b0a      	ldr	r3, [pc, #40]	; (8001d3c <TSK_SafetyTask_PWMOFF+0x90>)
 8001d12:	f853 0025 	ldr.w	r0, [r3, r5, lsl #2]
 8001d16:	e8bd 40f8 	ldmia.w	sp!, {r3, r4, r5, r6, r7, lr}
 8001d1a:	f005 bc77 	b.w	800760c <MPM_Clear>
 8001d1e:	4b08      	ldr	r3, [pc, #32]	; (8001d40 <TSK_SafetyTask_PWMOFF+0x94>)
 8001d20:	6818      	ldr	r0, [r3, #0]
 8001d22:	f006 feb9 	bl	8008a98 <RVBS_CalcAvVbus>
 8001d26:	f000 000e 	and.w	r0, r0, #14
 8001d2a:	4304      	orrs	r4, r0
 8001d2c:	e7d0      	b.n	8001cd0 <TSK_SafetyTask_PWMOFF+0x24>
 8001d2e:	bf00      	nop
 8001d30:	20000ad0 	.word	0x20000ad0
 8001d34:	20000ad4 	.word	0x20000ad4
 8001d38:	20000b88 	.word	0x20000b88
 8001d3c:	20000b94 	.word	0x20000b94
 8001d40:	20000b68 	.word	0x20000b68

08001d44 <TSK_SafetyTask>:
 8001d44:	b508      	push	{r3, lr}
 8001d46:	4b06      	ldr	r3, [pc, #24]	; (8001d60 <TSK_SafetyTask+0x1c>)
 8001d48:	781b      	ldrb	r3, [r3, #0]
 8001d4a:	2b01      	cmp	r3, #1
 8001d4c:	d000      	beq.n	8001d50 <TSK_SafetyTask+0xc>
 8001d4e:	bd08      	pop	{r3, pc}
 8001d50:	2000      	movs	r0, #0
 8001d52:	f7ff ffab 	bl	8001cac <TSK_SafetyTask_PWMOFF>
 8001d56:	e8bd 4008 	ldmia.w	sp!, {r3, lr}
 8001d5a:	f000 bd63 	b.w	8002824 <RCM_ExecUserConv>
 8001d5e:	bf00      	nop
 8001d60:	20000760 	.word	0x20000760

08001d64 <MC_RunMotorControlTasks>:
 8001d64:	b508      	push	{r3, lr}
 8001d66:	4b06      	ldr	r3, [pc, #24]	; (8001d80 <MC_RunMotorControlTasks+0x1c>)
 8001d68:	781b      	ldrb	r3, [r3, #0]
 8001d6a:	b903      	cbnz	r3, 8001d6e <MC_RunMotorControlTasks+0xa>
 8001d6c:	bd08      	pop	{r3, pc}
 8001d6e:	f7ff feab 	bl	8001ac8 <MC_Scheduler>
 8001d72:	f7ff ffe7 	bl	8001d44 <TSK_SafetyTask>
 8001d76:	e8bd 4008 	ldmia.w	sp!, {r3, lr}
 8001d7a:	f001 b95f 	b.w	800303c <UI_Scheduler>
 8001d7e:	bf00      	nop
 8001d80:	20000760 	.word	0x20000760

08001d84 <TSK_HardwareFaultTask>:
 8001d84:	b508      	push	{r3, lr}
 8001d86:	4b05      	ldr	r3, [pc, #20]	; (8001d9c <TSK_HardwareFaultTask+0x18>)
 8001d88:	6818      	ldr	r0, [r3, #0]
 8001d8a:	f006 f8c5 	bl	8007f18 <R3_2_SwitchOffPWM>
 8001d8e:	2200      	movs	r2, #0
 8001d90:	2180      	movs	r1, #128	; 0x80
 8001d92:	4803      	ldr	r0, [pc, #12]	; (8001da0 <TSK_HardwareFaultTask+0x1c>)
 8001d94:	e8bd 4008 	ldmia.w	sp!, {r3, lr}
 8001d98:	f007 b852 	b.w	8008e40 <STM_FaultProcessing>
 8001d9c:	20000ad4 	.word	0x20000ad4
 8001da0:	20000b88 	.word	0x20000b88

08001da4 <mc_lock_pins>:
 8001da4:	b4f0      	push	{r4, r5, r6, r7}
 8001da6:	4a51      	ldr	r2, [pc, #324]	; (8001eec <mc_lock_pins+0x148>)
 8001da8:	4851      	ldr	r0, [pc, #324]	; (8001ef0 <mc_lock_pins+0x14c>)
 8001daa:	61d0      	str	r0, [r2, #28]
 8001dac:	2602      	movs	r6, #2
 8001dae:	b092      	sub	sp, #72	; 0x48
 8001db0:	61d6      	str	r6, [r2, #28]
 8001db2:	61d0      	str	r0, [r2, #28]
 8001db4:	69d3      	ldr	r3, [r2, #28]
 8001db6:	9311      	str	r3, [sp, #68]	; 0x44
 8001db8:	494e      	ldr	r1, [pc, #312]	; (8001ef4 <mc_lock_pins+0x150>)
 8001dba:	9b11      	ldr	r3, [sp, #68]	; 0x44
 8001dbc:	61d1      	str	r1, [r2, #28]
 8001dbe:	2504      	movs	r5, #4
 8001dc0:	61d5      	str	r5, [r2, #28]
 8001dc2:	61d1      	str	r1, [r2, #28]
 8001dc4:	69d3      	ldr	r3, [r2, #28]
 8001dc6:	9310      	str	r3, [sp, #64]	; 0x40
 8001dc8:	f44f 4480 	mov.w	r4, #16384	; 0x4000
 8001dcc:	f44f 33a0 	mov.w	r3, #81920	; 0x14000
 8001dd0:	9f10      	ldr	r7, [sp, #64]	; 0x40
 8001dd2:	61d3      	str	r3, [r2, #28]
 8001dd4:	61d4      	str	r4, [r2, #28]
 8001dd6:	61d3      	str	r3, [r2, #28]
 8001dd8:	69d3      	ldr	r3, [r2, #28]
 8001dda:	930f      	str	r3, [sp, #60]	; 0x3c
 8001ddc:	f04f 4390 	mov.w	r3, #1207959552	; 0x48000000
 8001de0:	f04f 1401 	mov.w	r4, #65537	; 0x10001
 8001de4:	2701      	movs	r7, #1
 8001de6:	f8dd c03c 	ldr.w	ip, [sp, #60]	; 0x3c
 8001dea:	61dc      	str	r4, [r3, #28]
 8001dec:	61df      	str	r7, [r3, #28]
 8001dee:	61dc      	str	r4, [r3, #28]
 8001df0:	f8d3 c01c 	ldr.w	ip, [r3, #28]
 8001df4:	f8cd c038 	str.w	ip, [sp, #56]	; 0x38
 8001df8:	f8dd c038 	ldr.w	ip, [sp, #56]	; 0x38
 8001dfc:	61d4      	str	r4, [r2, #28]
 8001dfe:	61d7      	str	r7, [r2, #28]
 8001e00:	61d4      	str	r4, [r2, #28]
 8001e02:	69d4      	ldr	r4, [r2, #28]
 8001e04:	940d      	str	r4, [sp, #52]	; 0x34
 8001e06:	9f0d      	ldr	r7, [sp, #52]	; 0x34
 8001e08:	4c3b      	ldr	r4, [pc, #236]	; (8001ef8 <mc_lock_pins+0x154>)
 8001e0a:	61dc      	str	r4, [r3, #28]
 8001e0c:	2780      	movs	r7, #128	; 0x80
 8001e0e:	61df      	str	r7, [r3, #28]
 8001e10:	61dc      	str	r4, [r3, #28]
 8001e12:	69dc      	ldr	r4, [r3, #28]
 8001e14:	940c      	str	r4, [sp, #48]	; 0x30
 8001e16:	9c0c      	ldr	r4, [sp, #48]	; 0x30
 8001e18:	61d8      	str	r0, [r3, #28]
 8001e1a:	61de      	str	r6, [r3, #28]
 8001e1c:	61d8      	str	r0, [r3, #28]
 8001e1e:	69d8      	ldr	r0, [r3, #28]
 8001e20:	900b      	str	r0, [sp, #44]	; 0x2c
 8001e22:	9c0b      	ldr	r4, [sp, #44]	; 0x2c
 8001e24:	4835      	ldr	r0, [pc, #212]	; (8001efc <mc_lock_pins+0x158>)
 8001e26:	61d8      	str	r0, [r3, #28]
 8001e28:	2408      	movs	r4, #8
 8001e2a:	61dc      	str	r4, [r3, #28]
 8001e2c:	61d8      	str	r0, [r3, #28]
 8001e2e:	69d8      	ldr	r0, [r3, #28]
 8001e30:	900a      	str	r0, [sp, #40]	; 0x28
 8001e32:	980a      	ldr	r0, [sp, #40]	; 0x28
 8001e34:	61d9      	str	r1, [r3, #28]
 8001e36:	61dd      	str	r5, [r3, #28]
 8001e38:	61d9      	str	r1, [r3, #28]
 8001e3a:	69d9      	ldr	r1, [r3, #28]
 8001e3c:	9109      	str	r1, [sp, #36]	; 0x24
 8001e3e:	9809      	ldr	r0, [sp, #36]	; 0x24
 8001e40:	492f      	ldr	r1, [pc, #188]	; (8001f00 <mc_lock_pins+0x15c>)
 8001e42:	61d9      	str	r1, [r3, #28]
 8001e44:	2040      	movs	r0, #64	; 0x40
 8001e46:	61d8      	str	r0, [r3, #28]
 8001e48:	61d9      	str	r1, [r3, #28]
 8001e4a:	69d9      	ldr	r1, [r3, #28]
 8001e4c:	9108      	str	r1, [sp, #32]
 8001e4e:	9808      	ldr	r0, [sp, #32]
 8001e50:	492c      	ldr	r1, [pc, #176]	; (8001f04 <mc_lock_pins+0x160>)
 8001e52:	61d9      	str	r1, [r3, #28]
 8001e54:	2020      	movs	r0, #32
 8001e56:	61d8      	str	r0, [r3, #28]
 8001e58:	61d9      	str	r1, [r3, #28]
 8001e5a:	69d9      	ldr	r1, [r3, #28]
 8001e5c:	9107      	str	r1, [sp, #28]
 8001e5e:	f44f 4000 	mov.w	r0, #32768	; 0x8000
 8001e62:	f44f 31c0 	mov.w	r1, #98304	; 0x18000
 8001e66:	9c07      	ldr	r4, [sp, #28]
 8001e68:	61d9      	str	r1, [r3, #28]
 8001e6a:	61d8      	str	r0, [r3, #28]
 8001e6c:	61d9      	str	r1, [r3, #28]
 8001e6e:	69dc      	ldr	r4, [r3, #28]
 8001e70:	9406      	str	r4, [sp, #24]
 8001e72:	9d06      	ldr	r5, [sp, #24]
 8001e74:	4c24      	ldr	r4, [pc, #144]	; (8001f08 <mc_lock_pins+0x164>)
 8001e76:	61dc      	str	r4, [r3, #28]
 8001e78:	f44f 7580 	mov.w	r5, #256	; 0x100
 8001e7c:	61dd      	str	r5, [r3, #28]
 8001e7e:	61dc      	str	r4, [r3, #28]
 8001e80:	69dc      	ldr	r4, [r3, #28]
 8001e82:	9405      	str	r4, [sp, #20]
 8001e84:	f44f 7500 	mov.w	r5, #512	; 0x200
 8001e88:	f44f 3481 	mov.w	r4, #66048	; 0x10200
 8001e8c:	9e05      	ldr	r6, [sp, #20]
 8001e8e:	61dc      	str	r4, [r3, #28]
 8001e90:	61dd      	str	r5, [r3, #28]
 8001e92:	61dc      	str	r4, [r3, #28]
 8001e94:	69dc      	ldr	r4, [r3, #28]
 8001e96:	9404      	str	r4, [sp, #16]
 8001e98:	f44f 6580 	mov.w	r5, #1024	; 0x400
 8001e9c:	f44f 3482 	mov.w	r4, #66560	; 0x10400
 8001ea0:	9e04      	ldr	r6, [sp, #16]
 8001ea2:	61dc      	str	r4, [r3, #28]
 8001ea4:	61dd      	str	r5, [r3, #28]
 8001ea6:	61dc      	str	r4, [r3, #28]
 8001ea8:	69dc      	ldr	r4, [r3, #28]
 8001eaa:	9403      	str	r4, [sp, #12]
 8001eac:	f44f 5580 	mov.w	r5, #4096	; 0x1000
 8001eb0:	f44f 3488 	mov.w	r4, #69632	; 0x11000
 8001eb4:	9e03      	ldr	r6, [sp, #12]
 8001eb6:	61dc      	str	r4, [r3, #28]
 8001eb8:	61dd      	str	r5, [r3, #28]
 8001eba:	61dc      	str	r4, [r3, #28]
 8001ebc:	69db      	ldr	r3, [r3, #28]
 8001ebe:	9302      	str	r3, [sp, #8]
 8001ec0:	9b02      	ldr	r3, [sp, #8]
 8001ec2:	61d1      	str	r1, [r2, #28]
 8001ec4:	61d0      	str	r0, [r2, #28]
 8001ec6:	61d1      	str	r1, [r2, #28]
 8001ec8:	69d2      	ldr	r2, [r2, #28]
 8001eca:	4b10      	ldr	r3, [pc, #64]	; (8001f0c <mc_lock_pins+0x168>)
 8001ecc:	9201      	str	r2, [sp, #4]
 8001ece:	f44f 5100 	mov.w	r1, #8192	; 0x2000
 8001ed2:	f44f 3290 	mov.w	r2, #73728	; 0x12000
 8001ed6:	9801      	ldr	r0, [sp, #4]
 8001ed8:	61da      	str	r2, [r3, #28]
 8001eda:	61d9      	str	r1, [r3, #28]
 8001edc:	61da      	str	r2, [r3, #28]
 8001ede:	69db      	ldr	r3, [r3, #28]
 8001ee0:	9300      	str	r3, [sp, #0]
 8001ee2:	9b00      	ldr	r3, [sp, #0]
 8001ee4:	b012      	add	sp, #72	; 0x48
 8001ee6:	bcf0      	pop	{r4, r5, r6, r7}
 8001ee8:	4770      	bx	lr
 8001eea:	bf00      	nop
 8001eec:	48000400 	.word	0x48000400
 8001ef0:	00010002 	.word	0x00010002
 8001ef4:	00010004 	.word	0x00010004
 8001ef8:	00010080 	.word	0x00010080
 8001efc:	00010008 	.word	0x00010008
 8001f00:	00010040 	.word	0x00010040
 8001f04:	00010020 	.word	0x00010020
 8001f08:	00010100 	.word	0x00010100
 8001f0c:	48000800 	.word	0x48000800

08001f10 <MCP_ReceivedFrame>:
 8001f10:	e92d 43f0 	stmdb	sp!, {r4, r5, r6, r7, r8, r9, lr}
 8001f14:	b08d      	sub	sp, #52	; 0x34
 8001f16:	2700      	movs	r7, #0
 8001f18:	4616      	mov	r6, r2
 8001f1a:	094a      	lsrs	r2, r1, #5
 8001f1c:	460c      	mov	r4, r1
 8001f1e:	4699      	mov	r9, r3
 8001f20:	f88d 7009 	strb.w	r7, [sp, #9]
 8001f24:	4605      	mov	r5, r0
 8001f26:	d123      	bne.n	8001f70 <MCP_ReceivedFrame+0x60>
 8001f28:	2912      	cmp	r1, #18
 8001f2a:	d814      	bhi.n	8001f56 <MCP_ReceivedFrame+0x46>
 8001f2c:	e8df f011 	tbh	[pc, r1, lsl #1]
 8001f30:	00580016 	.word	0x00580016
 8001f34:	017c00ea 	.word	0x017c00ea
 8001f38:	00130013 	.word	0x00130013
 8001f3c:	01b30186 	.word	0x01b30186
 8001f40:	01fb01c8 	.word	0x01fb01c8
 8001f44:	022e021d 	.word	0x022e021d
 8001f48:	02620245 	.word	0x02620245
 8001f4c:	00130013 	.word	0x00130013
 8001f50:	00130013 	.word	0x00130013
 8001f54:	0016      	.short	0x0016
 8001f56:	2301      	movs	r3, #1
 8001f58:	f88d 300e 	strb.w	r3, [sp, #14]
 8001f5c:	e9d5 040c 	ldrd	r0, r4, [r5, #48]	; 0x30
 8001f60:	2301      	movs	r3, #1
 8001f62:	f10d 020e 	add.w	r2, sp, #14
 8001f66:	21ff      	movs	r1, #255	; 0xff
 8001f68:	47a0      	blx	r4
 8001f6a:	b00d      	add	sp, #52	; 0x34
 8001f6c:	e8bd 83f0 	ldmia.w	sp!, {r4, r5, r6, r7, r8, r9, pc}
 8001f70:	f102 38ff 	add.w	r8, r2, #4294967295
 8001f74:	4642      	mov	r2, r8
 8001f76:	4639      	mov	r1, r7
 8001f78:	f001 f8d0 	bl	800311c <UI_SetReg>
 8001f7c:	b300      	cbz	r0, 8001fc0 <MCP_ReceivedFrame+0xb0>
 8001f7e:	f8d5 00c4 	ldr.w	r0, [r5, #196]	; 0xc4
 8001f82:	f004 041f 	and.w	r4, r4, #31
 8001f86:	b118      	cbz	r0, 8001f90 <MCP_ReceivedFrame+0x80>
 8001f88:	4642      	mov	r2, r8
 8001f8a:	4639      	mov	r1, r7
 8001f8c:	f001 f8c6 	bl	800311c <UI_SetReg>
 8001f90:	2c12      	cmp	r4, #18
 8001f92:	f200 82de 	bhi.w	8002552 <MCP_ReceivedFrame+0x642>
 8001f96:	e8df f014 	tbh	[pc, r4, lsl #1]
 8001f9a:	01c3      	.short	0x01c3
 8001f9c:	00b50023 	.word	0x00b50023
 8001fa0:	02dc0147 	.word	0x02dc0147
 8001fa4:	015102dc 	.word	0x015102dc
 8001fa8:	0193017e 	.word	0x0193017e
 8001fac:	01e801c6 	.word	0x01e801c6
 8001fb0:	021001f9 	.word	0x021001f9
 8001fb4:	02dc022d 	.word	0x02dc022d
 8001fb8:	02dc02dc 	.word	0x02dc02dc
 8001fbc:	01c302dc 	.word	0x01c302dc
 8001fc0:	230b      	movs	r3, #11
 8001fc2:	f89d 0009 	ldrb.w	r0, [sp, #9]
 8001fc6:	f88d 300e 	strb.w	r3, [sp, #14]
 8001fca:	2800      	cmp	r0, #0
 8001fcc:	d0c6      	beq.n	8001f5c <MCP_ReceivedFrame+0x4c>
 8001fce:	2300      	movs	r3, #0
 8001fd0:	461a      	mov	r2, r3
 8001fd2:	e9d5 040c 	ldrd	r0, r4, [r5, #48]	; 0x30
 8001fd6:	21f0      	movs	r1, #240	; 0xf0
 8001fd8:	47a0      	blx	r4
 8001fda:	b00d      	add	sp, #52	; 0x34
 8001fdc:	e8bd 83f0 	ldmia.w	sp!, {r4, r5, r6, r7, r8, r9, pc}
 8001fe0:	7831      	ldrb	r1, [r6, #0]
 8001fe2:	2305      	movs	r3, #5
 8001fe4:	f88d 300e 	strb.w	r3, [sp, #14]
 8001fe8:	2988      	cmp	r1, #136	; 0x88
 8001fea:	f200 82b8 	bhi.w	800255e <MCP_ReceivedFrame+0x64e>
 8001fee:	e8df f011 	tbh	[pc, r1, lsl #1]
 8001ff2:	02a1      	.short	0x02a1
 8001ff4:	02b602b6 	.word	0x02b602b6
 8001ff8:	02b6029a 	.word	0x02b6029a
 8001ffc:	02900290 	.word	0x02900290
 8002000:	02900290 	.word	0x02900290
 8002004:	02900290 	.word	0x02900290
 8002008:	02900290 	.word	0x02900290
 800200c:	02900290 	.word	0x02900290
 8002010:	02800290 	.word	0x02800290
 8002014:	02b60280 	.word	0x02b60280
 8002018:	029002b6 	.word	0x029002b6
 800201c:	02900290 	.word	0x02900290
 8002020:	02900290 	.word	0x02900290
 8002024:	02b602b6 	.word	0x02b602b6
 8002028:	027602b6 	.word	0x027602b6
 800202c:	02b6026c 	.word	0x02b6026c
 8002030:	02b602b6 	.word	0x02b602b6
 8002034:	02b602b6 	.word	0x02b602b6
 8002038:	02b602b6 	.word	0x02b602b6
 800203c:	02b602b6 	.word	0x02b602b6
 8002040:	02b602b6 	.word	0x02b602b6
 8002044:	02b602b6 	.word	0x02b602b6
 8002048:	02b602b6 	.word	0x02b602b6
 800204c:	02b602b6 	.word	0x02b602b6
 8002050:	02b602b6 	.word	0x02b602b6
 8002054:	02b602b6 	.word	0x02b602b6
 8002058:	02b602b6 	.word	0x02b602b6
 800205c:	02b602b6 	.word	0x02b602b6
 8002060:	02b602b6 	.word	0x02b602b6
 8002064:	02b602b6 	.word	0x02b602b6
 8002068:	02b602b6 	.word	0x02b602b6
 800206c:	02b602b6 	.word	0x02b602b6
 8002070:	02b602b6 	.word	0x02b602b6
 8002074:	02b60290 	.word	0x02b60290
 8002078:	02b602b6 	.word	0x02b602b6
 800207c:	028002b6 	.word	0x028002b6
 8002080:	02800280 	.word	0x02800280
 8002084:	02b602b6 	.word	0x02b602b6
 8002088:	02b602b6 	.word	0x02b602b6
 800208c:	02b602b6 	.word	0x02b602b6
 8002090:	02b60290 	.word	0x02b60290
 8002094:	02b602b6 	.word	0x02b602b6
 8002098:	02900290 	.word	0x02900290
 800209c:	02900290 	.word	0x02900290
 80020a0:	02900290 	.word	0x02900290
 80020a4:	02b60290 	.word	0x02b60290
 80020a8:	02b60280 	.word	0x02b60280
 80020ac:	02b602b6 	.word	0x02b602b6
 80020b0:	02b602b6 	.word	0x02b602b6
 80020b4:	02b60290 	.word	0x02b60290
 80020b8:	029002b6 	.word	0x029002b6
 80020bc:	02b60290 	.word	0x02b60290
 80020c0:	02b602b6 	.word	0x02b602b6
 80020c4:	02b602b6 	.word	0x02b602b6
 80020c8:	02b602b6 	.word	0x02b602b6
 80020cc:	02b602b6 	.word	0x02b602b6
 80020d0:	02b602b6 	.word	0x02b602b6
 80020d4:	02b602b6 	.word	0x02b602b6
 80020d8:	029a02b6 	.word	0x029a02b6
 80020dc:	02800280 	.word	0x02800280
 80020e0:	02800280 	.word	0x02800280
 80020e4:	02b60280 	.word	0x02b60280
 80020e8:	02b602b6 	.word	0x02b602b6
 80020ec:	02800280 	.word	0x02800280
 80020f0:	02b602b6 	.word	0x02b602b6
 80020f4:	02b602b6 	.word	0x02b602b6
 80020f8:	02b602b6 	.word	0x02b602b6
 80020fc:	029002b6 	.word	0x029002b6
 8002100:	02900290 	.word	0x02900290
 8002104:	7831      	ldrb	r1, [r6, #0]
 8002106:	2303      	movs	r3, #3
 8002108:	f88d 300e 	strb.w	r3, [sp, #14]
 800210c:	2988      	cmp	r1, #136	; 0x88
 800210e:	f200 8107 	bhi.w	8002320 <MCP_ReceivedFrame+0x410>
 8002112:	e8df f011 	tbh	[pc, r1, lsl #1]
 8002116:	0191      	.short	0x0191
 8002118:	0191017f 	.word	0x0191017f
 800211c:	017f0191 	.word	0x017f0191
 8002120:	01c801c8 	.word	0x01c801c8
 8002124:	01c801c8 	.word	0x01c801c8
 8002128:	01c801c8 	.word	0x01c801c8
 800212c:	01c801c8 	.word	0x01c801c8
 8002130:	01c801c8 	.word	0x01c801c8
 8002134:	01c801c8 	.word	0x01c801c8
 8002138:	01c801c8 	.word	0x01c801c8
 800213c:	01c801c8 	.word	0x01c801c8
 8002140:	01c801c8 	.word	0x01c801c8
 8002144:	01c801c8 	.word	0x01c801c8
 8002148:	01c801c8 	.word	0x01c801c8
 800214c:	01b701c8 	.word	0x01b701c8
 8002150:	017f01a3 	.word	0x017f01a3
 8002154:	01c801c8 	.word	0x01c801c8
 8002158:	019101c8 	.word	0x019101c8
 800215c:	01050105 	.word	0x01050105
 8002160:	01050105 	.word	0x01050105
 8002164:	01050105 	.word	0x01050105
 8002168:	01050105 	.word	0x01050105
 800216c:	01050105 	.word	0x01050105
 8002170:	01050105 	.word	0x01050105
 8002174:	01050105 	.word	0x01050105
 8002178:	01050105 	.word	0x01050105
 800217c:	01050105 	.word	0x01050105
 8002180:	01050105 	.word	0x01050105
 8002184:	01050105 	.word	0x01050105
 8002188:	01050105 	.word	0x01050105
 800218c:	01050105 	.word	0x01050105
 8002190:	01050105 	.word	0x01050105
 8002194:	01050105 	.word	0x01050105
 8002198:	010501c8 	.word	0x010501c8
 800219c:	01050105 	.word	0x01050105
 80021a0:	017f0105 	.word	0x017f0105
 80021a4:	017f017f 	.word	0x017f017f
 80021a8:	01c801c8 	.word	0x01c801c8
 80021ac:	01c801c8 	.word	0x01c801c8
 80021b0:	017f0191 	.word	0x017f0191
 80021b4:	01c801c8 	.word	0x01c801c8
 80021b8:	01c801c8 	.word	0x01c801c8
 80021bc:	01c801c8 	.word	0x01c801c8
 80021c0:	01c801c8 	.word	0x01c801c8
 80021c4:	01c801c8 	.word	0x01c801c8
 80021c8:	019101c8 	.word	0x019101c8
 80021cc:	0105017f 	.word	0x0105017f
 80021d0:	01c801c8 	.word	0x01c801c8
 80021d4:	01c801c8 	.word	0x01c801c8
 80021d8:	010501c8 	.word	0x010501c8
 80021dc:	01c80105 	.word	0x01c80105
 80021e0:	019101c8 	.word	0x019101c8
 80021e4:	017f0191 	.word	0x017f0191
 80021e8:	017f017f 	.word	0x017f017f
 80021ec:	017f017f 	.word	0x017f017f
 80021f0:	01c80191 	.word	0x01c80191
 80021f4:	017f01c8 	.word	0x017f01c8
 80021f8:	01c80105 	.word	0x01c80105
 80021fc:	019101c8 	.word	0x019101c8
 8002200:	017f017f 	.word	0x017f017f
 8002204:	017f017f 	.word	0x017f017f
 8002208:	017f017f 	.word	0x017f017f
 800220c:	017f017f 	.word	0x017f017f
 8002210:	017f017f 	.word	0x017f017f
 8002214:	0191017f 	.word	0x0191017f
 8002218:	01910105 	.word	0x01910105
 800221c:	017f017f 	.word	0x017f017f
 8002220:	01c8017f 	.word	0x01c8017f
 8002224:	01c801c8 	.word	0x01c801c8
 8002228:	2307      	movs	r3, #7
 800222a:	7831      	ldrb	r1, [r6, #0]
 800222c:	f88d 300e 	strb.w	r3, [sp, #14]
 8002230:	4628      	mov	r0, r5
 8002232:	f001 f8e3 	bl	80033fc <UI_ExecCmd>
 8002236:	f88d 0009 	strb.w	r0, [sp, #9]
 800223a:	e6c6      	b.n	8001fca <MCP_ReceivedFrame+0xba>
 800223c:	ac04      	add	r4, sp, #16
 800223e:	2100      	movs	r1, #0
 8002240:	4620      	mov	r0, r4
 8002242:	2220      	movs	r2, #32
 8002244:	f007 fce2 	bl	8009c0c <memset>
 8002248:	f8d5 60c0 	ldr.w	r6, [r5, #192]	; 0xc0
 800224c:	f10d 0012 	add.w	r0, sp, #18
 8002250:	1e71      	subs	r1, r6, #1
 8002252:	2300      	movs	r3, #0
 8002254:	e005      	b.n	8002262 <MCP_ReceivedFrame+0x352>
 8002256:	3301      	adds	r3, #1
 8002258:	2b1d      	cmp	r3, #29
 800225a:	f800 2f01 	strb.w	r2, [r0, #1]!
 800225e:	f000 8182 	beq.w	8002566 <MCP_ReceivedFrame+0x656>
 8002262:	f811 2f01 	ldrb.w	r2, [r1, #1]!
 8002266:	2a09      	cmp	r2, #9
 8002268:	d1f5      	bne.n	8002256 <MCP_ReceivedFrame+0x346>
 800226a:	1d5a      	adds	r2, r3, #5
 800226c:	1dd9      	adds	r1, r3, #7
 800226e:	3309      	adds	r3, #9
 8002270:	5cb2      	ldrb	r2, [r6, r2]
 8002272:	f88d 2010 	strb.w	r2, [sp, #16]
 8002276:	5c72      	ldrb	r2, [r6, r1]
 8002278:	f88d 2011 	strb.w	r2, [sp, #17]
 800227c:	5cf3      	ldrb	r3, [r6, r3]
 800227e:	f88d 3012 	strb.w	r3, [sp, #18]
 8002282:	4622      	mov	r2, r4
 8002284:	2320      	movs	r3, #32
 8002286:	e9d5 040c 	ldrd	r0, r4, [r5, #48]	; 0x30
 800228a:	21f0      	movs	r1, #240	; 0xf0
 800228c:	47a0      	blx	r4
 800228e:	2301      	movs	r3, #1
 8002290:	f88d 3009 	strb.w	r3, [sp, #9]
 8002294:	e69b      	b.n	8001fce <MCP_ReceivedFrame+0xbe>
 8002296:	7877      	ldrb	r7, [r6, #1]
 8002298:	7833      	ldrb	r3, [r6, #0]
 800229a:	7970      	ldrb	r0, [r6, #5]
 800229c:	78b4      	ldrb	r4, [r6, #2]
 800229e:	7932      	ldrb	r2, [r6, #4]
 80022a0:	78f1      	ldrb	r1, [r6, #3]
 80022a2:	eb03 2307 	add.w	r3, r3, r7, lsl #8
 80022a6:	eb03 4304 	add.w	r3, r3, r4, lsl #16
 80022aa:	eb02 2200 	add.w	r2, r2, r0, lsl #8
 80022ae:	eb03 6101 	add.w	r1, r3, r1, lsl #24
 80022b2:	b292      	uxth	r2, r2
 80022b4:	4628      	mov	r0, r5
 80022b6:	f001 f8df 	bl	8003478 <UI_ExecSpeedRamp>
 80022ba:	f88d 0009 	strb.w	r0, [sp, #9]
 80022be:	e684      	b.n	8001fca <MCP_ReceivedFrame+0xba>
 80022c0:	f10d 030e 	add.w	r3, sp, #14
 80022c4:	7831      	ldrb	r1, [r6, #0]
 80022c6:	9300      	str	r3, [sp, #0]
 80022c8:	f10d 020a 	add.w	r2, sp, #10
 80022cc:	ab03      	add	r3, sp, #12
 80022ce:	4628      	mov	r0, r5
 80022d0:	f001 f8ee 	bl	80034b0 <UI_GetRevupData>
 80022d4:	f9bd 300c 	ldrsh.w	r3, [sp, #12]
 80022d8:	f8bd 000a 	ldrh.w	r0, [sp, #10]
 80022dc:	f9bd 100e 	ldrsh.w	r1, [sp, #14]
 80022e0:	f88d 1014 	strb.w	r1, [sp, #20]
 80022e4:	eb03 0343 	add.w	r3, r3, r3, lsl #1
 80022e8:	005b      	lsls	r3, r3, #1
 80022ea:	2200      	movs	r2, #0
 80022ec:	121c      	asrs	r4, r3, #8
 80022ee:	f363 0207 	bfi	r2, r3, #0, #8
 80022f2:	f364 220f 	bfi	r2, r4, #8, #8
 80022f6:	141c      	asrs	r4, r3, #16
 80022f8:	f364 4217 	bfi	r2, r4, #16, #8
 80022fc:	161b      	asrs	r3, r3, #24
 80022fe:	f363 621f 	bfi	r2, r3, #24, #8
 8002302:	1209      	asrs	r1, r1, #8
 8002304:	0a03      	lsrs	r3, r0, #8
 8002306:	9204      	str	r2, [sp, #16]
 8002308:	f88d 1015 	strb.w	r1, [sp, #21]
 800230c:	f88d 0016 	strb.w	r0, [sp, #22]
 8002310:	f88d 3017 	strb.w	r3, [sp, #23]
 8002314:	e9d5 040c 	ldrd	r0, r4, [r5, #48]	; 0x30
 8002318:	2308      	movs	r3, #8
 800231a:	aa04      	add	r2, sp, #16
 800231c:	21f0      	movs	r1, #240	; 0xf0
 800231e:	47a0      	blx	r4
 8002320:	f89d 0009 	ldrb.w	r0, [sp, #9]
 8002324:	e651      	b.n	8001fca <MCP_ReceivedFrame+0xba>
 8002326:	78b1      	ldrb	r1, [r6, #2]
 8002328:	7873      	ldrb	r3, [r6, #1]
 800232a:	78f2      	ldrb	r2, [r6, #3]
 800232c:	7934      	ldrb	r4, [r6, #4]
 800232e:	7970      	ldrb	r0, [r6, #5]
 8002330:	7a37      	ldrb	r7, [r6, #8]
 8002332:	eb03 2301 	add.w	r3, r3, r1, lsl #8
 8002336:	eb03 4302 	add.w	r3, r3, r2, lsl #16
 800233a:	4a8d      	ldr	r2, [pc, #564]	; (8002570 <MCP_ReceivedFrame+0x660>)
 800233c:	79b1      	ldrb	r1, [r6, #6]
 800233e:	eb03 6304 	add.w	r3, r3, r4, lsl #24
 8002342:	fb82 4203 	smull	r4, r2, r2, r3
 8002346:	79f4      	ldrb	r4, [r6, #7]
 8002348:	eb00 2001 	add.w	r0, r0, r1, lsl #8
 800234c:	eba2 73e3 	sub.w	r3, r2, r3, asr #31
 8002350:	b200      	sxth	r0, r0
 8002352:	eb04 2207 	add.w	r2, r4, r7, lsl #8
 8002356:	7831      	ldrb	r1, [r6, #0]
 8002358:	9000      	str	r0, [sp, #0]
 800235a:	b21b      	sxth	r3, r3
 800235c:	b292      	uxth	r2, r2
 800235e:	4628      	mov	r0, r5
 8002360:	f001 f8c4 	bl	80034ec <UI_SetRevupData>
 8002364:	f88d 0009 	strb.w	r0, [sp, #9]
 8002368:	e62f      	b.n	8001fca <MCP_ReceivedFrame+0xba>
 800236a:	78f0      	ldrb	r0, [r6, #3]
 800236c:	7873      	ldrb	r3, [r6, #1]
 800236e:	78b2      	ldrb	r2, [r6, #2]
 8002370:	7831      	ldrb	r1, [r6, #0]
 8002372:	eb02 2200 	add.w	r2, r2, r0, lsl #8
 8002376:	eb01 2103 	add.w	r1, r1, r3, lsl #8
 800237a:	b212      	sxth	r2, r2
 800237c:	b209      	sxth	r1, r1
 800237e:	4628      	mov	r0, r5
 8002380:	f001 f8ce 	bl	8003520 <UI_SetCurrentReferences>
 8002384:	2301      	movs	r3, #1
 8002386:	f88d 3009 	strb.w	r3, [sp, #9]
 800238a:	e620      	b.n	8001fce <MCP_ReceivedFrame+0xbe>
 800238c:	4c79      	ldr	r4, [pc, #484]	; (8002574 <MCP_ReceivedFrame+0x664>)
 800238e:	9604      	str	r6, [sp, #16]
 8002390:	230c      	movs	r3, #12
 8002392:	4621      	mov	r1, r4
 8002394:	a804      	add	r0, sp, #16
 8002396:	f88d 9014 	strb.w	r9, [sp, #20]
 800239a:	f88d 300e 	strb.w	r3, [sp, #14]
 800239e:	f001 f8cd 	bl	800353c <UI_GetMPInfo>
 80023a2:	f88d 0009 	strb.w	r0, [sp, #9]
 80023a6:	2800      	cmp	r0, #0
 80023a8:	f43f add8 	beq.w	8001f5c <MCP_ReceivedFrame+0x4c>
 80023ac:	e9d5 060c 	ldrd	r0, r6, [r5, #48]	; 0x30
 80023b0:	7923      	ldrb	r3, [r4, #4]
 80023b2:	6822      	ldr	r2, [r4, #0]
 80023b4:	21f0      	movs	r1, #240	; 0xf0
 80023b6:	47b0      	blx	r6
 80023b8:	e5d7      	b.n	8001f6a <MCP_ReceivedFrame+0x5a>
 80023ba:	f8d5 20c0 	ldr.w	r2, [r5, #192]	; 0xc0
 80023be:	ac04      	add	r4, sp, #16
 80023c0:	3a01      	subs	r2, #1
 80023c2:	4623      	mov	r3, r4
 80023c4:	ae0c      	add	r6, sp, #48	; 0x30
 80023c6:	e004      	b.n	80023d2 <MCP_ReceivedFrame+0x4c2>
 80023c8:	f803 1b01 	strb.w	r1, [r3], #1
 80023cc:	429e      	cmp	r6, r3
 80023ce:	f43f af58 	beq.w	8002282 <MCP_ReceivedFrame+0x372>
 80023d2:	f812 1f01 	ldrb.w	r1, [r2, #1]!
 80023d6:	1b18      	subs	r0, r3, r4
 80023d8:	b2c0      	uxtb	r0, r0
 80023da:	2900      	cmp	r1, #0
 80023dc:	d1f4      	bne.n	80023c8 <MCP_ReceivedFrame+0x4b8>
 80023de:	281f      	cmp	r0, #31
 80023e0:	f63f af4f 	bhi.w	8002282 <MCP_ReceivedFrame+0x372>
 80023e4:	f1c0 021f 	rsb	r2, r0, #31
 80023e8:	b2d2      	uxtb	r2, r2
 80023ea:	3201      	adds	r2, #1
 80023ec:	4420      	add	r0, r4
 80023ee:	f007 fc0d 	bl	8009c0c <memset>
 80023f2:	e746      	b.n	8002282 <MCP_ReceivedFrame+0x372>
 80023f4:	7970      	ldrb	r0, [r6, #5]
 80023f6:	7932      	ldrb	r2, [r6, #4]
 80023f8:	7873      	ldrb	r3, [r6, #1]
 80023fa:	7831      	ldrb	r1, [r6, #0]
 80023fc:	eb02 2200 	add.w	r2, r2, r0, lsl #8
 8002400:	eb01 2103 	add.w	r1, r1, r3, lsl #8
 8002404:	b292      	uxth	r2, r2
 8002406:	b209      	sxth	r1, r1
 8002408:	4628      	mov	r0, r5
 800240a:	f001 f847 	bl	800349c <UI_ExecTorqueRamp>
 800240e:	f88d 0009 	strb.w	r0, [sp, #9]
 8002412:	e5da      	b.n	8001fca <MCP_ReceivedFrame+0xba>
 8002414:	f10d 0209 	add.w	r2, sp, #9
 8002418:	4628      	mov	r0, r5
 800241a:	f001 f8a3 	bl	8003564 <UI_GetReg>
 800241e:	f89d 3009 	ldrb.w	r3, [sp, #9]
 8002422:	9004      	str	r0, [sp, #16]
 8002424:	2b00      	cmp	r3, #0
 8002426:	f43f ad99 	beq.w	8001f5c <MCP_ReceivedFrame+0x4c>
 800242a:	e9d5 040c 	ldrd	r0, r4, [r5, #48]	; 0x30
 800242e:	2304      	movs	r3, #4
 8002430:	aa04      	add	r2, sp, #16
 8002432:	21f0      	movs	r1, #240	; 0xf0
 8002434:	47a0      	blx	r4
 8002436:	e598      	b.n	8001f6a <MCP_ReceivedFrame+0x5a>
 8002438:	f10d 0209 	add.w	r2, sp, #9
 800243c:	4628      	mov	r0, r5
 800243e:	f001 f891 	bl	8003564 <UI_GetReg>
 8002442:	f89d 3009 	ldrb.w	r3, [sp, #9]
 8002446:	9004      	str	r0, [sp, #16]
 8002448:	2b00      	cmp	r3, #0
 800244a:	f43f ad87 	beq.w	8001f5c <MCP_ReceivedFrame+0x4c>
 800244e:	e9d5 040c 	ldrd	r0, r4, [r5, #48]	; 0x30
 8002452:	2301      	movs	r3, #1
 8002454:	aa04      	add	r2, sp, #16
 8002456:	21f0      	movs	r1, #240	; 0xf0
 8002458:	47a0      	blx	r4
 800245a:	e586      	b.n	8001f6a <MCP_ReceivedFrame+0x5a>
 800245c:	f8d5 00c4 	ldr.w	r0, [r5, #196]	; 0xc4
 8002460:	2800      	cmp	r0, #0
 8002462:	f43f af5d 	beq.w	8002320 <MCP_ReceivedFrame+0x410>
 8002466:	2101      	movs	r1, #1
 8002468:	f001 f876 	bl	8003558 <UI_GetDAC>
 800246c:	aa0c      	add	r2, sp, #48	; 0x30
 800246e:	2301      	movs	r3, #1
 8002470:	f802 0d20 	strb.w	r0, [r2, #-32]!
 8002474:	6b6c      	ldr	r4, [r5, #52]	; 0x34
 8002476:	6b28      	ldr	r0, [r5, #48]	; 0x30
 8002478:	21f0      	movs	r1, #240	; 0xf0
 800247a:	47a0      	blx	r4
 800247c:	2301      	movs	r3, #1
 800247e:	f88d 3009 	strb.w	r3, [sp, #9]
 8002482:	e5a4      	b.n	8001fce <MCP_ReceivedFrame+0xbe>
 8002484:	f8d5 00c4 	ldr.w	r0, [r5, #196]	; 0xc4
 8002488:	2800      	cmp	r0, #0
 800248a:	f43f af49 	beq.w	8002320 <MCP_ReceivedFrame+0x410>
 800248e:	2100      	movs	r1, #0
 8002490:	f001 f862 	bl	8003558 <UI_GetDAC>
 8002494:	aa0c      	add	r2, sp, #48	; 0x30
 8002496:	6b6c      	ldr	r4, [r5, #52]	; 0x34
 8002498:	f802 0d20 	strb.w	r0, [r2, #-32]!
 800249c:	2301      	movs	r3, #1
 800249e:	6b28      	ldr	r0, [r5, #48]	; 0x30
 80024a0:	21f0      	movs	r1, #240	; 0xf0
 80024a2:	47a0      	blx	r4
 80024a4:	e561      	b.n	8001f6a <MCP_ReceivedFrame+0x5a>
 80024a6:	f10d 0209 	add.w	r2, sp, #9
 80024aa:	4628      	mov	r0, r5
 80024ac:	f001 f85a 	bl	8003564 <UI_GetReg>
 80024b0:	f89d 3009 	ldrb.w	r3, [sp, #9]
 80024b4:	9004      	str	r0, [sp, #16]
 80024b6:	2b00      	cmp	r3, #0
 80024b8:	f43f ad50 	beq.w	8001f5c <MCP_ReceivedFrame+0x4c>
 80024bc:	e9d5 040c 	ldrd	r0, r4, [r5, #48]	; 0x30
 80024c0:	2302      	movs	r3, #2
 80024c2:	aa04      	add	r2, sp, #16
 80024c4:	21f0      	movs	r1, #240	; 0xf0
 80024c6:	47a0      	blx	r4
 80024c8:	e54f      	b.n	8001f6a <MCP_ReceivedFrame+0x5a>
 80024ca:	7872      	ldrb	r2, [r6, #1]
 80024cc:	f8d5 00c4 	ldr.w	r0, [r5, #196]	; 0xc4
 80024d0:	2101      	movs	r1, #1
 80024d2:	f001 f83d 	bl	8003550 <UI_SetDAC>
 80024d6:	2301      	movs	r3, #1
 80024d8:	f88d 3009 	strb.w	r3, [sp, #9]
 80024dc:	e577      	b.n	8001fce <MCP_ReceivedFrame+0xbe>
 80024de:	7872      	ldrb	r2, [r6, #1]
 80024e0:	f8d5 00c4 	ldr.w	r0, [r5, #196]	; 0xc4
 80024e4:	2100      	movs	r1, #0
 80024e6:	f001 f833 	bl	8003550 <UI_SetDAC>
 80024ea:	2301      	movs	r3, #1
 80024ec:	f88d 3009 	strb.w	r3, [sp, #9]
 80024f0:	e56d      	b.n	8001fce <MCP_ReceivedFrame+0xbe>
 80024f2:	78b4      	ldrb	r4, [r6, #2]
 80024f4:	7873      	ldrb	r3, [r6, #1]
 80024f6:	78f0      	ldrb	r0, [r6, #3]
 80024f8:	7932      	ldrb	r2, [r6, #4]
 80024fa:	eb03 2304 	add.w	r3, r3, r4, lsl #8
 80024fe:	eb03 4300 	add.w	r3, r3, r0, lsl #16
 8002502:	eb03 6202 	add.w	r2, r3, r2, lsl #24
 8002506:	4628      	mov	r0, r5
 8002508:	f000 fe08 	bl	800311c <UI_SetReg>
 800250c:	f88d 0009 	strb.w	r0, [sp, #9]
 8002510:	e55b      	b.n	8001fca <MCP_ReceivedFrame+0xba>
 8002512:	78b2      	ldrb	r2, [r6, #2]
 8002514:	7873      	ldrb	r3, [r6, #1]
 8002516:	4628      	mov	r0, r5
 8002518:	eb03 2202 	add.w	r2, r3, r2, lsl #8
 800251c:	f000 fdfe 	bl	800311c <UI_SetReg>
 8002520:	f88d 0009 	strb.w	r0, [sp, #9]
 8002524:	e551      	b.n	8001fca <MCP_ReceivedFrame+0xba>
 8002526:	7872      	ldrb	r2, [r6, #1]
 8002528:	4628      	mov	r0, r5
 800252a:	f000 fdf7 	bl	800311c <UI_SetReg>
 800252e:	f88d 0009 	strb.w	r0, [sp, #9]
 8002532:	e54a      	b.n	8001fca <MCP_ReceivedFrame+0xba>
 8002534:	7874      	ldrb	r4, [r6, #1]
 8002536:	f8d5 00c4 	ldr.w	r0, [r5, #196]	; 0xc4
 800253a:	4622      	mov	r2, r4
 800253c:	2100      	movs	r1, #0
 800253e:	f000 fded 	bl	800311c <UI_SetReg>
 8002542:	4622      	mov	r2, r4
 8002544:	2100      	movs	r1, #0
 8002546:	4628      	mov	r0, r5
 8002548:	f000 fde8 	bl	800311c <UI_SetReg>
 800254c:	f88d 0009 	strb.w	r0, [sp, #9]
 8002550:	e53b      	b.n	8001fca <MCP_ReceivedFrame+0xba>
 8002552:	2301      	movs	r3, #1
 8002554:	f89d 0009 	ldrb.w	r0, [sp, #9]
 8002558:	f88d 300e 	strb.w	r3, [sp, #14]
 800255c:	e535      	b.n	8001fca <MCP_ReceivedFrame+0xba>
 800255e:	2302      	movs	r3, #2
 8002560:	f88d 300e 	strb.w	r3, [sp, #14]
 8002564:	e6dc      	b.n	8002320 <MCP_ReceivedFrame+0x410>
 8002566:	2326      	movs	r3, #38	; 0x26
 8002568:	2124      	movs	r1, #36	; 0x24
 800256a:	2222      	movs	r2, #34	; 0x22
 800256c:	e680      	b.n	8002270 <MCP_ReceivedFrame+0x360>
 800256e:	bf00      	nop
 8002570:	2aaaaaab 	.word	0x2aaaaaab
 8002574:	20000768 	.word	0x20000768

08002578 <MCP_WaitNextFrame>:
 8002578:	b510      	push	{r4, lr}
 800257a:	6bc3      	ldr	r3, [r0, #60]	; 0x3c
 800257c:	4604      	mov	r4, r0
 800257e:	6b00      	ldr	r0, [r0, #48]	; 0x30
 8002580:	4798      	blx	r3
 8002582:	2380      	movs	r3, #128	; 0x80
 8002584:	f884 30c8 	strb.w	r3, [r4, #200]	; 0xc8
 8002588:	6b20      	ldr	r0, [r4, #48]	; 0x30
 800258a:	6ba3      	ldr	r3, [r4, #56]	; 0x38
 800258c:	e8bd 4010 	ldmia.w	sp!, {r4, lr}
 8002590:	4718      	bx	r3
 8002592:	bf00      	nop

08002594 <MCP_Init>:
 8002594:	b5f0      	push	{r4, r5, r6, r7, lr}
 8002596:	b083      	sub	sp, #12
 8002598:	4604      	mov	r4, r0
 800259a:	461e      	mov	r6, r3
 800259c:	9b09      	ldr	r3, [sp, #36]	; 0x24
 800259e:	6301      	str	r1, [r0, #48]	; 0x30
 80025a0:	4f0b      	ldr	r7, [pc, #44]	; (80025d0 <MCP_Init+0x3c>)
 80025a2:	f8c4 30c4 	str.w	r3, [r4, #196]	; 0xc4
 80025a6:	9b0a      	ldr	r3, [sp, #40]	; 0x28
 80025a8:	f8c4 30c0 	str.w	r3, [r4, #192]	; 0xc0
 80025ac:	4608      	mov	r0, r1
 80025ae:	4615      	mov	r5, r2
 80025b0:	4621      	mov	r1, r4
 80025b2:	9700      	str	r7, [sp, #0]
 80025b4:	4b07      	ldr	r3, [pc, #28]	; (80025d4 <MCP_Init+0x40>)
 80025b6:	9f08      	ldr	r7, [sp, #32]
 80025b8:	4a07      	ldr	r2, [pc, #28]	; (80025d8 <MCP_Init+0x44>)
 80025ba:	f005 f809 	bl	80075d0 <FCP_SetClient>
 80025be:	e9c4 560d 	strd	r5, r6, [r4, #52]	; 0x34
 80025c2:	63e7      	str	r7, [r4, #60]	; 0x3c
 80025c4:	4620      	mov	r0, r4
 80025c6:	f7ff ffd7 	bl	8002578 <MCP_WaitNextFrame>
 80025ca:	b003      	add	sp, #12
 80025cc:	bdf0      	pop	{r4, r5, r6, r7, pc}
 80025ce:	bf00      	nop
 80025d0:	080025dd 	.word	0x080025dd
 80025d4:	08001f11 	.word	0x08001f11
 80025d8:	080025e5 	.word	0x080025e5

080025dc <MCP_OnTimeOut>:
 80025dc:	b508      	push	{r3, lr}
 80025de:	f7ff ffcb 	bl	8002578 <MCP_WaitNextFrame>
 80025e2:	bd08      	pop	{r3, pc}

080025e4 <MCP_SentFrame>:
 80025e4:	b508      	push	{r3, lr}
 80025e6:	f7ff ffc7 	bl	8002578 <MCP_WaitNextFrame>
 80025ea:	bd08      	pop	{r3, pc}

080025ec <MX_MotorControl_Init>:
 80025ec:	b530      	push	{r4, r5, lr}
 80025ee:	b083      	sub	sp, #12
 80025f0:	f003 f982 	bl	80058f8 <HAL_RCC_GetHCLKFreq>
 80025f4:	4b0b      	ldr	r3, [pc, #44]	; (8002624 <MX_MotorControl_Init+0x38>)
 80025f6:	4d0c      	ldr	r5, [pc, #48]	; (8002628 <MX_MotorControl_Init+0x3c>)
 80025f8:	4c0c      	ldr	r4, [pc, #48]	; (800262c <MX_MotorControl_Init+0x40>)
 80025fa:	fba3 3000 	umull	r3, r0, r3, r0
 80025fe:	09c0      	lsrs	r0, r0, #7
 8002600:	f002 fa76 	bl	8004af0 <HAL_SYSTICK_Config>
 8002604:	4629      	mov	r1, r5
 8002606:	4620      	mov	r0, r4
 8002608:	f7fe ffdc 	bl	80015c4 <MCboot>
 800260c:	f7ff fbca 	bl	8001da4 <mc_lock_pins>
 8002610:	4b07      	ldr	r3, [pc, #28]	; (8002630 <MX_MotorControl_Init+0x44>)
 8002612:	9300      	str	r3, [sp, #0]
 8002614:	4622      	mov	r2, r4
 8002616:	462b      	mov	r3, r5
 8002618:	2101      	movs	r1, #1
 800261a:	4806      	ldr	r0, [pc, #24]	; (8002634 <MX_MotorControl_Init+0x48>)
 800261c:	f000 fc9e 	bl	8002f5c <UI_TaskInit>
 8002620:	b003      	add	sp, #12
 8002622:	bd30      	pop	{r4, r5, pc}
 8002624:	10624dd3 	.word	0x10624dd3
 8002628:	20000ba4 	.word	0x20000ba4
 800262c:	20000ba0 	.word	0x20000ba0
 8002630:	08009d90 	.word	0x08009d90
 8002634:	20000730 	.word	0x20000730

08002638 <RCM_RegisterRegConv>:
 8002638:	4a5c      	ldr	r2, [pc, #368]	; (80027ac <RCM_RegisterRegConv+0x174>)
 800263a:	6811      	ldr	r1, [r2, #0]
 800263c:	b470      	push	{r4, r5, r6}
 800263e:	2900      	cmp	r1, #0
 8002640:	d076      	beq.n	8002730 <RCM_RegisterRegConv+0xf8>
 8002642:	7904      	ldrb	r4, [r0, #4]
 8002644:	790b      	ldrb	r3, [r1, #4]
 8002646:	429c      	cmp	r4, r3
 8002648:	d01e      	beq.n	8002688 <RCM_RegisterRegConv+0x50>
 800264a:	6853      	ldr	r3, [r2, #4]
 800264c:	2b00      	cmp	r3, #0
 800264e:	f000 8082 	beq.w	8002756 <RCM_RegisterRegConv+0x11e>
 8002652:	791d      	ldrb	r5, [r3, #4]
 8002654:	42a5      	cmp	r5, r4
 8002656:	f04f 01ff 	mov.w	r1, #255	; 0xff
 800265a:	d070      	beq.n	800273e <RCM_RegisterRegConv+0x106>
 800265c:	6895      	ldr	r5, [r2, #8]
 800265e:	2d00      	cmp	r5, #0
 8002660:	f000 8095 	beq.w	800278e <RCM_RegisterRegConv+0x156>
 8002664:	792b      	ldrb	r3, [r5, #4]
 8002666:	42a3      	cmp	r3, r4
 8002668:	d06f      	beq.n	800274a <RCM_RegisterRegConv+0x112>
 800266a:	68d3      	ldr	r3, [r2, #12]
 800266c:	2b00      	cmp	r3, #0
 800266e:	f000 8089 	beq.w	8002784 <RCM_RegisterRegConv+0x14c>
 8002672:	791d      	ldrb	r5, [r3, #4]
 8002674:	42a5      	cmp	r5, r4
 8002676:	d078      	beq.n	800276a <RCM_RegisterRegConv+0x132>
 8002678:	2903      	cmp	r1, #3
 800267a:	bf88      	it	hi
 800267c:	21ff      	movhi	r1, #255	; 0xff
 800267e:	f240 808b 	bls.w	8002798 <RCM_RegisterRegConv+0x160>
 8002682:	4608      	mov	r0, r1
 8002684:	bc70      	pop	{r4, r5, r6}
 8002686:	4770      	bx	lr
 8002688:	6809      	ldr	r1, [r1, #0]
 800268a:	6803      	ldr	r3, [r0, #0]
 800268c:	428b      	cmp	r3, r1
 800268e:	d1dc      	bne.n	800264a <RCM_RegisterRegConv+0x12>
 8002690:	2100      	movs	r1, #0
 8002692:	689c      	ldr	r4, [r3, #8]
 8002694:	4d46      	ldr	r5, [pc, #280]	; (80027b0 <RCM_RegisterRegConv+0x178>)
 8002696:	f842 0021 	str.w	r0, [r2, r1, lsl #2]
 800269a:	2200      	movs	r2, #0
 800269c:	f845 2031 	str.w	r2, [r5, r1, lsl #3]
 80026a0:	07e5      	lsls	r5, r4, #31
 80026a2:	d422      	bmi.n	80026ea <RCM_RegisterRegConv+0xb2>
 80026a4:	685a      	ldr	r2, [r3, #4]
 80026a6:	2404      	movs	r4, #4
 80026a8:	f022 0204 	bic.w	r2, r2, #4
 80026ac:	605a      	str	r2, [r3, #4]
 80026ae:	601c      	str	r4, [r3, #0]
 80026b0:	685a      	ldr	r2, [r3, #4]
 80026b2:	2420      	movs	r4, #32
 80026b4:	f022 0220 	bic.w	r2, r2, #32
 80026b8:	605a      	str	r2, [r3, #4]
 80026ba:	601c      	str	r4, [r3, #0]
 80026bc:	689a      	ldr	r2, [r3, #8]
 80026be:	f022 4240 	bic.w	r2, r2, #3221225472	; 0xc0000000
 80026c2:	f022 023f 	bic.w	r2, r2, #63	; 0x3f
 80026c6:	f042 4200 	orr.w	r2, r2, #2147483648	; 0x80000000
 80026ca:	609a      	str	r2, [r3, #8]
 80026cc:	689a      	ldr	r2, [r3, #8]
 80026ce:	2a00      	cmp	r2, #0
 80026d0:	dbfc      	blt.n	80026cc <RCM_RegisterRegConv+0x94>
 80026d2:	681a      	ldr	r2, [r3, #0]
 80026d4:	07d4      	lsls	r4, r2, #31
 80026d6:	d408      	bmi.n	80026ea <RCM_RegisterRegConv+0xb2>
 80026d8:	4c36      	ldr	r4, [pc, #216]	; (80027b4 <RCM_RegisterRegConv+0x17c>)
 80026da:	689a      	ldr	r2, [r3, #8]
 80026dc:	4022      	ands	r2, r4
 80026de:	f042 0201 	orr.w	r2, r2, #1
 80026e2:	609a      	str	r2, [r3, #8]
 80026e4:	681a      	ldr	r2, [r3, #0]
 80026e6:	07d2      	lsls	r2, r2, #31
 80026e8:	d5f7      	bpl.n	80026da <RCM_RegisterRegConv+0xa2>
 80026ea:	6b1a      	ldr	r2, [r3, #48]	; 0x30
 80026ec:	f022 020f 	bic.w	r2, r2, #15
 80026f0:	631a      	str	r2, [r3, #48]	; 0x30
 80026f2:	7904      	ldrb	r4, [r0, #4]
 80026f4:	2201      	movs	r2, #1
 80026f6:	2c09      	cmp	r4, #9
 80026f8:	ea4f 6684 	mov.w	r6, r4, lsl #26
 80026fc:	fa02 f204 	lsl.w	r2, r2, r4
 8002700:	eb04 0544 	add.w	r5, r4, r4, lsl #1
 8002704:	d837      	bhi.n	8002776 <RCM_RegisterRegConv+0x13e>
 8002706:	ea46 5505 	orr.w	r5, r6, r5, lsl #20
 800270a:	432a      	orrs	r2, r5
 800270c:	0dd4      	lsrs	r4, r2, #23
 800270e:	f004 0404 	and.w	r4, r4, #4
 8002712:	3314      	adds	r3, #20
 8002714:	6885      	ldr	r5, [r0, #8]
 8002716:	58e0      	ldr	r0, [r4, r3]
 8002718:	f3c2 5204 	ubfx	r2, r2, #20, #5
 800271c:	2607      	movs	r6, #7
 800271e:	4096      	lsls	r6, r2
 8002720:	4095      	lsls	r5, r2
 8002722:	ea20 0206 	bic.w	r2, r0, r6
 8002726:	432a      	orrs	r2, r5
 8002728:	50e2      	str	r2, [r4, r3]
 800272a:	4608      	mov	r0, r1
 800272c:	bc70      	pop	{r4, r5, r6}
 800272e:	4770      	bx	lr
 8002730:	6853      	ldr	r3, [r2, #4]
 8002732:	2b00      	cmp	r3, #0
 8002734:	d032      	beq.n	800279c <RCM_RegisterRegConv+0x164>
 8002736:	7904      	ldrb	r4, [r0, #4]
 8002738:	791d      	ldrb	r5, [r3, #4]
 800273a:	42a5      	cmp	r5, r4
 800273c:	d18e      	bne.n	800265c <RCM_RegisterRegConv+0x24>
 800273e:	681d      	ldr	r5, [r3, #0]
 8002740:	6803      	ldr	r3, [r0, #0]
 8002742:	42ab      	cmp	r3, r5
 8002744:	d18a      	bne.n	800265c <RCM_RegisterRegConv+0x24>
 8002746:	2101      	movs	r1, #1
 8002748:	e7a3      	b.n	8002692 <RCM_RegisterRegConv+0x5a>
 800274a:	682d      	ldr	r5, [r5, #0]
 800274c:	6803      	ldr	r3, [r0, #0]
 800274e:	429d      	cmp	r5, r3
 8002750:	d18b      	bne.n	800266a <RCM_RegisterRegConv+0x32>
 8002752:	2102      	movs	r1, #2
 8002754:	e79d      	b.n	8002692 <RCM_RegisterRegConv+0x5a>
 8002756:	6895      	ldr	r5, [r2, #8]
 8002758:	2101      	movs	r1, #1
 800275a:	2d00      	cmp	r5, #0
 800275c:	d182      	bne.n	8002664 <RCM_RegisterRegConv+0x2c>
 800275e:	68d3      	ldr	r3, [r2, #12]
 8002760:	b1d3      	cbz	r3, 8002798 <RCM_RegisterRegConv+0x160>
 8002762:	7904      	ldrb	r4, [r0, #4]
 8002764:	791d      	ldrb	r5, [r3, #4]
 8002766:	42a5      	cmp	r5, r4
 8002768:	d186      	bne.n	8002678 <RCM_RegisterRegConv+0x40>
 800276a:	681c      	ldr	r4, [r3, #0]
 800276c:	6803      	ldr	r3, [r0, #0]
 800276e:	429c      	cmp	r4, r3
 8002770:	d182      	bne.n	8002678 <RCM_RegisterRegConv+0x40>
 8002772:	2103      	movs	r1, #3
 8002774:	e78d      	b.n	8002692 <RCM_RegisterRegConv+0x5a>
 8002776:	f042 7200 	orr.w	r2, r2, #33554432	; 0x2000000
 800277a:	4332      	orrs	r2, r6
 800277c:	3d1e      	subs	r5, #30
 800277e:	ea42 5205 	orr.w	r2, r2, r5, lsl #20
 8002782:	e7c3      	b.n	800270c <RCM_RegisterRegConv+0xd4>
 8002784:	2904      	cmp	r1, #4
 8002786:	f67f af77 	bls.w	8002678 <RCM_RegisterRegConv+0x40>
 800278a:	6803      	ldr	r3, [r0, #0]
 800278c:	e7f1      	b.n	8002772 <RCM_RegisterRegConv+0x13a>
 800278e:	2904      	cmp	r1, #4
 8002790:	bf8c      	ite	hi
 8002792:	2102      	movhi	r1, #2
 8002794:	2100      	movls	r1, #0
 8002796:	e7e2      	b.n	800275e <RCM_RegisterRegConv+0x126>
 8002798:	6803      	ldr	r3, [r0, #0]
 800279a:	e77a      	b.n	8002692 <RCM_RegisterRegConv+0x5a>
 800279c:	6895      	ldr	r5, [r2, #8]
 800279e:	b115      	cbz	r5, 80027a6 <RCM_RegisterRegConv+0x16e>
 80027a0:	4619      	mov	r1, r3
 80027a2:	7904      	ldrb	r4, [r0, #4]
 80027a4:	e75e      	b.n	8002664 <RCM_RegisterRegConv+0x2c>
 80027a6:	4629      	mov	r1, r5
 80027a8:	e7d9      	b.n	800275e <RCM_RegisterRegConv+0x126>
 80027aa:	bf00      	nop
 80027ac:	20000bd0 	.word	0x20000bd0
 80027b0:	20000bac 	.word	0x20000bac
 80027b4:	7fffffc0 	.word	0x7fffffc0

080027b8 <RCM_ExecRegularConv>:
 80027b8:	b410      	push	{r4}
 80027ba:	4b19      	ldr	r3, [pc, #100]	; (8002820 <RCM_ExecRegularConv+0x68>)
 80027bc:	f853 3020 	ldr.w	r3, [r3, r0, lsl #2]
 80027c0:	7919      	ldrb	r1, [r3, #4]
 80027c2:	681a      	ldr	r2, [r3, #0]
 80027c4:	2909      	cmp	r1, #9
 80027c6:	f04f 0301 	mov.w	r3, #1
 80027ca:	ea4f 6481 	mov.w	r4, r1, lsl #26
 80027ce:	fa03 f301 	lsl.w	r3, r3, r1
 80027d2:	eb01 0041 	add.w	r0, r1, r1, lsl #1
 80027d6:	d81b      	bhi.n	8002810 <RCM_ExecRegularConv+0x58>
 80027d8:	ea44 5000 	orr.w	r0, r4, r0, lsl #20
 80027dc:	4303      	orrs	r3, r0
 80027de:	6b11      	ldr	r1, [r2, #48]	; 0x30
 80027e0:	0d1b      	lsrs	r3, r3, #20
 80027e2:	f403 63f8 	and.w	r3, r3, #1984	; 0x7c0
 80027e6:	f421 61f8 	bic.w	r1, r1, #1984	; 0x7c0
 80027ea:	430b      	orrs	r3, r1
 80027ec:	6313      	str	r3, [r2, #48]	; 0x30
 80027ee:	6c13      	ldr	r3, [r2, #64]	; 0x40
 80027f0:	6893      	ldr	r3, [r2, #8]
 80027f2:	f023 4300 	bic.w	r3, r3, #2147483648	; 0x80000000
 80027f6:	f023 033f 	bic.w	r3, r3, #63	; 0x3f
 80027fa:	f043 0304 	orr.w	r3, r3, #4
 80027fe:	6093      	str	r3, [r2, #8]
 8002800:	6813      	ldr	r3, [r2, #0]
 8002802:	075b      	lsls	r3, r3, #29
 8002804:	d5fc      	bpl.n	8002800 <RCM_ExecRegularConv+0x48>
 8002806:	6c10      	ldr	r0, [r2, #64]	; 0x40
 8002808:	f85d 4b04 	ldr.w	r4, [sp], #4
 800280c:	b280      	uxth	r0, r0
 800280e:	4770      	bx	lr
 8002810:	f043 7300 	orr.w	r3, r3, #33554432	; 0x2000000
 8002814:	4323      	orrs	r3, r4
 8002816:	381e      	subs	r0, #30
 8002818:	ea43 5300 	orr.w	r3, r3, r0, lsl #20
 800281c:	e7df      	b.n	80027de <RCM_ExecRegularConv+0x26>
 800281e:	bf00      	nop
 8002820:	20000bd0 	.word	0x20000bd0

08002824 <RCM_ExecUserConv>:
 8002824:	b470      	push	{r4, r5, r6}
 8002826:	4c23      	ldr	r4, [pc, #140]	; (80028b4 <RCM_ExecUserConv+0x90>)
 8002828:	7823      	ldrb	r3, [r4, #0]
 800282a:	2b01      	cmp	r3, #1
 800282c:	d001      	beq.n	8002832 <RCM_ExecUserConv+0xe>
 800282e:	bc70      	pop	{r4, r5, r6}
 8002830:	4770      	bx	lr
 8002832:	4921      	ldr	r1, [pc, #132]	; (80028b8 <RCM_ExecUserConv+0x94>)
 8002834:	4a21      	ldr	r2, [pc, #132]	; (80028bc <RCM_ExecUserConv+0x98>)
 8002836:	7808      	ldrb	r0, [r1, #0]
 8002838:	f852 2020 	ldr.w	r2, [r2, r0, lsl #2]
 800283c:	7911      	ldrb	r1, [r2, #4]
 800283e:	6812      	ldr	r2, [r2, #0]
 8002840:	2909      	cmp	r1, #9
 8002842:	fa03 f301 	lsl.w	r3, r3, r1
 8002846:	ea4f 6681 	mov.w	r6, r1, lsl #26
 800284a:	eb01 0541 	add.w	r5, r1, r1, lsl #1
 800284e:	d92c      	bls.n	80028aa <RCM_ExecUserConv+0x86>
 8002850:	f043 7300 	orr.w	r3, r3, #33554432	; 0x2000000
 8002854:	4333      	orrs	r3, r6
 8002856:	3d1e      	subs	r5, #30
 8002858:	ea43 5305 	orr.w	r3, r3, r5, lsl #20
 800285c:	6b11      	ldr	r1, [r2, #48]	; 0x30
 800285e:	0d1b      	lsrs	r3, r3, #20
 8002860:	f403 63f8 	and.w	r3, r3, #1984	; 0x7c0
 8002864:	f421 61f8 	bic.w	r1, r1, #1984	; 0x7c0
 8002868:	430b      	orrs	r3, r1
 800286a:	6313      	str	r3, [r2, #48]	; 0x30
 800286c:	6c13      	ldr	r3, [r2, #64]	; 0x40
 800286e:	6893      	ldr	r3, [r2, #8]
 8002870:	f023 4300 	bic.w	r3, r3, #2147483648	; 0x80000000
 8002874:	f023 033f 	bic.w	r3, r3, #63	; 0x3f
 8002878:	f043 0304 	orr.w	r3, r3, #4
 800287c:	6093      	str	r3, [r2, #8]
 800287e:	6813      	ldr	r3, [r2, #0]
 8002880:	075b      	lsls	r3, r3, #29
 8002882:	d5fc      	bpl.n	800287e <RCM_ExecUserConv+0x5a>
 8002884:	4b0e      	ldr	r3, [pc, #56]	; (80028c0 <RCM_ExecUserConv+0x9c>)
 8002886:	6c11      	ldr	r1, [r2, #64]	; 0x40
 8002888:	4e0e      	ldr	r6, [pc, #56]	; (80028c4 <RCM_ExecUserConv+0xa0>)
 800288a:	f853 5030 	ldr.w	r5, [r3, r0, lsl #3]
 800288e:	b289      	uxth	r1, r1
 8002890:	2202      	movs	r2, #2
 8002892:	8031      	strh	r1, [r6, #0]
 8002894:	7022      	strb	r2, [r4, #0]
 8002896:	2d00      	cmp	r5, #0
 8002898:	d0c9      	beq.n	800282e <RCM_ExecUserConv+0xa>
 800289a:	eb03 03c0 	add.w	r3, r3, r0, lsl #3
 800289e:	2600      	movs	r6, #0
 80028a0:	685a      	ldr	r2, [r3, #4]
 80028a2:	7026      	strb	r6, [r4, #0]
 80028a4:	462b      	mov	r3, r5
 80028a6:	bc70      	pop	{r4, r5, r6}
 80028a8:	4718      	bx	r3
 80028aa:	ea46 5505 	orr.w	r5, r6, r5, lsl #20
 80028ae:	432b      	orrs	r3, r5
 80028b0:	e7d4      	b.n	800285c <RCM_ExecUserConv+0x38>
 80028b2:	bf00      	nop
 80028b4:	20000bcc 	.word	0x20000bcc
 80028b8:	20000ba8 	.word	0x20000ba8
 80028bc:	20000bd0 	.word	0x20000bd0
 80028c0:	20000bac 	.word	0x20000bac
 80028c4:	20000be0 	.word	0x20000be0

080028c8 <HAL_MspInit>:
 80028c8:	4b0f      	ldr	r3, [pc, #60]	; (8002908 <HAL_MspInit+0x40>)
 80028ca:	b500      	push	{lr}
 80028cc:	6e1a      	ldr	r2, [r3, #96]	; 0x60
 80028ce:	f042 0201 	orr.w	r2, r2, #1
 80028d2:	661a      	str	r2, [r3, #96]	; 0x60
 80028d4:	6e1a      	ldr	r2, [r3, #96]	; 0x60
 80028d6:	b083      	sub	sp, #12
 80028d8:	f002 0201 	and.w	r2, r2, #1
 80028dc:	9200      	str	r2, [sp, #0]
 80028de:	9a00      	ldr	r2, [sp, #0]
 80028e0:	6d9a      	ldr	r2, [r3, #88]	; 0x58
 80028e2:	f042 5280 	orr.w	r2, r2, #268435456	; 0x10000000
 80028e6:	659a      	str	r2, [r3, #88]	; 0x58
 80028e8:	6d9b      	ldr	r3, [r3, #88]	; 0x58
 80028ea:	f003 5380 	and.w	r3, r3, #268435456	; 0x10000000
 80028ee:	9301      	str	r3, [sp, #4]
 80028f0:	2004      	movs	r0, #4
 80028f2:	9b01      	ldr	r3, [sp, #4]
 80028f4:	f002 f8a6 	bl	8004a44 <HAL_NVIC_SetPriorityGrouping>
 80028f8:	4a04      	ldr	r2, [pc, #16]	; (800290c <HAL_MspInit+0x44>)
 80028fa:	6893      	ldr	r3, [r2, #8]
 80028fc:	f423 4380 	bic.w	r3, r3, #16384	; 0x4000
 8002900:	6093      	str	r3, [r2, #8]
 8002902:	b003      	add	sp, #12
 8002904:	f85d fb04 	ldr.w	pc, [sp], #4
 8002908:	40021000 	.word	0x40021000
 800290c:	40007000 	.word	0x40007000

08002910 <HAL_ADC_MspInit>:
 8002910:	b510      	push	{r4, lr}
 8002912:	6802      	ldr	r2, [r0, #0]
 8002914:	b08a      	sub	sp, #40	; 0x28
 8002916:	2300      	movs	r3, #0
 8002918:	f1b2 4fa0 	cmp.w	r2, #1342177280	; 0x50000000
 800291c:	e9cd 3305 	strd	r3, r3, [sp, #20]
 8002920:	e9cd 3307 	strd	r3, r3, [sp, #28]
 8002924:	9309      	str	r3, [sp, #36]	; 0x24
 8002926:	d01f      	beq.n	8002968 <HAL_ADC_MspInit+0x58>
 8002928:	4b31      	ldr	r3, [pc, #196]	; (80029f0 <HAL_ADC_MspInit+0xe0>)
 800292a:	429a      	cmp	r2, r3
 800292c:	d001      	beq.n	8002932 <HAL_ADC_MspInit+0x22>
 800292e:	b00a      	add	sp, #40	; 0x28
 8002930:	bd10      	pop	{r4, pc}
 8002932:	4a30      	ldr	r2, [pc, #192]	; (80029f4 <HAL_ADC_MspInit+0xe4>)
 8002934:	6813      	ldr	r3, [r2, #0]
 8002936:	3301      	adds	r3, #1
 8002938:	2b01      	cmp	r3, #1
 800293a:	6013      	str	r3, [r2, #0]
 800293c:	d04d      	beq.n	80029da <HAL_ADC_MspInit+0xca>
 800293e:	4b2e      	ldr	r3, [pc, #184]	; (80029f8 <HAL_ADC_MspInit+0xe8>)
 8002940:	6cda      	ldr	r2, [r3, #76]	; 0x4c
 8002942:	f042 0201 	orr.w	r2, r2, #1
 8002946:	64da      	str	r2, [r3, #76]	; 0x4c
 8002948:	6cdb      	ldr	r3, [r3, #76]	; 0x4c
 800294a:	f003 0301 	and.w	r3, r3, #1
 800294e:	9304      	str	r3, [sp, #16]
 8002950:	2240      	movs	r2, #64	; 0x40
 8002952:	2303      	movs	r3, #3
 8002954:	a905      	add	r1, sp, #20
 8002956:	f04f 4090 	mov.w	r0, #1207959552	; 0x48000000
 800295a:	9c04      	ldr	r4, [sp, #16]
 800295c:	e9cd 2305 	strd	r2, r3, [sp, #20]
 8002960:	f002 f9e4 	bl	8004d2c <HAL_GPIO_Init>
 8002964:	b00a      	add	sp, #40	; 0x28
 8002966:	bd10      	pop	{r4, pc}
 8002968:	4a22      	ldr	r2, [pc, #136]	; (80029f4 <HAL_ADC_MspInit+0xe4>)
 800296a:	6813      	ldr	r3, [r2, #0]
 800296c:	3301      	adds	r3, #1
 800296e:	2b01      	cmp	r3, #1
 8002970:	6013      	str	r3, [r2, #0]
 8002972:	d027      	beq.n	80029c4 <HAL_ADC_MspInit+0xb4>
 8002974:	4b20      	ldr	r3, [pc, #128]	; (80029f8 <HAL_ADC_MspInit+0xe8>)
 8002976:	6cda      	ldr	r2, [r3, #76]	; 0x4c
 8002978:	f042 0201 	orr.w	r2, r2, #1
 800297c:	64da      	str	r2, [r3, #76]	; 0x4c
 800297e:	6cda      	ldr	r2, [r3, #76]	; 0x4c
 8002980:	f002 0201 	and.w	r2, r2, #1
 8002984:	9201      	str	r2, [sp, #4]
 8002986:	9a01      	ldr	r2, [sp, #4]
 8002988:	6cda      	ldr	r2, [r3, #76]	; 0x4c
 800298a:	f042 0202 	orr.w	r2, r2, #2
 800298e:	64da      	str	r2, [r3, #76]	; 0x4c
 8002990:	6cdb      	ldr	r3, [r3, #76]	; 0x4c
 8002992:	f003 0302 	and.w	r3, r3, #2
 8002996:	9302      	str	r3, [sp, #8]
 8002998:	2403      	movs	r4, #3
 800299a:	2305      	movs	r3, #5
 800299c:	a905      	add	r1, sp, #20
 800299e:	f04f 4090 	mov.w	r0, #1207959552	; 0x48000000
 80029a2:	9a02      	ldr	r2, [sp, #8]
 80029a4:	e9cd 3405 	strd	r3, r4, [sp, #20]
 80029a8:	f002 f9c0 	bl	8004d2c <HAL_GPIO_Init>
 80029ac:	f244 0202 	movw	r2, #16386	; 0x4002
 80029b0:	2300      	movs	r3, #0
 80029b2:	a905      	add	r1, sp, #20
 80029b4:	4811      	ldr	r0, [pc, #68]	; (80029fc <HAL_ADC_MspInit+0xec>)
 80029b6:	9307      	str	r3, [sp, #28]
 80029b8:	e9cd 2405 	strd	r2, r4, [sp, #20]
 80029bc:	f002 f9b6 	bl	8004d2c <HAL_GPIO_Init>
 80029c0:	b00a      	add	sp, #40	; 0x28
 80029c2:	bd10      	pop	{r4, pc}
 80029c4:	4b0c      	ldr	r3, [pc, #48]	; (80029f8 <HAL_ADC_MspInit+0xe8>)
 80029c6:	6cda      	ldr	r2, [r3, #76]	; 0x4c
 80029c8:	f442 5200 	orr.w	r2, r2, #8192	; 0x2000
 80029cc:	64da      	str	r2, [r3, #76]	; 0x4c
 80029ce:	6cdb      	ldr	r3, [r3, #76]	; 0x4c
 80029d0:	f403 5300 	and.w	r3, r3, #8192	; 0x2000
 80029d4:	9300      	str	r3, [sp, #0]
 80029d6:	9b00      	ldr	r3, [sp, #0]
 80029d8:	e7cc      	b.n	8002974 <HAL_ADC_MspInit+0x64>
 80029da:	4b07      	ldr	r3, [pc, #28]	; (80029f8 <HAL_ADC_MspInit+0xe8>)
 80029dc:	6cda      	ldr	r2, [r3, #76]	; 0x4c
 80029de:	f442 5200 	orr.w	r2, r2, #8192	; 0x2000
 80029e2:	64da      	str	r2, [r3, #76]	; 0x4c
 80029e4:	6cdb      	ldr	r3, [r3, #76]	; 0x4c
 80029e6:	f403 5300 	and.w	r3, r3, #8192	; 0x2000
 80029ea:	9303      	str	r3, [sp, #12]
 80029ec:	9b03      	ldr	r3, [sp, #12]
 80029ee:	e7a6      	b.n	800293e <HAL_ADC_MspInit+0x2e>
 80029f0:	50000100 	.word	0x50000100
 80029f4:	20000770 	.word	0x20000770
 80029f8:	40021000 	.word	0x40021000
 80029fc:	48000400 	.word	0x48000400

08002a00 <HAL_COMP_MspInit>:
 8002a00:	b510      	push	{r4, lr}
 8002a02:	6802      	ldr	r2, [r0, #0]
 8002a04:	492c      	ldr	r1, [pc, #176]	; (8002ab8 <HAL_COMP_MspInit+0xb8>)
 8002a06:	b088      	sub	sp, #32
 8002a08:	2300      	movs	r3, #0
 8002a0a:	428a      	cmp	r2, r1
 8002a0c:	e9cd 3303 	strd	r3, r3, [sp, #12]
 8002a10:	e9cd 3305 	strd	r3, r3, [sp, #20]
 8002a14:	9307      	str	r3, [sp, #28]
 8002a16:	d007      	beq.n	8002a28 <HAL_COMP_MspInit+0x28>
 8002a18:	4b28      	ldr	r3, [pc, #160]	; (8002abc <HAL_COMP_MspInit+0xbc>)
 8002a1a:	429a      	cmp	r2, r3
 8002a1c:	d033      	beq.n	8002a86 <HAL_COMP_MspInit+0x86>
 8002a1e:	4b28      	ldr	r3, [pc, #160]	; (8002ac0 <HAL_COMP_MspInit+0xc0>)
 8002a20:	429a      	cmp	r2, r3
 8002a22:	d019      	beq.n	8002a58 <HAL_COMP_MspInit+0x58>
 8002a24:	b008      	add	sp, #32
 8002a26:	bd10      	pop	{r4, pc}
 8002a28:	f103 4380 	add.w	r3, r3, #1073741824	; 0x40000000
 8002a2c:	f503 3304 	add.w	r3, r3, #135168	; 0x21000
 8002a30:	a903      	add	r1, sp, #12
 8002a32:	6cda      	ldr	r2, [r3, #76]	; 0x4c
 8002a34:	f042 0201 	orr.w	r2, r2, #1
 8002a38:	64da      	str	r2, [r3, #76]	; 0x4c
 8002a3a:	6cdb      	ldr	r3, [r3, #76]	; 0x4c
 8002a3c:	f003 0301 	and.w	r3, r3, #1
 8002a40:	9300      	str	r3, [sp, #0]
 8002a42:	2202      	movs	r2, #2
 8002a44:	2303      	movs	r3, #3
 8002a46:	f04f 4090 	mov.w	r0, #1207959552	; 0x48000000
 8002a4a:	9c00      	ldr	r4, [sp, #0]
 8002a4c:	e9cd 2303 	strd	r2, r3, [sp, #12]
 8002a50:	f002 f96c 	bl	8004d2c <HAL_GPIO_Init>
 8002a54:	b008      	add	sp, #32
 8002a56:	bd10      	pop	{r4, pc}
 8002a58:	f503 3386 	add.w	r3, r3, #68608	; 0x10c00
 8002a5c:	f503 73fa 	add.w	r3, r3, #500	; 0x1f4
 8002a60:	6cda      	ldr	r2, [r3, #76]	; 0x4c
 8002a62:	4818      	ldr	r0, [pc, #96]	; (8002ac4 <HAL_COMP_MspInit+0xc4>)
 8002a64:	f042 0202 	orr.w	r2, r2, #2
 8002a68:	64da      	str	r2, [r3, #76]	; 0x4c
 8002a6a:	6cdb      	ldr	r3, [r3, #76]	; 0x4c
 8002a6c:	f003 0302 	and.w	r3, r3, #2
 8002a70:	9302      	str	r3, [sp, #8]
 8002a72:	2201      	movs	r2, #1
 8002a74:	2303      	movs	r3, #3
 8002a76:	a903      	add	r1, sp, #12
 8002a78:	9c02      	ldr	r4, [sp, #8]
 8002a7a:	e9cd 2303 	strd	r2, r3, [sp, #12]
 8002a7e:	f002 f955 	bl	8004d2c <HAL_GPIO_Init>
 8002a82:	b008      	add	sp, #32
 8002a84:	bd10      	pop	{r4, pc}
 8002a86:	f503 3386 	add.w	r3, r3, #68608	; 0x10c00
 8002a8a:	f503 73fe 	add.w	r3, r3, #508	; 0x1fc
 8002a8e:	6cda      	ldr	r2, [r3, #76]	; 0x4c
 8002a90:	f042 0201 	orr.w	r2, r2, #1
 8002a94:	64da      	str	r2, [r3, #76]	; 0x4c
 8002a96:	6cdb      	ldr	r3, [r3, #76]	; 0x4c
 8002a98:	f003 0301 	and.w	r3, r3, #1
 8002a9c:	9301      	str	r3, [sp, #4]
 8002a9e:	2280      	movs	r2, #128	; 0x80
 8002aa0:	2303      	movs	r3, #3
 8002aa2:	a903      	add	r1, sp, #12
 8002aa4:	f04f 4090 	mov.w	r0, #1207959552	; 0x48000000
 8002aa8:	9c01      	ldr	r4, [sp, #4]
 8002aaa:	e9cd 2303 	strd	r2, r3, [sp, #12]
 8002aae:	f002 f93d 	bl	8004d2c <HAL_GPIO_Init>
 8002ab2:	b008      	add	sp, #32
 8002ab4:	bd10      	pop	{r4, pc}
 8002ab6:	bf00      	nop
 8002ab8:	40010200 	.word	0x40010200
 8002abc:	40010204 	.word	0x40010204
 8002ac0:	4001020c 	.word	0x4001020c
 8002ac4:	48000400 	.word	0x48000400

08002ac8 <HAL_CORDIC_MspInit>:
 8002ac8:	6802      	ldr	r2, [r0, #0]
 8002aca:	4b0a      	ldr	r3, [pc, #40]	; (8002af4 <HAL_CORDIC_MspInit+0x2c>)
 8002acc:	429a      	cmp	r2, r3
 8002ace:	d000      	beq.n	8002ad2 <HAL_CORDIC_MspInit+0xa>
 8002ad0:	4770      	bx	lr
 8002ad2:	f8d3 2448 	ldr.w	r2, [r3, #1096]	; 0x448
 8002ad6:	f042 0208 	orr.w	r2, r2, #8
 8002ada:	f8c3 2448 	str.w	r2, [r3, #1096]	; 0x448
 8002ade:	f503 6380 	add.w	r3, r3, #1024	; 0x400
 8002ae2:	b082      	sub	sp, #8
 8002ae4:	6c9b      	ldr	r3, [r3, #72]	; 0x48
 8002ae6:	f003 0308 	and.w	r3, r3, #8
 8002aea:	9301      	str	r3, [sp, #4]
 8002aec:	9b01      	ldr	r3, [sp, #4]
 8002aee:	b002      	add	sp, #8
 8002af0:	4770      	bx	lr
 8002af2:	bf00      	nop
 8002af4:	40020c00 	.word	0x40020c00

08002af8 <HAL_DAC_MspInit>:
 8002af8:	b510      	push	{r4, lr}
 8002afa:	6801      	ldr	r1, [r0, #0]
 8002afc:	4a16      	ldr	r2, [pc, #88]	; (8002b58 <HAL_DAC_MspInit+0x60>)
 8002afe:	b088      	sub	sp, #32
 8002b00:	2300      	movs	r3, #0
 8002b02:	4291      	cmp	r1, r2
 8002b04:	e9cd 3303 	strd	r3, r3, [sp, #12]
 8002b08:	e9cd 3305 	strd	r3, r3, [sp, #20]
 8002b0c:	9307      	str	r3, [sp, #28]
 8002b0e:	d001      	beq.n	8002b14 <HAL_DAC_MspInit+0x1c>
 8002b10:	b008      	add	sp, #32
 8002b12:	bd10      	pop	{r4, pc}
 8002b14:	f103 4380 	add.w	r3, r3, #1073741824	; 0x40000000
 8002b18:	f503 3304 	add.w	r3, r3, #135168	; 0x21000
 8002b1c:	a903      	add	r1, sp, #12
 8002b1e:	6cda      	ldr	r2, [r3, #76]	; 0x4c
 8002b20:	f442 3280 	orr.w	r2, r2, #65536	; 0x10000
 8002b24:	64da      	str	r2, [r3, #76]	; 0x4c
 8002b26:	6cda      	ldr	r2, [r3, #76]	; 0x4c
 8002b28:	f402 3280 	and.w	r2, r2, #65536	; 0x10000
 8002b2c:	9201      	str	r2, [sp, #4]
 8002b2e:	9a01      	ldr	r2, [sp, #4]
 8002b30:	6cda      	ldr	r2, [r3, #76]	; 0x4c
 8002b32:	f042 0201 	orr.w	r2, r2, #1
 8002b36:	64da      	str	r2, [r3, #76]	; 0x4c
 8002b38:	6cdb      	ldr	r3, [r3, #76]	; 0x4c
 8002b3a:	f003 0301 	and.w	r3, r3, #1
 8002b3e:	9302      	str	r3, [sp, #8]
 8002b40:	2210      	movs	r2, #16
 8002b42:	2303      	movs	r3, #3
 8002b44:	f04f 4090 	mov.w	r0, #1207959552	; 0x48000000
 8002b48:	9c02      	ldr	r4, [sp, #8]
 8002b4a:	e9cd 2303 	strd	r2, r3, [sp, #12]
 8002b4e:	f002 f8ed 	bl	8004d2c <HAL_GPIO_Init>
 8002b52:	b008      	add	sp, #32
 8002b54:	bd10      	pop	{r4, pc}
 8002b56:	bf00      	nop
 8002b58:	50000800 	.word	0x50000800

08002b5c <HAL_OPAMP_MspInit>:
 8002b5c:	b510      	push	{r4, lr}
 8002b5e:	6802      	ldr	r2, [r0, #0]
 8002b60:	492b      	ldr	r1, [pc, #172]	; (8002c10 <HAL_OPAMP_MspInit+0xb4>)
 8002b62:	b088      	sub	sp, #32
 8002b64:	2300      	movs	r3, #0
 8002b66:	428a      	cmp	r2, r1
 8002b68:	e9cd 3303 	strd	r3, r3, [sp, #12]
 8002b6c:	e9cd 3305 	strd	r3, r3, [sp, #20]
 8002b70:	9307      	str	r3, [sp, #28]
 8002b72:	d007      	beq.n	8002b84 <HAL_OPAMP_MspInit+0x28>
 8002b74:	4b27      	ldr	r3, [pc, #156]	; (8002c14 <HAL_OPAMP_MspInit+0xb8>)
 8002b76:	429a      	cmp	r2, r3
 8002b78:	d032      	beq.n	8002be0 <HAL_OPAMP_MspInit+0x84>
 8002b7a:	4b27      	ldr	r3, [pc, #156]	; (8002c18 <HAL_OPAMP_MspInit+0xbc>)
 8002b7c:	429a      	cmp	r2, r3
 8002b7e:	d019      	beq.n	8002bb4 <HAL_OPAMP_MspInit+0x58>
 8002b80:	b008      	add	sp, #32
 8002b82:	bd10      	pop	{r4, pc}
 8002b84:	f103 4380 	add.w	r3, r3, #1073741824	; 0x40000000
 8002b88:	f503 3304 	add.w	r3, r3, #135168	; 0x21000
 8002b8c:	a903      	add	r1, sp, #12
 8002b8e:	6cda      	ldr	r2, [r3, #76]	; 0x4c
 8002b90:	f042 0201 	orr.w	r2, r2, #1
 8002b94:	64da      	str	r2, [r3, #76]	; 0x4c
 8002b96:	6cdb      	ldr	r3, [r3, #76]	; 0x4c
 8002b98:	f003 0301 	and.w	r3, r3, #1
 8002b9c:	9300      	str	r3, [sp, #0]
 8002b9e:	220e      	movs	r2, #14
 8002ba0:	2303      	movs	r3, #3
 8002ba2:	f04f 4090 	mov.w	r0, #1207959552	; 0x48000000
 8002ba6:	9c00      	ldr	r4, [sp, #0]
 8002ba8:	e9cd 2303 	strd	r2, r3, [sp, #12]
 8002bac:	f002 f8be 	bl	8004d2c <HAL_GPIO_Init>
 8002bb0:	b008      	add	sp, #32
 8002bb2:	bd10      	pop	{r4, pc}
 8002bb4:	f503 3386 	add.w	r3, r3, #68608	; 0x10c00
 8002bb8:	33f8      	adds	r3, #248	; 0xf8
 8002bba:	6cda      	ldr	r2, [r3, #76]	; 0x4c
 8002bbc:	4817      	ldr	r0, [pc, #92]	; (8002c1c <HAL_OPAMP_MspInit+0xc0>)
 8002bbe:	f042 0202 	orr.w	r2, r2, #2
 8002bc2:	64da      	str	r2, [r3, #76]	; 0x4c
 8002bc4:	6cdb      	ldr	r3, [r3, #76]	; 0x4c
 8002bc6:	f003 0302 	and.w	r3, r3, #2
 8002bca:	9302      	str	r3, [sp, #8]
 8002bcc:	2207      	movs	r2, #7
 8002bce:	2303      	movs	r3, #3
 8002bd0:	a903      	add	r1, sp, #12
 8002bd2:	9c02      	ldr	r4, [sp, #8]
 8002bd4:	e9cd 2303 	strd	r2, r3, [sp, #12]
 8002bd8:	f002 f8a8 	bl	8004d2c <HAL_GPIO_Init>
 8002bdc:	b008      	add	sp, #32
 8002bde:	bd10      	pop	{r4, pc}
 8002be0:	f503 3386 	add.w	r3, r3, #68608	; 0x10c00
 8002be4:	33fc      	adds	r3, #252	; 0xfc
 8002be6:	6cda      	ldr	r2, [r3, #76]	; 0x4c
 8002be8:	f042 0201 	orr.w	r2, r2, #1
 8002bec:	64da      	str	r2, [r3, #76]	; 0x4c
 8002bee:	6cdb      	ldr	r3, [r3, #76]	; 0x4c
 8002bf0:	f003 0301 	and.w	r3, r3, #1
 8002bf4:	9301      	str	r3, [sp, #4]
 8002bf6:	22e0      	movs	r2, #224	; 0xe0
 8002bf8:	2303      	movs	r3, #3
 8002bfa:	a903      	add	r1, sp, #12
 8002bfc:	f04f 4090 	mov.w	r0, #1207959552	; 0x48000000
 8002c00:	9c01      	ldr	r4, [sp, #4]
 8002c02:	e9cd 2303 	strd	r2, r3, [sp, #12]
 8002c06:	f002 f891 	bl	8004d2c <HAL_GPIO_Init>
 8002c0a:	b008      	add	sp, #32
 8002c0c:	bd10      	pop	{r4, pc}
 8002c0e:	bf00      	nop
 8002c10:	40010300 	.word	0x40010300
 8002c14:	40010304 	.word	0x40010304
 8002c18:	40010308 	.word	0x40010308
 8002c1c:	48000400 	.word	0x48000400

08002c20 <HAL_TIM_Base_MspInit>:
 8002c20:	b530      	push	{r4, r5, lr}
 8002c22:	6802      	ldr	r2, [r0, #0]
 8002c24:	491f      	ldr	r1, [pc, #124]	; (8002ca4 <HAL_TIM_Base_MspInit+0x84>)
 8002c26:	b089      	sub	sp, #36	; 0x24
 8002c28:	2300      	movs	r3, #0
 8002c2a:	428a      	cmp	r2, r1
 8002c2c:	e9cd 3303 	strd	r3, r3, [sp, #12]
 8002c30:	e9cd 3305 	strd	r3, r3, [sp, #20]
 8002c34:	9307      	str	r3, [sp, #28]
 8002c36:	d004      	beq.n	8002c42 <HAL_TIM_Base_MspInit+0x22>
 8002c38:	f1b2 4f80 	cmp.w	r2, #1073741824	; 0x40000000
 8002c3c:	d010      	beq.n	8002c60 <HAL_TIM_Base_MspInit+0x40>
 8002c3e:	b009      	add	sp, #36	; 0x24
 8002c40:	bd30      	pop	{r4, r5, pc}
 8002c42:	f103 4380 	add.w	r3, r3, #1073741824	; 0x40000000
 8002c46:	f503 3304 	add.w	r3, r3, #135168	; 0x21000
 8002c4a:	6e1a      	ldr	r2, [r3, #96]	; 0x60
 8002c4c:	f442 6200 	orr.w	r2, r2, #2048	; 0x800
 8002c50:	661a      	str	r2, [r3, #96]	; 0x60
 8002c52:	6e1b      	ldr	r3, [r3, #96]	; 0x60
 8002c54:	f403 6300 	and.w	r3, r3, #2048	; 0x800
 8002c58:	9300      	str	r3, [sp, #0]
 8002c5a:	9b00      	ldr	r3, [sp, #0]
 8002c5c:	b009      	add	sp, #36	; 0x24
 8002c5e:	bd30      	pop	{r4, r5, pc}
 8002c60:	4b11      	ldr	r3, [pc, #68]	; (8002ca8 <HAL_TIM_Base_MspInit+0x88>)
 8002c62:	6d9a      	ldr	r2, [r3, #88]	; 0x58
 8002c64:	f042 0201 	orr.w	r2, r2, #1
 8002c68:	659a      	str	r2, [r3, #88]	; 0x58
 8002c6a:	6d9a      	ldr	r2, [r3, #88]	; 0x58
 8002c6c:	f002 0201 	and.w	r2, r2, #1
 8002c70:	9201      	str	r2, [sp, #4]
 8002c72:	9a01      	ldr	r2, [sp, #4]
 8002c74:	6cda      	ldr	r2, [r3, #76]	; 0x4c
 8002c76:	f042 0201 	orr.w	r2, r2, #1
 8002c7a:	64da      	str	r2, [r3, #76]	; 0x4c
 8002c7c:	6cdb      	ldr	r3, [r3, #76]	; 0x4c
 8002c7e:	f003 0301 	and.w	r3, r3, #1
 8002c82:	9302      	str	r3, [sp, #8]
 8002c84:	2201      	movs	r2, #1
 8002c86:	2302      	movs	r3, #2
 8002c88:	a903      	add	r1, sp, #12
 8002c8a:	f44f 4400 	mov.w	r4, #32768	; 0x8000
 8002c8e:	f04f 4090 	mov.w	r0, #1207959552	; 0x48000000
 8002c92:	9d02      	ldr	r5, [sp, #8]
 8002c94:	9305      	str	r3, [sp, #20]
 8002c96:	e9cd 4303 	strd	r4, r3, [sp, #12]
 8002c9a:	9207      	str	r2, [sp, #28]
 8002c9c:	f002 f846 	bl	8004d2c <HAL_GPIO_Init>
 8002ca0:	b009      	add	sp, #36	; 0x24
 8002ca2:	bd30      	pop	{r4, r5, pc}
 8002ca4:	40012c00 	.word	0x40012c00
 8002ca8:	40021000 	.word	0x40021000

08002cac <HAL_TIM_MspPostInit>:
 8002cac:	b530      	push	{r4, r5, lr}
 8002cae:	6801      	ldr	r1, [r0, #0]
 8002cb0:	4a28      	ldr	r2, [pc, #160]	; (8002d54 <HAL_TIM_MspPostInit+0xa8>)
 8002cb2:	b089      	sub	sp, #36	; 0x24
 8002cb4:	2300      	movs	r3, #0
 8002cb6:	4291      	cmp	r1, r2
 8002cb8:	e9cd 3303 	strd	r3, r3, [sp, #12]
 8002cbc:	e9cd 3305 	strd	r3, r3, [sp, #20]
 8002cc0:	9307      	str	r3, [sp, #28]
 8002cc2:	d001      	beq.n	8002cc8 <HAL_TIM_MspPostInit+0x1c>
 8002cc4:	b009      	add	sp, #36	; 0x24
 8002cc6:	bd30      	pop	{r4, r5, pc}
 8002cc8:	f103 4380 	add.w	r3, r3, #1073741824	; 0x40000000
 8002ccc:	f503 3304 	add.w	r3, r3, #135168	; 0x21000
 8002cd0:	2402      	movs	r4, #2
 8002cd2:	6cda      	ldr	r2, [r3, #76]	; 0x4c
 8002cd4:	4820      	ldr	r0, [pc, #128]	; (8002d58 <HAL_TIM_MspPostInit+0xac>)
 8002cd6:	f042 0204 	orr.w	r2, r2, #4
 8002cda:	64da      	str	r2, [r3, #76]	; 0x4c
 8002cdc:	6cda      	ldr	r2, [r3, #76]	; 0x4c
 8002cde:	f002 0204 	and.w	r2, r2, #4
 8002ce2:	9200      	str	r2, [sp, #0]
 8002ce4:	9a00      	ldr	r2, [sp, #0]
 8002ce6:	6cda      	ldr	r2, [r3, #76]	; 0x4c
 8002ce8:	f042 0202 	orr.w	r2, r2, #2
 8002cec:	64da      	str	r2, [r3, #76]	; 0x4c
 8002cee:	6cda      	ldr	r2, [r3, #76]	; 0x4c
 8002cf0:	f002 0202 	and.w	r2, r2, #2
 8002cf4:	9201      	str	r2, [sp, #4]
 8002cf6:	9a01      	ldr	r2, [sp, #4]
 8002cf8:	6cda      	ldr	r2, [r3, #76]	; 0x4c
 8002cfa:	f042 0201 	orr.w	r2, r2, #1
 8002cfe:	64da      	str	r2, [r3, #76]	; 0x4c
 8002d00:	6cdb      	ldr	r3, [r3, #76]	; 0x4c
 8002d02:	f003 0301 	and.w	r3, r3, #1
 8002d06:	9302      	str	r3, [sp, #8]
 8002d08:	2504      	movs	r5, #4
 8002d0a:	f44f 5300 	mov.w	r3, #8192	; 0x2000
 8002d0e:	a903      	add	r1, sp, #12
 8002d10:	9a02      	ldr	r2, [sp, #8]
 8002d12:	9507      	str	r5, [sp, #28]
 8002d14:	e9cd 3403 	strd	r3, r4, [sp, #12]
 8002d18:	e9cd 4405 	strd	r4, r4, [sp, #20]
 8002d1c:	f002 f806 	bl	8004d2c <HAL_GPIO_Init>
 8002d20:	f44f 4300 	mov.w	r3, #32768	; 0x8000
 8002d24:	a903      	add	r1, sp, #12
 8002d26:	480d      	ldr	r0, [pc, #52]	; (8002d5c <HAL_TIM_MspPostInit+0xb0>)
 8002d28:	9303      	str	r3, [sp, #12]
 8002d2a:	e9cd 4404 	strd	r4, r4, [sp, #16]
 8002d2e:	e9cd 4506 	strd	r4, r5, [sp, #24]
 8002d32:	f001 fffb 	bl	8004d2c <HAL_GPIO_Init>
 8002d36:	f44f 52b8 	mov.w	r2, #5888	; 0x1700
 8002d3a:	2306      	movs	r3, #6
 8002d3c:	a903      	add	r1, sp, #12
 8002d3e:	f04f 4090 	mov.w	r0, #1207959552	; 0x48000000
 8002d42:	e9cd 4404 	strd	r4, r4, [sp, #16]
 8002d46:	9406      	str	r4, [sp, #24]
 8002d48:	9203      	str	r2, [sp, #12]
 8002d4a:	9307      	str	r3, [sp, #28]
 8002d4c:	f001 ffee 	bl	8004d2c <HAL_GPIO_Init>
 8002d50:	b009      	add	sp, #36	; 0x24
 8002d52:	bd30      	pop	{r4, r5, pc}
 8002d54:	40012c00 	.word	0x40012c00
 8002d58:	48000800 	.word	0x48000800
 8002d5c:	48000400 	.word	0x48000400

08002d60 <HAL_UART_MspInit>:
 8002d60:	b530      	push	{r4, r5, lr}
 8002d62:	6801      	ldr	r1, [r0, #0]
 8002d64:	4a16      	ldr	r2, [pc, #88]	; (8002dc0 <HAL_UART_MspInit+0x60>)
 8002d66:	b089      	sub	sp, #36	; 0x24
 8002d68:	2300      	movs	r3, #0
 8002d6a:	4291      	cmp	r1, r2
 8002d6c:	e9cd 3303 	strd	r3, r3, [sp, #12]
 8002d70:	e9cd 3305 	strd	r3, r3, [sp, #20]
 8002d74:	9307      	str	r3, [sp, #28]
 8002d76:	d001      	beq.n	8002d7c <HAL_UART_MspInit+0x1c>
 8002d78:	b009      	add	sp, #36	; 0x24
 8002d7a:	bd30      	pop	{r4, r5, pc}
 8002d7c:	f103 4380 	add.w	r3, r3, #1073741824	; 0x40000000
 8002d80:	f503 3304 	add.w	r3, r3, #135168	; 0x21000
 8002d84:	480f      	ldr	r0, [pc, #60]	; (8002dc4 <HAL_UART_MspInit+0x64>)
 8002d86:	6d9a      	ldr	r2, [r3, #88]	; 0x58
 8002d88:	f442 3200 	orr.w	r2, r2, #131072	; 0x20000
 8002d8c:	659a      	str	r2, [r3, #88]	; 0x58
 8002d8e:	6d9a      	ldr	r2, [r3, #88]	; 0x58
 8002d90:	f402 3200 	and.w	r2, r2, #131072	; 0x20000
 8002d94:	9201      	str	r2, [sp, #4]
 8002d96:	9a01      	ldr	r2, [sp, #4]
 8002d98:	6cda      	ldr	r2, [r3, #76]	; 0x4c
 8002d9a:	f042 0202 	orr.w	r2, r2, #2
 8002d9e:	64da      	str	r2, [r3, #76]	; 0x4c
 8002da0:	6cdb      	ldr	r3, [r3, #76]	; 0x4c
 8002da2:	f003 0302 	and.w	r3, r3, #2
 8002da6:	9302      	str	r3, [sp, #8]
 8002da8:	2202      	movs	r2, #2
 8002daa:	2307      	movs	r3, #7
 8002dac:	a903      	add	r1, sp, #12
 8002dae:	2418      	movs	r4, #24
 8002db0:	9d02      	ldr	r5, [sp, #8]
 8002db2:	9307      	str	r3, [sp, #28]
 8002db4:	e9cd 4203 	strd	r4, r2, [sp, #12]
 8002db8:	f001 ffb8 	bl	8004d2c <HAL_GPIO_Init>
 8002dbc:	b009      	add	sp, #36	; 0x24
 8002dbe:	bd30      	pop	{r4, r5, pc}
 8002dc0:	40004400 	.word	0x40004400
 8002dc4:	48000400 	.word	0x48000400

08002dc8 <ADC1_2_IRQHandler>:
 8002dc8:	b508      	push	{r3, lr}
 8002dca:	f04f 43a0 	mov.w	r3, #1342177280	; 0x50000000
 8002dce:	2240      	movs	r2, #64	; 0x40
 8002dd0:	601a      	str	r2, [r3, #0]
 8002dd2:	f7fe fea7 	bl	8001b24 <TSK_HighFrequencyTask>
 8002dd6:	e8bd 4008 	ldmia.w	sp!, {r3, lr}
 8002dda:	f000 b94f 	b.w	800307c <UI_DACUpdate>
 8002dde:	bf00      	nop

08002de0 <TIM1_UP_TIM16_IRQHandler>:
 8002de0:	4b03      	ldr	r3, [pc, #12]	; (8002df0 <TIM1_UP_TIM16_IRQHandler+0x10>)
 8002de2:	4804      	ldr	r0, [pc, #16]	; (8002df4 <TIM1_UP_TIM16_IRQHandler+0x14>)
 8002de4:	f06f 0201 	mvn.w	r2, #1
 8002de8:	611a      	str	r2, [r3, #16]
 8002dea:	f005 bc5d 	b.w	80086a8 <R3_2_TIMx_UP_IRQHandler>
 8002dee:	bf00      	nop
 8002df0:	40012c00 	.word	0x40012c00
 8002df4:	200002c4 	.word	0x200002c4

08002df8 <TIM1_BRK_TIM15_IRQHandler>:
 8002df8:	b508      	push	{r3, lr}
 8002dfa:	4b0c      	ldr	r3, [pc, #48]	; (8002e2c <TIM1_BRK_TIM15_IRQHandler+0x34>)
 8002dfc:	691a      	ldr	r2, [r3, #16]
 8002dfe:	0611      	lsls	r1, r2, #24
 8002e00:	d40d      	bmi.n	8002e1e <TIM1_BRK_TIM15_IRQHandler+0x26>
 8002e02:	4b0a      	ldr	r3, [pc, #40]	; (8002e2c <TIM1_BRK_TIM15_IRQHandler+0x34>)
 8002e04:	691a      	ldr	r2, [r3, #16]
 8002e06:	05d2      	lsls	r2, r2, #23
 8002e08:	d505      	bpl.n	8002e16 <TIM1_BRK_TIM15_IRQHandler+0x1e>
 8002e0a:	f46f 7280 	mvn.w	r2, #256	; 0x100
 8002e0e:	611a      	str	r2, [r3, #16]
 8002e10:	4807      	ldr	r0, [pc, #28]	; (8002e30 <TIM1_BRK_TIM15_IRQHandler+0x38>)
 8002e12:	f005 fc95 	bl	8008740 <R3_2_BRK2_IRQHandler>
 8002e16:	e8bd 4008 	ldmia.w	sp!, {r3, lr}
 8002e1a:	f7fe be55 	b.w	8001ac8 <MC_Scheduler>
 8002e1e:	f06f 0280 	mvn.w	r2, #128	; 0x80
 8002e22:	611a      	str	r2, [r3, #16]
 8002e24:	4802      	ldr	r0, [pc, #8]	; (8002e30 <TIM1_BRK_TIM15_IRQHandler+0x38>)
 8002e26:	f005 fcab 	bl	8008780 <R3_2_BRK_IRQHandler>
 8002e2a:	e7ea      	b.n	8002e02 <TIM1_BRK_TIM15_IRQHandler+0xa>
 8002e2c:	40012c00 	.word	0x40012c00
 8002e30:	200002c4 	.word	0x200002c4

08002e34 <USART2_IRQHandler>:
 8002e34:	b510      	push	{r4, lr}
 8002e36:	4c19      	ldr	r4, [pc, #100]	; (8002e9c <USART2_IRQHandler+0x68>)
 8002e38:	f8d4 3120 	ldr.w	r3, [r4, #288]	; 0x120
 8002e3c:	69da      	ldr	r2, [r3, #28]
 8002e3e:	0691      	lsls	r1, r2, #26
 8002e40:	d417      	bmi.n	8002e72 <USART2_IRQHandler+0x3e>
 8002e42:	69da      	ldr	r2, [r3, #28]
 8002e44:	0612      	lsls	r2, r2, #24
 8002e46:	d40e      	bmi.n	8002e66 <USART2_IRQHandler+0x32>
 8002e48:	69db      	ldr	r3, [r3, #28]
 8002e4a:	071b      	lsls	r3, r3, #28
 8002e4c:	d400      	bmi.n	8002e50 <USART2_IRQHandler+0x1c>
 8002e4e:	bd10      	pop	{r4, pc}
 8002e50:	4812      	ldr	r0, [pc, #72]	; (8002e9c <USART2_IRQHandler+0x68>)
 8002e52:	f006 f9cf 	bl	80091f4 <UFCP_OVR_IRQ_Handler>
 8002e56:	f8d4 3120 	ldr.w	r3, [r4, #288]	; 0x120
 8002e5a:	2208      	movs	r2, #8
 8002e5c:	621a      	str	r2, [r3, #32]
 8002e5e:	e8bd 4010 	ldmia.w	sp!, {r4, lr}
 8002e62:	f000 b92b 	b.w	80030bc <UI_SerialCommunicationTimeOutStop>
 8002e66:	480d      	ldr	r0, [pc, #52]	; (8002e9c <USART2_IRQHandler+0x68>)
 8002e68:	f006 f88e 	bl	8008f88 <UFCP_TX_IRQ_Handler>
 8002e6c:	f8d4 3120 	ldr.w	r3, [r4, #288]	; 0x120
 8002e70:	e7ea      	b.n	8002e48 <USART2_IRQHandler+0x14>
 8002e72:	6a59      	ldr	r1, [r3, #36]	; 0x24
 8002e74:	4620      	mov	r0, r4
 8002e76:	b2c9      	uxtb	r1, r1
 8002e78:	f006 f95a 	bl	8009130 <UFCP_RX_IRQ_Handler>
 8002e7c:	8803      	ldrh	r3, [r0, #0]
 8002e7e:	2b01      	cmp	r3, #1
 8002e80:	d007      	beq.n	8002e92 <USART2_IRQHandler+0x5e>
 8002e82:	2b02      	cmp	r3, #2
 8002e84:	d002      	beq.n	8002e8c <USART2_IRQHandler+0x58>
 8002e86:	f8d4 3120 	ldr.w	r3, [r4, #288]	; 0x120
 8002e8a:	e7da      	b.n	8002e42 <USART2_IRQHandler+0xe>
 8002e8c:	f000 f916 	bl	80030bc <UI_SerialCommunicationTimeOutStop>
 8002e90:	e7f9      	b.n	8002e86 <USART2_IRQHandler+0x52>
 8002e92:	f000 f919 	bl	80030c8 <UI_SerialCommunicationTimeOutStart>
 8002e96:	f8d4 3120 	ldr.w	r3, [r4, #288]	; 0x120
 8002e9a:	e7d2      	b.n	8002e42 <USART2_IRQHandler+0xe>
 8002e9c:	200005f4 	.word	0x200005f4

08002ea0 <HardFault_Handler>:
 8002ea0:	b570      	push	{r4, r5, r6, lr}
 8002ea2:	f7fe ff6f 	bl	8001d84 <TSK_HardwareFaultTask>
 8002ea6:	4c1a      	ldr	r4, [pc, #104]	; (8002f10 <HardFault_Handler+0x70>)
 8002ea8:	2608      	movs	r6, #8
 8002eaa:	4625      	mov	r5, r4
 8002eac:	f8d4 3120 	ldr.w	r3, [r4, #288]	; 0x120
 8002eb0:	69da      	ldr	r2, [r3, #28]
 8002eb2:	0712      	lsls	r2, r2, #28
 8002eb4:	d41d      	bmi.n	8002ef2 <HardFault_Handler+0x52>
 8002eb6:	69da      	ldr	r2, [r3, #28]
 8002eb8:	0610      	lsls	r0, r2, #24
 8002eba:	d40f      	bmi.n	8002edc <HardFault_Handler+0x3c>
 8002ebc:	69da      	ldr	r2, [r3, #28]
 8002ebe:	0692      	lsls	r2, r2, #26
 8002ec0:	d5f6      	bpl.n	8002eb0 <HardFault_Handler+0x10>
 8002ec2:	6a59      	ldr	r1, [r3, #36]	; 0x24
 8002ec4:	4628      	mov	r0, r5
 8002ec6:	b2c9      	uxtb	r1, r1
 8002ec8:	f006 f932 	bl	8009130 <UFCP_RX_IRQ_Handler>
 8002ecc:	8803      	ldrh	r3, [r0, #0]
 8002ece:	2b01      	cmp	r3, #1
 8002ed0:	d01a      	beq.n	8002f08 <HardFault_Handler+0x68>
 8002ed2:	2b02      	cmp	r3, #2
 8002ed4:	d1ea      	bne.n	8002eac <HardFault_Handler+0xc>
 8002ed6:	f000 f8f1 	bl	80030bc <UI_SerialCommunicationTimeOutStop>
 8002eda:	e7e7      	b.n	8002eac <HardFault_Handler+0xc>
 8002edc:	4628      	mov	r0, r5
 8002ede:	f006 f853 	bl	8008f88 <UFCP_TX_IRQ_Handler>
 8002ee2:	f8d4 3120 	ldr.w	r3, [r4, #288]	; 0x120
 8002ee6:	69da      	ldr	r2, [r3, #28]
 8002ee8:	0691      	lsls	r1, r2, #26
 8002eea:	d4ea      	bmi.n	8002ec2 <HardFault_Handler+0x22>
 8002eec:	69da      	ldr	r2, [r3, #28]
 8002eee:	0712      	lsls	r2, r2, #28
 8002ef0:	d5e1      	bpl.n	8002eb6 <HardFault_Handler+0x16>
 8002ef2:	4628      	mov	r0, r5
 8002ef4:	f006 f97e 	bl	80091f4 <UFCP_OVR_IRQ_Handler>
 8002ef8:	f8d4 3120 	ldr.w	r3, [r4, #288]	; 0x120
 8002efc:	621e      	str	r6, [r3, #32]
 8002efe:	f000 f8dd 	bl	80030bc <UI_SerialCommunicationTimeOutStop>
 8002f02:	f8d4 3120 	ldr.w	r3, [r4, #288]	; 0x120
 8002f06:	e7d6      	b.n	8002eb6 <HardFault_Handler+0x16>
 8002f08:	f000 f8de 	bl	80030c8 <UI_SerialCommunicationTimeOutStart>
 8002f0c:	e7ce      	b.n	8002eac <HardFault_Handler+0xc>
 8002f0e:	bf00      	nop
 8002f10:	200005f4 	.word	0x200005f4

08002f14 <SysTick_Handler>:
 8002f14:	b510      	push	{r4, lr}
 8002f16:	4c0a      	ldr	r4, [pc, #40]	; (8002f40 <SysTick_Handler+0x2c>)
 8002f18:	7823      	ldrb	r3, [r4, #0]
 8002f1a:	2b02      	cmp	r3, #2
 8002f1c:	d006      	beq.n	8002f2c <SysTick_Handler+0x18>
 8002f1e:	3301      	adds	r3, #1
 8002f20:	b2db      	uxtb	r3, r3
 8002f22:	7023      	strb	r3, [r4, #0]
 8002f24:	e8bd 4010 	ldmia.w	sp!, {r4, lr}
 8002f28:	f7fe bf1c 	b.w	8001d64 <MC_RunMotorControlTasks>
 8002f2c:	f000 fe7a 	bl	8003c24 <HAL_IncTick>
 8002f30:	f001 fdfa 	bl	8004b28 <HAL_SYSTICK_IRQHandler>
 8002f34:	2301      	movs	r3, #1
 8002f36:	7023      	strb	r3, [r4, #0]
 8002f38:	e8bd 4010 	ldmia.w	sp!, {r4, lr}
 8002f3c:	f7fe bf12 	b.w	8001d64 <MC_RunMotorControlTasks>
 8002f40:	20000734 	.word	0x20000734

08002f44 <EXTI15_10_IRQHandler>:
 8002f44:	4b04      	ldr	r3, [pc, #16]	; (8002f58 <EXTI15_10_IRQHandler+0x14>)
 8002f46:	695a      	ldr	r2, [r3, #20]
 8002f48:	0552      	lsls	r2, r2, #21
 8002f4a:	d400      	bmi.n	8002f4e <EXTI15_10_IRQHandler+0xa>
 8002f4c:	4770      	bx	lr
 8002f4e:	f44f 6280 	mov.w	r2, #1024	; 0x400
 8002f52:	615a      	str	r2, [r3, #20]
 8002f54:	f000 b8be 	b.w	80030d4 <UI_HandleStartStopButton_cb>
 8002f58:	40010400 	.word	0x40010400

08002f5c <UI_TaskInit>:
 8002f5c:	e92d 4ff0 	stmdb	sp!, {r4, r5, r6, r7, r8, r9, sl, fp, lr}
 8002f60:	b087      	sub	sp, #28
 8002f62:	4d2d      	ldr	r5, [pc, #180]	; (8003018 <UI_TaskInit+0xbc>)
 8002f64:	9c10      	ldr	r4, [sp, #64]	; 0x40
 8002f66:	9405      	str	r4, [sp, #20]
 8002f68:	462c      	mov	r4, r5
 8002f6a:	4682      	mov	sl, r0
 8002f6c:	460f      	mov	r7, r1
 8002f6e:	4690      	mov	r8, r2
 8002f70:	4699      	mov	r9, r3
 8002f72:	cc0f      	ldmia	r4!, {r0, r1, r2, r3}
 8002f74:	f8df e0b8 	ldr.w	lr, [pc, #184]	; 8003030 <UI_TaskInit+0xd4>
 8002f78:	4e28      	ldr	r6, [pc, #160]	; (800301c <UI_TaskInit+0xc0>)
 8002f7a:	f8df b0b8 	ldr.w	fp, [pc, #184]	; 8003034 <UI_TaskInit+0xd8>
 8002f7e:	f8c6 e000 	str.w	lr, [r6]
 8002f82:	46f4      	mov	ip, lr
 8002f84:	e8ac 000f 	stmia.w	ip!, {r0, r1, r2, r3}
 8002f88:	cc0f      	ldmia	r4!, {r0, r1, r2, r3}
 8002f8a:	e8ac 000f 	stmia.w	ip!, {r0, r1, r2, r3}
 8002f8e:	e894 000f 	ldmia.w	r4, {r0, r1, r2, r3}
 8002f92:	f8cd a000 	str.w	sl, [sp]
 8002f96:	e88c 000f 	stmia.w	ip, {r0, r1, r2, r3}
 8002f9a:	464b      	mov	r3, r9
 8002f9c:	4670      	mov	r0, lr
 8002f9e:	4642      	mov	r2, r8
 8002fa0:	4639      	mov	r1, r7
 8002fa2:	f000 f8a3 	bl	80030ec <UI_Init>
 8002fa6:	6830      	ldr	r0, [r6, #0]
 8002fa8:	f000 faca 	bl	8003540 <UI_DACInit>
 8002fac:	6830      	ldr	r0, [r6, #0]
 8002fae:	2231      	movs	r2, #49	; 0x31
 8002fb0:	2100      	movs	r1, #0
 8002fb2:	f000 facd 	bl	8003550 <UI_SetDAC>
 8002fb6:	6830      	ldr	r0, [r6, #0]
 8002fb8:	2224      	movs	r2, #36	; 0x24
 8002fba:	2101      	movs	r1, #1
 8002fbc:	f000 fac8 	bl	8003550 <UI_SetDAC>
 8002fc0:	46ae      	mov	lr, r5
 8002fc2:	e8be 000f 	ldmia.w	lr!, {r0, r1, r2, r3}
 8002fc6:	f8df c070 	ldr.w	ip, [pc, #112]	; 8003038 <UI_TaskInit+0xdc>
 8002fca:	4665      	mov	r5, ip
 8002fcc:	c50f      	stmia	r5!, {r0, r1, r2, r3}
 8002fce:	e8be 000f 	ldmia.w	lr!, {r0, r1, r2, r3}
 8002fd2:	c50f      	stmia	r5!, {r0, r1, r2, r3}
 8002fd4:	e894 000f 	ldmia.w	r4, {r0, r1, r2, r3}
 8002fd8:	4c11      	ldr	r4, [pc, #68]	; (8003020 <UI_TaskInit+0xc4>)
 8002fda:	e885 000f 	stmia.w	r5, {r0, r1, r2, r3}
 8002fde:	4658      	mov	r0, fp
 8002fe0:	f8c4 c000 	str.w	ip, [r4]
 8002fe4:	f005 ffce 	bl	8008f84 <UFCP_Init>
 8002fe8:	6832      	ldr	r2, [r6, #0]
 8002fea:	9905      	ldr	r1, [sp, #20]
 8002fec:	4b0d      	ldr	r3, [pc, #52]	; (8003024 <UI_TaskInit+0xc8>)
 8002fee:	6820      	ldr	r0, [r4, #0]
 8002ff0:	9300      	str	r3, [sp, #0]
 8002ff2:	e9cd 2101 	strd	r2, r1, [sp, #4]
 8002ff6:	4b0c      	ldr	r3, [pc, #48]	; (8003028 <UI_TaskInit+0xcc>)
 8002ff8:	4a0c      	ldr	r2, [pc, #48]	; (800302c <UI_TaskInit+0xd0>)
 8002ffa:	4659      	mov	r1, fp
 8002ffc:	f7ff faca 	bl	8002594 <MCP_Init>
 8003000:	6820      	ldr	r0, [r4, #0]
 8003002:	f8cd a040 	str.w	sl, [sp, #64]	; 0x40
 8003006:	464b      	mov	r3, r9
 8003008:	4642      	mov	r2, r8
 800300a:	4639      	mov	r1, r7
 800300c:	b007      	add	sp, #28
 800300e:	e8bd 4ff0 	ldmia.w	sp!, {r4, r5, r6, r7, r8, r9, sl, fp, lr}
 8003012:	f000 b86b 	b.w	80030ec <UI_Init>
 8003016:	bf00      	nop
 8003018:	2000058c 	.word	0x2000058c
 800301c:	20000778 	.word	0x20000778
 8003020:	2000077c 	.word	0x2000077c
 8003024:	08009211 	.word	0x08009211
 8003028:	08008fe9 	.word	0x08008fe9
 800302c:	0800900d 	.word	0x0800900d
 8003030:	200000b4 	.word	0x200000b4
 8003034:	200005f4 	.word	0x200005f4
 8003038:	20000be4 	.word	0x20000be4

0800303c <UI_Scheduler>:
 800303c:	4a0c      	ldr	r2, [pc, #48]	; (8003070 <UI_Scheduler+0x34>)
 800303e:	8813      	ldrh	r3, [r2, #0]
 8003040:	b29b      	uxth	r3, r3
 8003042:	b11b      	cbz	r3, 800304c <UI_Scheduler+0x10>
 8003044:	8813      	ldrh	r3, [r2, #0]
 8003046:	3b01      	subs	r3, #1
 8003048:	b29b      	uxth	r3, r3
 800304a:	8013      	strh	r3, [r2, #0]
 800304c:	4a09      	ldr	r2, [pc, #36]	; (8003074 <UI_Scheduler+0x38>)
 800304e:	8813      	ldrh	r3, [r2, #0]
 8003050:	2b01      	cmp	r3, #1
 8003052:	d903      	bls.n	800305c <UI_Scheduler+0x20>
 8003054:	8813      	ldrh	r3, [r2, #0]
 8003056:	3b01      	subs	r3, #1
 8003058:	b29b      	uxth	r3, r3
 800305a:	8013      	strh	r3, [r2, #0]
 800305c:	4a06      	ldr	r2, [pc, #24]	; (8003078 <UI_Scheduler+0x3c>)
 800305e:	8813      	ldrh	r3, [r2, #0]
 8003060:	2b01      	cmp	r3, #1
 8003062:	d903      	bls.n	800306c <UI_Scheduler+0x30>
 8003064:	8813      	ldrh	r3, [r2, #0]
 8003066:	3b01      	subs	r3, #1
 8003068:	b29b      	uxth	r3, r3
 800306a:	8013      	strh	r3, [r2, #0]
 800306c:	4770      	bx	lr
 800306e:	bf00      	nop
 8003070:	20000776 	.word	0x20000776
 8003074:	20000774 	.word	0x20000774
 8003078:	20000736 	.word	0x20000736

0800307c <UI_DACUpdate>:
 800307c:	b538      	push	{r3, r4, r5, lr}
 800307e:	4c06      	ldr	r4, [pc, #24]	; (8003098 <UI_DACUpdate+0x1c>)
 8003080:	4605      	mov	r5, r0
 8003082:	6820      	ldr	r0, [r4, #0]
 8003084:	f000 f846 	bl	8003114 <UI_GetSelectedMC>
 8003088:	42a8      	cmp	r0, r5
 800308a:	d000      	beq.n	800308e <UI_DACUpdate+0x12>
 800308c:	bd38      	pop	{r3, r4, r5, pc}
 800308e:	6820      	ldr	r0, [r4, #0]
 8003090:	e8bd 4038 	ldmia.w	sp!, {r3, r4, r5, lr}
 8003094:	f000 ba58 	b.w	8003548 <UI_DACExec>
 8003098:	20000778 	.word	0x20000778

0800309c <UI_IdleTimeHasElapsed>:
 800309c:	4b03      	ldr	r3, [pc, #12]	; (80030ac <UI_IdleTimeHasElapsed+0x10>)
 800309e:	8818      	ldrh	r0, [r3, #0]
 80030a0:	b280      	uxth	r0, r0
 80030a2:	fab0 f080 	clz	r0, r0
 80030a6:	0940      	lsrs	r0, r0, #5
 80030a8:	4770      	bx	lr
 80030aa:	bf00      	nop
 80030ac:	20000776 	.word	0x20000776

080030b0 <UI_SetIdleTime>:
 80030b0:	4b01      	ldr	r3, [pc, #4]	; (80030b8 <UI_SetIdleTime+0x8>)
 80030b2:	8018      	strh	r0, [r3, #0]
 80030b4:	4770      	bx	lr
 80030b6:	bf00      	nop
 80030b8:	20000776 	.word	0x20000776

080030bc <UI_SerialCommunicationTimeOutStop>:
 80030bc:	4b01      	ldr	r3, [pc, #4]	; (80030c4 <UI_SerialCommunicationTimeOutStop+0x8>)
 80030be:	2200      	movs	r2, #0
 80030c0:	801a      	strh	r2, [r3, #0]
 80030c2:	4770      	bx	lr
 80030c4:	20000774 	.word	0x20000774

080030c8 <UI_SerialCommunicationTimeOutStart>:
 80030c8:	4b01      	ldr	r3, [pc, #4]	; (80030d0 <UI_SerialCommunicationTimeOutStart+0x8>)
 80030ca:	224f      	movs	r2, #79	; 0x4f
 80030cc:	801a      	strh	r2, [r3, #0]
 80030ce:	4770      	bx	lr
 80030d0:	20000774 	.word	0x20000774

080030d4 <UI_HandleStartStopButton_cb>:
 80030d4:	b508      	push	{r3, lr}
 80030d6:	f7fe f88f 	bl	80011f8 <MC_GetSTMStateMotor1>
 80030da:	b118      	cbz	r0, 80030e4 <UI_HandleStartStopButton_cb+0x10>
 80030dc:	e8bd 4008 	ldmia.w	sp!, {r3, lr}
 80030e0:	f7fe b878 	b.w	80011d4 <MC_StopMotor1>
 80030e4:	e8bd 4008 	ldmia.w	sp!, {r3, lr}
 80030e8:	f7fe b86e 	b.w	80011c8 <MC_StartMotor1>

080030ec <UI_Init>:
 80030ec:	b430      	push	{r4, r5}
 80030ee:	9c02      	ldr	r4, [sp, #8]
 80030f0:	6284      	str	r4, [r0, #40]	; 0x28
 80030f2:	2500      	movs	r5, #0
 80030f4:	f880 502c 	strb.w	r5, [r0, #44]	; 0x2c
 80030f8:	7701      	strb	r1, [r0, #28]
 80030fa:	e9c0 2308 	strd	r2, r3, [r0, #32]
 80030fe:	bc30      	pop	{r4, r5}
 8003100:	4770      	bx	lr
 8003102:	bf00      	nop

08003104 <UI_SelectMC>:
 8003104:	7f03      	ldrb	r3, [r0, #28]
 8003106:	428b      	cmp	r3, r1
 8003108:	bf86      	itte	hi
 800310a:	f880 102c 	strbhi.w	r1, [r0, #44]	; 0x2c
 800310e:	2001      	movhi	r0, #1
 8003110:	2000      	movls	r0, #0
 8003112:	4770      	bx	lr

08003114 <UI_GetSelectedMC>:
 8003114:	f890 002c 	ldrb.w	r0, [r0, #44]	; 0x2c
 8003118:	4770      	bx	lr
 800311a:	bf00      	nop

0800311c <UI_SetReg>:
 800311c:	b530      	push	{r4, r5, lr}
 800311e:	4614      	mov	r4, r2
 8003120:	e9d0 5208 	ldrd	r5, r2, [r0, #32]
 8003124:	f890 302c 	ldrb.w	r3, [r0, #44]	; 0x2c
 8003128:	b083      	sub	sp, #12
 800312a:	f855 5023 	ldr.w	r5, [r5, r3, lsl #2]
 800312e:	f852 2023 	ldr.w	r2, [r2, r3, lsl #2]
 8003132:	295b      	cmp	r1, #91	; 0x5b
 8003134:	f200 8139 	bhi.w	80033aa <UI_SetReg+0x28e>
 8003138:	e8df f011 	tbh	[pc, r1, lsl #1]
 800313c:	01370069 	.word	0x01370069
 8003140:	006d0137 	.word	0x006d0137
 8003144:	00770137 	.word	0x00770137
 8003148:	0083007d 	.word	0x0083007d
 800314c:	00950089 	.word	0x00950089
 8003150:	00a1009b 	.word	0x00a1009b
 8003154:	00b300a7 	.word	0x00b300a7
 8003158:	00bf00b9 	.word	0x00bf00b9
 800315c:	00df00c5 	.word	0x00df00c5
 8003160:	01370137 	.word	0x01370137
 8003164:	011500f9 	.word	0x011500f9
 8003168:	01370137 	.word	0x01370137
 800316c:	01370137 	.word	0x01370137
 8003170:	01370137 	.word	0x01370137
 8003174:	01370137 	.word	0x01370137
 8003178:	01370137 	.word	0x01370137
 800317c:	01370137 	.word	0x01370137
 8003180:	01370137 	.word	0x01370137
 8003184:	01370137 	.word	0x01370137
 8003188:	01370137 	.word	0x01370137
 800318c:	01370137 	.word	0x01370137
 8003190:	01370137 	.word	0x01370137
 8003194:	01370137 	.word	0x01370137
 8003198:	01370137 	.word	0x01370137
 800319c:	01370137 	.word	0x01370137
 80031a0:	01370137 	.word	0x01370137
 80031a4:	01370137 	.word	0x01370137
 80031a8:	01370137 	.word	0x01370137
 80031ac:	01370137 	.word	0x01370137
 80031b0:	01370137 	.word	0x01370137
 80031b4:	01370137 	.word	0x01370137
 80031b8:	01370137 	.word	0x01370137
 80031bc:	01310137 	.word	0x01310137
 80031c0:	01370137 	.word	0x01370137
 80031c4:	01370137 	.word	0x01370137
 80031c8:	01370137 	.word	0x01370137
 80031cc:	01370137 	.word	0x01370137
 80031d0:	01370137 	.word	0x01370137
 80031d4:	01370137 	.word	0x01370137
 80031d8:	01370137 	.word	0x01370137
 80031dc:	01370137 	.word	0x01370137
 80031e0:	01370137 	.word	0x01370137
 80031e4:	01370137 	.word	0x01370137
 80031e8:	01370137 	.word	0x01370137
 80031ec:	01370137 	.word	0x01370137
 80031f0:	005c0137 	.word	0x005c0137
 80031f4:	4980      	ldr	r1, [pc, #512]	; (80033f8 <UI_SetReg+0x2dc>)
 80031f6:	fb81 3104 	smull	r3, r1, r1, r4
 80031fa:	eba1 71e4 	sub.w	r1, r1, r4, asr #31
 80031fe:	4628      	mov	r0, r5
 8003200:	b209      	sxth	r1, r1
 8003202:	2200      	movs	r2, #0
 8003204:	f7fe f80c 	bl	8001220 <MCI_ExecSpeedRamp>
 8003208:	2001      	movs	r0, #1
 800320a:	b003      	add	sp, #12
 800320c:	bd30      	pop	{r4, r5, pc}
 800320e:	b2e1      	uxtb	r1, r4
 8003210:	f7ff ff78 	bl	8003104 <UI_SelectMC>
 8003214:	e7f9      	b.n	800320a <UI_SetReg+0xee>
 8003216:	f014 04ff 	ands.w	r4, r4, #255	; 0xff
 800321a:	f000 80d8 	beq.w	80033ce <UI_SetReg+0x2b2>
 800321e:	2c01      	cmp	r4, #1
 8003220:	f000 80df 	beq.w	80033e2 <UI_SetReg+0x2c6>
 8003224:	2001      	movs	r0, #1
 8003226:	b003      	add	sp, #12
 8003228:	bd30      	pop	{r4, r5, pc}
 800322a:	6810      	ldr	r0, [r2, #0]
 800322c:	b221      	sxth	r1, r4
 800322e:	f004 fa7b 	bl	8007728 <PID_SetKP>
 8003232:	2001      	movs	r0, #1
 8003234:	e7e9      	b.n	800320a <UI_SetReg+0xee>
 8003236:	6810      	ldr	r0, [r2, #0]
 8003238:	b221      	sxth	r1, r4
 800323a:	f004 fa77 	bl	800772c <PID_SetKI>
 800323e:	2001      	movs	r0, #1
 8003240:	e7e3      	b.n	800320a <UI_SetReg+0xee>
 8003242:	6810      	ldr	r0, [r2, #0]
 8003244:	b221      	sxth	r1, r4
 8003246:	f004 fa81 	bl	800774c <PID_SetKD>
 800324a:	2001      	movs	r0, #1
 800324c:	e7dd      	b.n	800320a <UI_SetReg+0xee>
 800324e:	4628      	mov	r0, r5
 8003250:	f7fe f8b6 	bl	80013c0 <MCI_GetIqdref>
 8003254:	9001      	str	r0, [sp, #4]
 8003256:	f8ad 4004 	strh.w	r4, [sp, #4]
 800325a:	4628      	mov	r0, r5
 800325c:	9901      	ldr	r1, [sp, #4]
 800325e:	f7fd fff3 	bl	8001248 <MCI_SetCurrentReferences>
 8003262:	2001      	movs	r0, #1
 8003264:	e7d1      	b.n	800320a <UI_SetReg+0xee>
 8003266:	6850      	ldr	r0, [r2, #4]
 8003268:	b221      	sxth	r1, r4
 800326a:	f004 fa5d 	bl	8007728 <PID_SetKP>
 800326e:	2001      	movs	r0, #1
 8003270:	e7cb      	b.n	800320a <UI_SetReg+0xee>
 8003272:	6850      	ldr	r0, [r2, #4]
 8003274:	b221      	sxth	r1, r4
 8003276:	f004 fa59 	bl	800772c <PID_SetKI>
 800327a:	2001      	movs	r0, #1
 800327c:	e7c5      	b.n	800320a <UI_SetReg+0xee>
 800327e:	6850      	ldr	r0, [r2, #4]
 8003280:	b221      	sxth	r1, r4
 8003282:	f004 fa63 	bl	800774c <PID_SetKD>
 8003286:	2001      	movs	r0, #1
 8003288:	e7bf      	b.n	800320a <UI_SetReg+0xee>
 800328a:	4628      	mov	r0, r5
 800328c:	f7fe f898 	bl	80013c0 <MCI_GetIqdref>
 8003290:	9001      	str	r0, [sp, #4]
 8003292:	f8ad 4006 	strh.w	r4, [sp, #6]
 8003296:	4628      	mov	r0, r5
 8003298:	9901      	ldr	r1, [sp, #4]
 800329a:	f7fd ffd5 	bl	8001248 <MCI_SetCurrentReferences>
 800329e:	2001      	movs	r0, #1
 80032a0:	e7b3      	b.n	800320a <UI_SetReg+0xee>
 80032a2:	6890      	ldr	r0, [r2, #8]
 80032a4:	b221      	sxth	r1, r4
 80032a6:	f004 fa3f 	bl	8007728 <PID_SetKP>
 80032aa:	2001      	movs	r0, #1
 80032ac:	e7ad      	b.n	800320a <UI_SetReg+0xee>
 80032ae:	6890      	ldr	r0, [r2, #8]
 80032b0:	b221      	sxth	r1, r4
 80032b2:	f004 fa3b 	bl	800772c <PID_SetKI>
 80032b6:	2001      	movs	r0, #1
 80032b8:	e7a7      	b.n	800320a <UI_SetReg+0xee>
 80032ba:	6890      	ldr	r0, [r2, #8]
 80032bc:	b221      	sxth	r1, r4
 80032be:	f004 fa45 	bl	800774c <PID_SetKD>
 80032c2:	2001      	movs	r0, #1
 80032c4:	e7a1      	b.n	800320a <UI_SetReg+0xee>
 80032c6:	6a81      	ldr	r1, [r0, #40]	; 0x28
 80032c8:	f851 3023 	ldr.w	r3, [r1, r3, lsl #2]
 80032cc:	0f19      	lsrs	r1, r3, #28
 80032ce:	2909      	cmp	r1, #9
 80032d0:	f3c3 6303 	ubfx	r3, r3, #24, #4
 80032d4:	d06f      	beq.n	80033b6 <UI_SetReg+0x29a>
 80032d6:	2b09      	cmp	r3, #9
 80032d8:	d1a4      	bne.n	8003224 <UI_SetReg+0x108>
 80032da:	69d5      	ldr	r5, [r2, #28]
 80032dc:	2d00      	cmp	r5, #0
 80032de:	d0a1      	beq.n	8003224 <UI_SetReg+0x108>
 80032e0:	aa01      	add	r2, sp, #4
 80032e2:	f10d 0102 	add.w	r1, sp, #2
 80032e6:	4628      	mov	r0, r5
 80032e8:	f006 fc22 	bl	8009b30 <STO_PLL_GetObserverGains>
 80032ec:	b221      	sxth	r1, r4
 80032ee:	4628      	mov	r0, r5
 80032f0:	f9bd 2004 	ldrsh.w	r2, [sp, #4]
 80032f4:	f006 fc24 	bl	8009b40 <STO_PLL_SetObserverGains>
 80032f8:	e794      	b.n	8003224 <UI_SetReg+0x108>
 80032fa:	6a81      	ldr	r1, [r0, #40]	; 0x28
 80032fc:	f851 3023 	ldr.w	r3, [r1, r3, lsl #2]
 8003300:	0f19      	lsrs	r1, r3, #28
 8003302:	2909      	cmp	r1, #9
 8003304:	f3c3 6303 	ubfx	r3, r3, #24, #4
 8003308:	d051      	beq.n	80033ae <UI_SetReg+0x292>
 800330a:	2b09      	cmp	r3, #9
 800330c:	d18a      	bne.n	8003224 <UI_SetReg+0x108>
 800330e:	69d5      	ldr	r5, [r2, #28]
 8003310:	2d00      	cmp	r5, #0
 8003312:	d087      	beq.n	8003224 <UI_SetReg+0x108>
 8003314:	aa01      	add	r2, sp, #4
 8003316:	f10d 0102 	add.w	r1, sp, #2
 800331a:	4628      	mov	r0, r5
 800331c:	f006 fc08 	bl	8009b30 <STO_PLL_GetObserverGains>
 8003320:	b222      	sxth	r2, r4
 8003322:	4628      	mov	r0, r5
 8003324:	f9bd 1002 	ldrsh.w	r1, [sp, #2]
 8003328:	f006 fc0a 	bl	8009b40 <STO_PLL_SetObserverGains>
 800332c:	e77a      	b.n	8003224 <UI_SetReg+0x108>
 800332e:	6a81      	ldr	r1, [r0, #40]	; 0x28
 8003330:	f851 3023 	ldr.w	r3, [r1, r3, lsl #2]
 8003334:	0f19      	lsrs	r1, r3, #28
 8003336:	2909      	cmp	r1, #9
 8003338:	f3c3 6303 	ubfx	r3, r3, #24, #4
 800333c:	d03f      	beq.n	80033be <UI_SetReg+0x2a2>
 800333e:	2b09      	cmp	r3, #9
 8003340:	f47f af70 	bne.w	8003224 <UI_SetReg+0x108>
 8003344:	69d5      	ldr	r5, [r2, #28]
 8003346:	2d00      	cmp	r5, #0
 8003348:	f43f af6c 	beq.w	8003224 <UI_SetReg+0x108>
 800334c:	aa01      	add	r2, sp, #4
 800334e:	f10d 0102 	add.w	r1, sp, #2
 8003352:	4628      	mov	r0, r5
 8003354:	f006 fbf8 	bl	8009b48 <STO_GetPLLGains>
 8003358:	b222      	sxth	r2, r4
 800335a:	4628      	mov	r0, r5
 800335c:	f9bd 1002 	ldrsh.w	r1, [sp, #2]
 8003360:	f006 fc00 	bl	8009b64 <STO_SetPLLGains>
 8003364:	e75e      	b.n	8003224 <UI_SetReg+0x108>
 8003366:	6a81      	ldr	r1, [r0, #40]	; 0x28
 8003368:	f851 3023 	ldr.w	r3, [r1, r3, lsl #2]
 800336c:	0f19      	lsrs	r1, r3, #28
 800336e:	2909      	cmp	r1, #9
 8003370:	f3c3 6303 	ubfx	r3, r3, #24, #4
 8003374:	d027      	beq.n	80033c6 <UI_SetReg+0x2aa>
 8003376:	2b09      	cmp	r3, #9
 8003378:	f47f af54 	bne.w	8003224 <UI_SetReg+0x108>
 800337c:	69d5      	ldr	r5, [r2, #28]
 800337e:	2d00      	cmp	r5, #0
 8003380:	f43f af50 	beq.w	8003224 <UI_SetReg+0x108>
 8003384:	aa01      	add	r2, sp, #4
 8003386:	f10d 0102 	add.w	r1, sp, #2
 800338a:	4628      	mov	r0, r5
 800338c:	f006 fbdc 	bl	8009b48 <STO_GetPLLGains>
 8003390:	b221      	sxth	r1, r4
 8003392:	4628      	mov	r0, r5
 8003394:	f9bd 2004 	ldrsh.w	r2, [sp, #4]
 8003398:	f006 fbe4 	bl	8009b64 <STO_SetPLLGains>
 800339c:	e742      	b.n	8003224 <UI_SetReg+0x108>
 800339e:	4628      	mov	r0, r5
 80033a0:	b221      	sxth	r1, r4
 80033a2:	f7fe f82d 	bl	8001400 <MCI_SetIdref>
 80033a6:	2001      	movs	r0, #1
 80033a8:	e72f      	b.n	800320a <UI_SetReg+0xee>
 80033aa:	2000      	movs	r0, #0
 80033ac:	e72d      	b.n	800320a <UI_SetReg+0xee>
 80033ae:	2b09      	cmp	r3, #9
 80033b0:	6995      	ldr	r5, [r2, #24]
 80033b2:	d1ad      	bne.n	8003310 <UI_SetReg+0x1f4>
 80033b4:	e7ab      	b.n	800330e <UI_SetReg+0x1f2>
 80033b6:	2b09      	cmp	r3, #9
 80033b8:	6995      	ldr	r5, [r2, #24]
 80033ba:	d18f      	bne.n	80032dc <UI_SetReg+0x1c0>
 80033bc:	e78d      	b.n	80032da <UI_SetReg+0x1be>
 80033be:	2b09      	cmp	r3, #9
 80033c0:	6995      	ldr	r5, [r2, #24]
 80033c2:	d1c0      	bne.n	8003346 <UI_SetReg+0x22a>
 80033c4:	e7be      	b.n	8003344 <UI_SetReg+0x228>
 80033c6:	2b09      	cmp	r3, #9
 80033c8:	6995      	ldr	r5, [r2, #24]
 80033ca:	d1d8      	bne.n	800337e <UI_SetReg+0x262>
 80033cc:	e7d6      	b.n	800337c <UI_SetReg+0x260>
 80033ce:	4628      	mov	r0, r5
 80033d0:	f7fe f812 	bl	80013f8 <MCI_GetTeref>
 80033d4:	4622      	mov	r2, r4
 80033d6:	4601      	mov	r1, r0
 80033d8:	4628      	mov	r0, r5
 80033da:	f7fd ff29 	bl	8001230 <MCI_ExecTorqueRamp>
 80033de:	2001      	movs	r0, #1
 80033e0:	e713      	b.n	800320a <UI_SetReg+0xee>
 80033e2:	4628      	mov	r0, r5
 80033e4:	f7fd ffd0 	bl	8001388 <MCI_GetMecSpeedRefUnit>
 80033e8:	2200      	movs	r2, #0
 80033ea:	4601      	mov	r1, r0
 80033ec:	4628      	mov	r0, r5
 80033ee:	f7fd ff17 	bl	8001220 <MCI_ExecSpeedRamp>
 80033f2:	4620      	mov	r0, r4
 80033f4:	e709      	b.n	800320a <UI_SetReg+0xee>
 80033f6:	bf00      	nop
 80033f8:	2aaaaaab 	.word	0x2aaaaaab

080033fc <UI_ExecCmd>:
 80033fc:	b510      	push	{r4, lr}
 80033fe:	6a03      	ldr	r3, [r0, #32]
 8003400:	f890 202c 	ldrb.w	r2, [r0, #44]	; 0x2c
 8003404:	3901      	subs	r1, #1
 8003406:	f853 4022 	ldr.w	r4, [r3, r2, lsl #2]
 800340a:	290d      	cmp	r1, #13
 800340c:	d82c      	bhi.n	8003468 <UI_ExecCmd+0x6c>
 800340e:	e8df f001 	tbb	[pc, r1]
 8003412:	1217      	.short	0x1217
 8003414:	0e0c0c07 	.word	0x0e0c0c07
 8003418:	2b21261c 	.word	0x2b21261c
 800341c:	122b2b2b 	.word	0x122b2b2b
 8003420:	4620      	mov	r0, r4
 8003422:	f7fd ff6f 	bl	8001304 <MCI_GetSTMState>
 8003426:	2806      	cmp	r0, #6
 8003428:	d020      	beq.n	800346c <UI_ExecCmd+0x70>
 800342a:	2001      	movs	r0, #1
 800342c:	bd10      	pop	{r4, pc}
 800342e:	4620      	mov	r0, r4
 8003430:	f7fd ff68 	bl	8001304 <MCI_GetSTMState>
 8003434:	b120      	cbz	r0, 8003440 <UI_ExecCmd+0x44>
 8003436:	4620      	mov	r0, r4
 8003438:	f7fd ff1e 	bl	8001278 <MCI_StopMotor>
 800343c:	2001      	movs	r0, #1
 800343e:	bd10      	pop	{r4, pc}
 8003440:	4620      	mov	r0, r4
 8003442:	f7fd ff0f 	bl	8001264 <MCI_StartMotor>
 8003446:	2001      	movs	r0, #1
 8003448:	bd10      	pop	{r4, pc}
 800344a:	4620      	mov	r0, r4
 800344c:	f7fd ff18 	bl	8001280 <MCI_FaultAcknowledged>
 8003450:	2001      	movs	r0, #1
 8003452:	bd10      	pop	{r4, pc}
 8003454:	4620      	mov	r0, r4
 8003456:	f7fd ffd7 	bl	8001408 <MCI_Clear_Iqdref>
 800345a:	2001      	movs	r0, #1
 800345c:	bd10      	pop	{r4, pc}
 800345e:	4620      	mov	r0, r4
 8003460:	f7fd ff12 	bl	8001288 <MCI_EncoderAlign>
 8003464:	2001      	movs	r0, #1
 8003466:	bd10      	pop	{r4, pc}
 8003468:	2000      	movs	r0, #0
 800346a:	bd10      	pop	{r4, pc}
 800346c:	4620      	mov	r0, r4
 800346e:	f7fd ff7f 	bl	8001370 <MCI_StopRamp>
 8003472:	2001      	movs	r0, #1
 8003474:	bd10      	pop	{r4, pc}
 8003476:	bf00      	nop

08003478 <UI_ExecSpeedRamp>:
 8003478:	b510      	push	{r4, lr}
 800347a:	4b07      	ldr	r3, [pc, #28]	; (8003498 <UI_ExecSpeedRamp+0x20>)
 800347c:	f890 402c 	ldrb.w	r4, [r0, #44]	; 0x2c
 8003480:	6a00      	ldr	r0, [r0, #32]
 8003482:	fb83 c301 	smull	ip, r3, r3, r1
 8003486:	eba3 71e1 	sub.w	r1, r3, r1, asr #31
 800348a:	f850 0024 	ldr.w	r0, [r0, r4, lsl #2]
 800348e:	b209      	sxth	r1, r1
 8003490:	f7fd fec6 	bl	8001220 <MCI_ExecSpeedRamp>
 8003494:	2001      	movs	r0, #1
 8003496:	bd10      	pop	{r4, pc}
 8003498:	2aaaaaab 	.word	0x2aaaaaab

0800349c <UI_ExecTorqueRamp>:
 800349c:	b510      	push	{r4, lr}
 800349e:	6a03      	ldr	r3, [r0, #32]
 80034a0:	f890 402c 	ldrb.w	r4, [r0, #44]	; 0x2c
 80034a4:	f853 0024 	ldr.w	r0, [r3, r4, lsl #2]
 80034a8:	f7fd fec2 	bl	8001230 <MCI_ExecTorqueRamp>
 80034ac:	2001      	movs	r0, #1
 80034ae:	bd10      	pop	{r4, pc}

080034b0 <UI_GetRevupData>:
 80034b0:	b5f8      	push	{r3, r4, r5, r6, r7, lr}
 80034b2:	f890 402c 	ldrb.w	r4, [r0, #44]	; 0x2c
 80034b6:	6a40      	ldr	r0, [r0, #36]	; 0x24
 80034b8:	f850 0024 	ldr.w	r0, [r0, r4, lsl #2]
 80034bc:	6944      	ldr	r4, [r0, #20]
 80034be:	b194      	cbz	r4, 80034e6 <UI_GetRevupData+0x36>
 80034c0:	4620      	mov	r0, r4
 80034c2:	461e      	mov	r6, r3
 80034c4:	4617      	mov	r7, r2
 80034c6:	460d      	mov	r5, r1
 80034c8:	f006 f87e 	bl	80095c8 <RUC_GetPhaseDurationms>
 80034cc:	4629      	mov	r1, r5
 80034ce:	8038      	strh	r0, [r7, #0]
 80034d0:	4620      	mov	r0, r4
 80034d2:	f006 f87f 	bl	80095d4 <RUC_GetPhaseFinalMecSpeedUnit>
 80034d6:	4629      	mov	r1, r5
 80034d8:	8030      	strh	r0, [r6, #0]
 80034da:	4620      	mov	r0, r4
 80034dc:	f006 f882 	bl	80095e4 <RUC_GetPhaseFinalTorque>
 80034e0:	9b06      	ldr	r3, [sp, #24]
 80034e2:	2401      	movs	r4, #1
 80034e4:	8018      	strh	r0, [r3, #0]
 80034e6:	4620      	mov	r0, r4
 80034e8:	bdf8      	pop	{r3, r4, r5, r6, r7, pc}
 80034ea:	bf00      	nop

080034ec <UI_SetRevupData>:
 80034ec:	b5f8      	push	{r3, r4, r5, r6, r7, lr}
 80034ee:	461f      	mov	r7, r3
 80034f0:	f890 402c 	ldrb.w	r4, [r0, #44]	; 0x2c
 80034f4:	6a43      	ldr	r3, [r0, #36]	; 0x24
 80034f6:	f9bd 6018 	ldrsh.w	r6, [sp, #24]
 80034fa:	f853 3024 	ldr.w	r3, [r3, r4, lsl #2]
 80034fe:	695c      	ldr	r4, [r3, #20]
 8003500:	460d      	mov	r5, r1
 8003502:	4620      	mov	r0, r4
 8003504:	f006 f84e 	bl	80095a4 <RUC_SetPhaseDurationms>
 8003508:	463a      	mov	r2, r7
 800350a:	4629      	mov	r1, r5
 800350c:	4620      	mov	r0, r4
 800350e:	f006 f84f 	bl	80095b0 <RUC_SetPhaseFinalMecSpeedUnit>
 8003512:	4620      	mov	r0, r4
 8003514:	4632      	mov	r2, r6
 8003516:	4629      	mov	r1, r5
 8003518:	f006 f850 	bl	80095bc <RUC_SetPhaseFinalTorque>
 800351c:	2001      	movs	r0, #1
 800351e:	bdf8      	pop	{r3, r4, r5, r6, r7, pc}

08003520 <UI_SetCurrentReferences>:
 8003520:	b082      	sub	sp, #8
 8003522:	6a03      	ldr	r3, [r0, #32]
 8003524:	f8ad 1004 	strh.w	r1, [sp, #4]
 8003528:	f890 102c 	ldrb.w	r1, [r0, #44]	; 0x2c
 800352c:	f8ad 2006 	strh.w	r2, [sp, #6]
 8003530:	f853 0021 	ldr.w	r0, [r3, r1, lsl #2]
 8003534:	9901      	ldr	r1, [sp, #4]
 8003536:	b002      	add	sp, #8
 8003538:	f7fd be86 	b.w	8001248 <MCI_SetCurrentReferences>

0800353c <UI_GetMPInfo>:
 800353c:	2000      	movs	r0, #0
 800353e:	4770      	bx	lr

08003540 <UI_DACInit>:
 8003540:	6943      	ldr	r3, [r0, #20]
 8003542:	b103      	cbz	r3, 8003546 <UI_DACInit+0x6>
 8003544:	4718      	bx	r3
 8003546:	4770      	bx	lr

08003548 <UI_DACExec>:
 8003548:	6983      	ldr	r3, [r0, #24]
 800354a:	b103      	cbz	r3, 800354e <UI_DACExec+0x6>
 800354c:	4718      	bx	r3
 800354e:	4770      	bx	lr

08003550 <UI_SetDAC>:
 8003550:	6843      	ldr	r3, [r0, #4]
 8003552:	b103      	cbz	r3, 8003556 <UI_SetDAC+0x6>
 8003554:	4718      	bx	r3
 8003556:	4770      	bx	lr

08003558 <UI_GetDAC>:
 8003558:	6883      	ldr	r3, [r0, #8]
 800355a:	b103      	cbz	r3, 800355e <UI_GetDAC+0x6>
 800355c:	4718      	bx	r3
 800355e:	2089      	movs	r0, #137	; 0x89
 8003560:	4770      	bx	lr
 8003562:	bf00      	nop

08003564 <UI_GetReg>:
 8003564:	b570      	push	{r4, r5, r6, lr}
 8003566:	e9d0 4508 	ldrd	r4, r5, [r0, #32]
 800356a:	f890 302c 	ldrb.w	r3, [r0, #44]	; 0x2c
 800356e:	b090      	sub	sp, #64	; 0x40
 8003570:	f855 5023 	ldr.w	r5, [r5, r3, lsl #2]
 8003574:	f854 6023 	ldr.w	r6, [r4, r3, lsl #2]
 8003578:	2a00      	cmp	r2, #0
 800357a:	f000 8089 	beq.w	8003690 <UI_GetReg+0x12c>
 800357e:	2401      	movs	r4, #1
 8003580:	7014      	strb	r4, [r2, #0]
 8003582:	2981      	cmp	r1, #129	; 0x81
 8003584:	f200 82b2 	bhi.w	8003aec <UI_GetReg+0x588>
 8003588:	e8df f011 	tbh	[pc, r1, lsl #1]
 800358c:	029a027f 	.word	0x029a027f
 8003590:	01610165 	.word	0x01610165
 8003594:	0156015a 	.word	0x0156015a
 8003598:	014e0152 	.word	0x014e0152
 800359c:	02960106 	.word	0x02960106
 80035a0:	01720176 	.word	0x01720176
 80035a4:	016e00fa 	.word	0x016e00fa
 80035a8:	029e02a2 	.word	0x029e02a2
 80035ac:	01bf01d4 	.word	0x01bf01d4
 80035b0:	02b002b0 	.word	0x02b002b0
 80035b4:	01260135 	.word	0x01260135
 80035b8:	02b002b0 	.word	0x02b002b0
 80035bc:	012202b0 	.word	0x012202b0
 80035c0:	011a011e 	.word	0x011a011e
 80035c4:	01120116 	.word	0x01120116
 80035c8:	02ab010b 	.word	0x02ab010b
 80035cc:	02b002a6 	.word	0x02b002a6
 80035d0:	02420247 	.word	0x02420247
 80035d4:	01440149 	.word	0x01440149
 80035d8:	02ab0169 	.word	0x02ab0169
 80035dc:	010602a6 	.word	0x010602a6
 80035e0:	021600fa 	.word	0x021600fa
 80035e4:	017a0211 	.word	0x017a0211
 80035e8:	02b00192 	.word	0x02b00192
 80035ec:	017f02b0 	.word	0x017f02b0
 80035f0:	021b022f 	.word	0x021b022f
 80035f4:	019701ab 	.word	0x019701ab
 80035f8:	02b00263 	.word	0x02b00263
 80035fc:	02b002b0 	.word	0x02b002b0
 8003600:	02b002b0 	.word	0x02b002b0
 8003604:	025c02b0 	.word	0x025c02b0
 8003608:	024e0255 	.word	0x024e0255
 800360c:	00fa0278 	.word	0x00fa0278
 8003610:	01e901fd 	.word	0x01e901fd
 8003614:	02b002b0 	.word	0x02b002b0
 8003618:	02b002b0 	.word	0x02b002b0
 800361c:	02b002b0 	.word	0x02b002b0
 8003620:	02b002b0 	.word	0x02b002b0
 8003624:	02b002b0 	.word	0x02b002b0
 8003628:	02b002b0 	.word	0x02b002b0
 800362c:	02b002b0 	.word	0x02b002b0
 8003630:	02b002b0 	.word	0x02b002b0
 8003634:	02b002b0 	.word	0x02b002b0
 8003638:	02b002b0 	.word	0x02b002b0
 800363c:	02b002b0 	.word	0x02b002b0
 8003640:	028a02b0 	.word	0x028a02b0
 8003644:	02b002b0 	.word	0x02b002b0
 8003648:	02b002b0 	.word	0x02b002b0
 800364c:	02b002b0 	.word	0x02b002b0
 8003650:	02b002b0 	.word	0x02b002b0
 8003654:	02b002b0 	.word	0x02b002b0
 8003658:	02b002b0 	.word	0x02b002b0
 800365c:	02b002b0 	.word	0x02b002b0
 8003660:	02b002b0 	.word	0x02b002b0
 8003664:	02b002b0 	.word	0x02b002b0
 8003668:	02820286 	.word	0x02820286
 800366c:	02b00276 	.word	0x02b00276
 8003670:	01030103 	.word	0x01030103
 8003674:	02b002b0 	.word	0x02b002b0
 8003678:	02b002b0 	.word	0x02b002b0
 800367c:	02b002b0 	.word	0x02b002b0
 8003680:	02b002b0 	.word	0x02b002b0
 8003684:	02b002b0 	.word	0x02b002b0
 8003688:	02b002b0 	.word	0x02b002b0
 800368c:	010002b0 	.word	0x010002b0
 8003690:	2973      	cmp	r1, #115	; 0x73
 8003692:	d87b      	bhi.n	800378c <UI_GetReg+0x228>
 8003694:	e8df f011 	tbh	[pc, r1, lsl #1]
 8003698:	021401f9 	.word	0x021401f9
 800369c:	00db00df 	.word	0x00db00df
 80036a0:	00d000d4 	.word	0x00d000d4
 80036a4:	00c800cc 	.word	0x00c800cc
 80036a8:	02100080 	.word	0x02100080
 80036ac:	00ec00f0 	.word	0x00ec00f0
 80036b0:	00e80074 	.word	0x00e80074
 80036b4:	0218021c 	.word	0x0218021c
 80036b8:	0139014e 	.word	0x0139014e
 80036bc:	007a007a 	.word	0x007a007a
 80036c0:	00a000af 	.word	0x00a000af
 80036c4:	007a007a 	.word	0x007a007a
 80036c8:	009c007a 	.word	0x009c007a
 80036cc:	00940098 	.word	0x00940098
 80036d0:	008c0090 	.word	0x008c0090
 80036d4:	02250085 	.word	0x02250085
 80036d8:	007a0220 	.word	0x007a0220
 80036dc:	01bc01c1 	.word	0x01bc01c1
 80036e0:	00be00c3 	.word	0x00be00c3
 80036e4:	022500e3 	.word	0x022500e3
 80036e8:	00800220 	.word	0x00800220
 80036ec:	01900074 	.word	0x01900074
 80036f0:	00f4018b 	.word	0x00f4018b
 80036f4:	007a010c 	.word	0x007a010c
 80036f8:	00f9007a 	.word	0x00f9007a
 80036fc:	019501a9 	.word	0x019501a9
 8003700:	01110125 	.word	0x01110125
 8003704:	007a01dd 	.word	0x007a01dd
 8003708:	007a007a 	.word	0x007a007a
 800370c:	007a007a 	.word	0x007a007a
 8003710:	01d6007a 	.word	0x01d6007a
 8003714:	01c801cf 	.word	0x01c801cf
 8003718:	007401f2 	.word	0x007401f2
 800371c:	01630177 	.word	0x01630177
 8003720:	007a007a 	.word	0x007a007a
 8003724:	007a007a 	.word	0x007a007a
 8003728:	007a007a 	.word	0x007a007a
 800372c:	007a007a 	.word	0x007a007a
 8003730:	007a007a 	.word	0x007a007a
 8003734:	007a007a 	.word	0x007a007a
 8003738:	007a007a 	.word	0x007a007a
 800373c:	007a007a 	.word	0x007a007a
 8003740:	007a007a 	.word	0x007a007a
 8003744:	007a007a 	.word	0x007a007a
 8003748:	007a007a 	.word	0x007a007a
 800374c:	0204007a 	.word	0x0204007a
 8003750:	007a007a 	.word	0x007a007a
 8003754:	007a007a 	.word	0x007a007a
 8003758:	007a007a 	.word	0x007a007a
 800375c:	007a007a 	.word	0x007a007a
 8003760:	007a007a 	.word	0x007a007a
 8003764:	007a007a 	.word	0x007a007a
 8003768:	007a007a 	.word	0x007a007a
 800376c:	007a007a 	.word	0x007a007a
 8003770:	007a007a 	.word	0x007a007a
 8003774:	01fc0200 	.word	0x01fc0200
 8003778:	007a01f0 	.word	0x007a01f0
 800377c:	007d007d 	.word	0x007d007d
 8003780:	4630      	mov	r0, r6
 8003782:	f7fd fe1d 	bl	80013c0 <MCI_GetIqdref>
 8003786:	1400      	asrs	r0, r0, #16
 8003788:	b010      	add	sp, #64	; 0x40
 800378a:	bd70      	pop	{r4, r5, r6, pc}
 800378c:	2000      	movs	r0, #0
 800378e:	b010      	add	sp, #64	; 0x40
 8003790:	bd70      	pop	{r4, r5, r6, pc}
 8003792:	f242 701f 	movw	r0, #10015	; 0x271f
 8003796:	e7f7      	b.n	8003788 <UI_GetReg+0x224>
 8003798:	4630      	mov	r0, r6
 800379a:	f7fd fe11 	bl	80013c0 <MCI_GetIqdref>
 800379e:	b200      	sxth	r0, r0
 80037a0:	e7f2      	b.n	8003788 <UI_GetReg+0x224>
 80037a2:	4630      	mov	r0, r6
 80037a4:	f7fd fde8 	bl	8001378 <MCI_GetAvrgMecSpeedUnit>
 80037a8:	eb00 0040 	add.w	r0, r0, r0, lsl #1
 80037ac:	0040      	lsls	r0, r0, #1
 80037ae:	e7eb      	b.n	8003788 <UI_GetReg+0x224>
 80037b0:	2101      	movs	r1, #1
 80037b2:	f7ff fed1 	bl	8003558 <UI_GetDAC>
 80037b6:	e7e7      	b.n	8003788 <UI_GetReg+0x224>
 80037b8:	2100      	movs	r1, #0
 80037ba:	f7ff fecd 	bl	8003558 <UI_GetDAC>
 80037be:	e7e3      	b.n	8003788 <UI_GetReg+0x224>
 80037c0:	6be8      	ldr	r0, [r5, #60]	; 0x3c
 80037c2:	f003 ff4d 	bl	8007660 <MPM_GetAvrgElMotorPowerW>
 80037c6:	e7df      	b.n	8003788 <UI_GetReg+0x224>
 80037c8:	6ae8      	ldr	r0, [r5, #44]	; 0x2c
 80037ca:	f003 ff8f 	bl	80076ec <NTC_GetAvTemp_C>
 80037ce:	e7db      	b.n	8003788 <UI_GetReg+0x224>
 80037d0:	6b28      	ldr	r0, [r5, #48]	; 0x30
 80037d2:	f003 fea5 	bl	8007520 <VBS_GetAvBusVoltage_V>
 80037d6:	e7d7      	b.n	8003788 <UI_GetReg+0x224>
 80037d8:	6a82      	ldr	r2, [r0, #40]	; 0x28
 80037da:	f852 3023 	ldr.w	r3, [r2, r3, lsl #2]
 80037de:	0f1a      	lsrs	r2, r3, #28
 80037e0:	2a09      	cmp	r2, #9
 80037e2:	f3c3 6303 	ubfx	r3, r3, #24, #4
 80037e6:	f000 81bb 	beq.w	8003b60 <UI_GetReg+0x5fc>
 80037ea:	2b09      	cmp	r3, #9
 80037ec:	f000 81bb 	beq.w	8003b66 <UI_GetReg+0x602>
 80037f0:	f9bd 0038 	ldrsh.w	r0, [sp, #56]	; 0x38
 80037f4:	e7c8      	b.n	8003788 <UI_GetReg+0x224>
 80037f6:	6a82      	ldr	r2, [r0, #40]	; 0x28
 80037f8:	f852 3023 	ldr.w	r3, [r2, r3, lsl #2]
 80037fc:	0f1a      	lsrs	r2, r3, #28
 80037fe:	2a09      	cmp	r2, #9
 8003800:	f3c3 6303 	ubfx	r3, r3, #24, #4
 8003804:	f000 81b8 	beq.w	8003b78 <UI_GetReg+0x614>
 8003808:	2b09      	cmp	r3, #9
 800380a:	f000 81b8 	beq.w	8003b7e <UI_GetReg+0x61a>
 800380e:	f9bd 003c 	ldrsh.w	r0, [sp, #60]	; 0x3c
 8003812:	e7b9      	b.n	8003788 <UI_GetReg+0x224>
 8003814:	4630      	mov	r0, r6
 8003816:	f7fd fdc3 	bl	80013a0 <MCI_GetIalphabeta>
 800381a:	b200      	sxth	r0, r0
 800381c:	e7b4      	b.n	8003788 <UI_GetReg+0x224>
 800381e:	4630      	mov	r0, r6
 8003820:	f7fd fdb6 	bl	8001390 <MCI_GetIab>
 8003824:	1400      	asrs	r0, r0, #16
 8003826:	e7af      	b.n	8003788 <UI_GetReg+0x224>
 8003828:	6828      	ldr	r0, [r5, #0]
 800382a:	f003 ff91 	bl	8007750 <PID_GetKD>
 800382e:	e7ab      	b.n	8003788 <UI_GetReg+0x224>
 8003830:	6828      	ldr	r0, [r5, #0]
 8003832:	f003 ff81 	bl	8007738 <PID_GetKI>
 8003836:	e7a7      	b.n	8003788 <UI_GetReg+0x224>
 8003838:	6828      	ldr	r0, [r5, #0]
 800383a:	f003 ff79 	bl	8007730 <PID_GetKP>
 800383e:	e7a3      	b.n	8003788 <UI_GetReg+0x224>
 8003840:	4630      	mov	r0, r6
 8003842:	f7fd fda1 	bl	8001388 <MCI_GetMecSpeedRefUnit>
 8003846:	eb00 0040 	add.w	r0, r0, r0, lsl #1
 800384a:	0040      	lsls	r0, r0, #1
 800384c:	e79c      	b.n	8003788 <UI_GetReg+0x224>
 800384e:	4630      	mov	r0, r6
 8003850:	f7fd fd62 	bl	8001318 <MCI_GetControlMode>
 8003854:	e798      	b.n	8003788 <UI_GetReg+0x224>
 8003856:	6aa8      	ldr	r0, [r5, #40]	; 0x28
 8003858:	f005 fb80 	bl	8008f5c <STM_GetState>
 800385c:	e794      	b.n	8003788 <UI_GetReg+0x224>
 800385e:	4630      	mov	r0, r6
 8003860:	f7fd fd9e 	bl	80013a0 <MCI_GetIalphabeta>
 8003864:	1400      	asrs	r0, r0, #16
 8003866:	e78f      	b.n	8003788 <UI_GetReg+0x224>
 8003868:	68a8      	ldr	r0, [r5, #8]
 800386a:	f003 ff61 	bl	8007730 <PID_GetKP>
 800386e:	e78b      	b.n	8003788 <UI_GetReg+0x224>
 8003870:	6868      	ldr	r0, [r5, #4]
 8003872:	f003 ff6d 	bl	8007750 <PID_GetKD>
 8003876:	e787      	b.n	8003788 <UI_GetReg+0x224>
 8003878:	6868      	ldr	r0, [r5, #4]
 800387a:	f003 ff5d 	bl	8007738 <PID_GetKI>
 800387e:	e783      	b.n	8003788 <UI_GetReg+0x224>
 8003880:	4630      	mov	r0, r6
 8003882:	f7fd fdaf 	bl	80013e4 <MCI_GetValphabeta>
 8003886:	b200      	sxth	r0, r0
 8003888:	e77e      	b.n	8003788 <UI_GetReg+0x224>
 800388a:	6a82      	ldr	r2, [r0, #40]	; 0x28
 800388c:	f852 3023 	ldr.w	r3, [r2, r3, lsl #2]
 8003890:	0f1a      	lsrs	r2, r3, #28
 8003892:	2a09      	cmp	r2, #9
 8003894:	f3c3 6303 	ubfx	r3, r3, #24, #4
 8003898:	f000 8148 	beq.w	8003b2c <UI_GetReg+0x5c8>
 800389c:	2b09      	cmp	r3, #9
 800389e:	f47f af75 	bne.w	800378c <UI_GetReg+0x228>
 80038a2:	69e8      	ldr	r0, [r5, #28]
 80038a4:	2800      	cmp	r0, #0
 80038a6:	f43f af71 	beq.w	800378c <UI_GetReg+0x228>
 80038aa:	f005 f9ad 	bl	8008c08 <SPD_GetElAngle>
 80038ae:	e76b      	b.n	8003788 <UI_GetReg+0x224>
 80038b0:	4630      	mov	r0, r6
 80038b2:	f7fd fd97 	bl	80013e4 <MCI_GetValphabeta>
 80038b6:	1400      	asrs	r0, r0, #16
 80038b8:	e766      	b.n	8003788 <UI_GetReg+0x224>
 80038ba:	6a82      	ldr	r2, [r0, #40]	; 0x28
 80038bc:	f852 3023 	ldr.w	r3, [r2, r3, lsl #2]
 80038c0:	0f1a      	lsrs	r2, r3, #28
 80038c2:	2a09      	cmp	r2, #9
 80038c4:	f3c3 6303 	ubfx	r3, r3, #24, #4
 80038c8:	f000 8126 	beq.w	8003b18 <UI_GetReg+0x5b4>
 80038cc:	2b09      	cmp	r3, #9
 80038ce:	f47f af5d 	bne.w	800378c <UI_GetReg+0x228>
 80038d2:	69e8      	ldr	r0, [r5, #28]
 80038d4:	2800      	cmp	r0, #0
 80038d6:	f43f af59 	beq.w	800378c <UI_GetReg+0x228>
 80038da:	f006 f909 	bl	8009af0 <STO_PLL_GetEstimatedBemf>
 80038de:	b200      	sxth	r0, r0
 80038e0:	e752      	b.n	8003788 <UI_GetReg+0x224>
 80038e2:	6a82      	ldr	r2, [r0, #40]	; 0x28
 80038e4:	f852 3023 	ldr.w	r3, [r2, r3, lsl #2]
 80038e8:	0f1a      	lsrs	r2, r3, #28
 80038ea:	2a09      	cmp	r2, #9
 80038ec:	f3c3 6303 	ubfx	r3, r3, #24, #4
 80038f0:	f000 810d 	beq.w	8003b0e <UI_GetReg+0x5aa>
 80038f4:	2b09      	cmp	r3, #9
 80038f6:	f47f af49 	bne.w	800378c <UI_GetReg+0x228>
 80038fa:	69e8      	ldr	r0, [r5, #28]
 80038fc:	2800      	cmp	r0, #0
 80038fe:	f43f af45 	beq.w	800378c <UI_GetReg+0x228>
 8003902:	f006 f901 	bl	8009b08 <STO_PLL_GetEstimatedCurrent>
 8003906:	1400      	asrs	r0, r0, #16
 8003908:	e73e      	b.n	8003788 <UI_GetReg+0x224>
 800390a:	6a82      	ldr	r2, [r0, #40]	; 0x28
 800390c:	f852 3023 	ldr.w	r3, [r2, r3, lsl #2]
 8003910:	0f1a      	lsrs	r2, r3, #28
 8003912:	2a09      	cmp	r2, #9
 8003914:	f3c3 6303 	ubfx	r3, r3, #24, #4
 8003918:	f000 80ef 	beq.w	8003afa <UI_GetReg+0x596>
 800391c:	2b09      	cmp	r3, #9
 800391e:	f47f af76 	bne.w	800380e <UI_GetReg+0x2aa>
 8003922:	69e8      	ldr	r0, [r5, #28]
 8003924:	2800      	cmp	r0, #0
 8003926:	f43f af72 	beq.w	800380e <UI_GetReg+0x2aa>
 800392a:	aa0f      	add	r2, sp, #60	; 0x3c
 800392c:	a90e      	add	r1, sp, #56	; 0x38
 800392e:	f006 f8ff 	bl	8009b30 <STO_PLL_GetObserverGains>
 8003932:	e76c      	b.n	800380e <UI_GetReg+0x2aa>
 8003934:	6a82      	ldr	r2, [r0, #40]	; 0x28
 8003936:	f852 3023 	ldr.w	r3, [r2, r3, lsl #2]
 800393a:	0f1a      	lsrs	r2, r3, #28
 800393c:	2a09      	cmp	r2, #9
 800393e:	f3c3 6303 	ubfx	r3, r3, #24, #4
 8003942:	f000 80df 	beq.w	8003b04 <UI_GetReg+0x5a0>
 8003946:	2b09      	cmp	r3, #9
 8003948:	f47f af52 	bne.w	80037f0 <UI_GetReg+0x28c>
 800394c:	69e8      	ldr	r0, [r5, #28]
 800394e:	2800      	cmp	r0, #0
 8003950:	f43f af4e 	beq.w	80037f0 <UI_GetReg+0x28c>
 8003954:	aa0f      	add	r2, sp, #60	; 0x3c
 8003956:	a90e      	add	r1, sp, #56	; 0x38
 8003958:	f006 f8ea 	bl	8009b30 <STO_PLL_GetObserverGains>
 800395c:	e748      	b.n	80037f0 <UI_GetReg+0x28c>
 800395e:	6a82      	ldr	r2, [r0, #40]	; 0x28
 8003960:	f852 3023 	ldr.w	r3, [r2, r3, lsl #2]
 8003964:	0f1a      	lsrs	r2, r3, #28
 8003966:	2a09      	cmp	r2, #9
 8003968:	f3c3 6303 	ubfx	r3, r3, #24, #4
 800396c:	f000 80f3 	beq.w	8003b56 <UI_GetReg+0x5f2>
 8003970:	2b09      	cmp	r3, #9
 8003972:	f47f af0b 	bne.w	800378c <UI_GetReg+0x228>
 8003976:	69e8      	ldr	r0, [r5, #28]
 8003978:	2800      	cmp	r0, #0
 800397a:	f43f af07 	beq.w	800378c <UI_GetReg+0x228>
 800397e:	f006 f90d 	bl	8009b9c <STO_PLL_GetObservedBemfLevel>
 8003982:	1400      	asrs	r0, r0, #16
 8003984:	e700      	b.n	8003788 <UI_GetReg+0x224>
 8003986:	6a82      	ldr	r2, [r0, #40]	; 0x28
 8003988:	f852 3023 	ldr.w	r3, [r2, r3, lsl #2]
 800398c:	0f1a      	lsrs	r2, r3, #28
 800398e:	2a09      	cmp	r2, #9
 8003990:	f3c3 6303 	ubfx	r3, r3, #24, #4
 8003994:	f000 80da 	beq.w	8003b4c <UI_GetReg+0x5e8>
 8003998:	2b09      	cmp	r3, #9
 800399a:	f47f aef7 	bne.w	800378c <UI_GetReg+0x228>
 800399e:	69e8      	ldr	r0, [r5, #28]
 80039a0:	2800      	cmp	r0, #0
 80039a2:	f43f aef3 	beq.w	800378c <UI_GetReg+0x228>
 80039a6:	f006 f8f5 	bl	8009b94 <STO_PLL_GetEstimatedBemfLevel>
 80039aa:	1400      	asrs	r0, r0, #16
 80039ac:	e6ec      	b.n	8003788 <UI_GetReg+0x224>
 80039ae:	4630      	mov	r0, r6
 80039b0:	f7fd fd0e 	bl	80013d0 <MCI_GetVqd>
 80039b4:	1400      	asrs	r0, r0, #16
 80039b6:	e6e7      	b.n	8003788 <UI_GetReg+0x224>
 80039b8:	4630      	mov	r0, r6
 80039ba:	f7fd fd09 	bl	80013d0 <MCI_GetVqd>
 80039be:	b200      	sxth	r0, r0
 80039c0:	e6e2      	b.n	8003788 <UI_GetReg+0x224>
 80039c2:	6a82      	ldr	r2, [r0, #40]	; 0x28
 80039c4:	f852 3023 	ldr.w	r3, [r2, r3, lsl #2]
 80039c8:	0f1a      	lsrs	r2, r3, #28
 80039ca:	2a09      	cmp	r2, #9
 80039cc:	f3c3 6303 	ubfx	r3, r3, #24, #4
 80039d0:	f000 80a7 	beq.w	8003b22 <UI_GetReg+0x5be>
 80039d4:	2b09      	cmp	r3, #9
 80039d6:	f47f aed9 	bne.w	800378c <UI_GetReg+0x228>
 80039da:	69e8      	ldr	r0, [r5, #28]
 80039dc:	2800      	cmp	r0, #0
 80039de:	f43f aed5 	beq.w	800378c <UI_GetReg+0x228>
 80039e2:	f006 f891 	bl	8009b08 <STO_PLL_GetEstimatedCurrent>
 80039e6:	b200      	sxth	r0, r0
 80039e8:	e6ce      	b.n	8003788 <UI_GetReg+0x224>
 80039ea:	6a82      	ldr	r2, [r0, #40]	; 0x28
 80039ec:	f852 3023 	ldr.w	r3, [r2, r3, lsl #2]
 80039f0:	0f1a      	lsrs	r2, r3, #28
 80039f2:	2a09      	cmp	r2, #9
 80039f4:	f3c3 6303 	ubfx	r3, r3, #24, #4
 80039f8:	f000 80a3 	beq.w	8003b42 <UI_GetReg+0x5de>
 80039fc:	2b09      	cmp	r3, #9
 80039fe:	f47f aec5 	bne.w	800378c <UI_GetReg+0x228>
 8003a02:	69e8      	ldr	r0, [r5, #28]
 8003a04:	2800      	cmp	r0, #0
 8003a06:	f43f aec1 	beq.w	800378c <UI_GetReg+0x228>
 8003a0a:	f005 f939 	bl	8008c80 <SPD_GetS16Speed>
 8003a0e:	e6bb      	b.n	8003788 <UI_GetReg+0x224>
 8003a10:	4630      	mov	r0, r6
 8003a12:	f7fd fcbd 	bl	8001390 <MCI_GetIab>
 8003a16:	b200      	sxth	r0, r0
 8003a18:	e6b6      	b.n	8003788 <UI_GetReg+0x224>
 8003a1a:	6968      	ldr	r0, [r5, #20]
 8003a1c:	2800      	cmp	r0, #0
 8003a1e:	f43f aeb5 	beq.w	800378c <UI_GetReg+0x228>
 8003a22:	f005 fde7 	bl	80095f4 <RUC_GetNumberOfPhases>
 8003a26:	e6af      	b.n	8003788 <UI_GetReg+0x224>
 8003a28:	6a68      	ldr	r0, [r5, #36]	; 0x24
 8003a2a:	f005 f9e9 	bl	8008e00 <STC_GetMaxAppPositiveMecSpeedUnit>
 8003a2e:	eb00 0040 	add.w	r0, r0, r0, lsl #1
 8003a32:	0040      	lsls	r0, r0, #1
 8003a34:	e6a8      	b.n	8003788 <UI_GetReg+0x224>
 8003a36:	6903      	ldr	r3, [r0, #16]
 8003a38:	2b00      	cmp	r3, #0
 8003a3a:	f43f aea7 	beq.w	800378c <UI_GetReg+0x228>
 8003a3e:	2101      	movs	r1, #1
 8003a40:	4798      	blx	r3
 8003a42:	e6a1      	b.n	8003788 <UI_GetReg+0x224>
 8003a44:	6903      	ldr	r3, [r0, #16]
 8003a46:	2b00      	cmp	r3, #0
 8003a48:	f43f aea0 	beq.w	800378c <UI_GetReg+0x228>
 8003a4c:	2100      	movs	r1, #0
 8003a4e:	4798      	blx	r3
 8003a50:	e69a      	b.n	8003788 <UI_GetReg+0x224>
 8003a52:	6a82      	ldr	r2, [r0, #40]	; 0x28
 8003a54:	f852 3023 	ldr.w	r3, [r2, r3, lsl #2]
 8003a58:	0f1a      	lsrs	r2, r3, #28
 8003a5a:	2a09      	cmp	r2, #9
 8003a5c:	f3c3 6303 	ubfx	r3, r3, #24, #4
 8003a60:	d047      	beq.n	8003af2 <UI_GetReg+0x58e>
 8003a62:	2b09      	cmp	r3, #9
 8003a64:	f47f ae92 	bne.w	800378c <UI_GetReg+0x228>
 8003a68:	69e8      	ldr	r0, [r5, #28]
 8003a6a:	2800      	cmp	r0, #0
 8003a6c:	f43f ae8e 	beq.w	800378c <UI_GetReg+0x228>
 8003a70:	f006 f83e 	bl	8009af0 <STO_PLL_GetEstimatedBemf>
 8003a74:	1400      	asrs	r0, r0, #16
 8003a76:	e687      	b.n	8003788 <UI_GetReg+0x224>
 8003a78:	4845      	ldr	r0, [pc, #276]	; (8003b90 <UI_GetReg+0x62c>)
 8003a7a:	e685      	b.n	8003788 <UI_GetReg+0x224>
 8003a7c:	6a68      	ldr	r0, [r5, #36]	; 0x24
 8003a7e:	f005 f9c1 	bl	8008e04 <STC_GetMinAppNegativeMecSpeedUnit>
 8003a82:	eb00 0040 	add.w	r0, r0, r0, lsl #1
 8003a86:	0040      	lsls	r0, r0, #1
 8003a88:	e67e      	b.n	8003788 <UI_GetReg+0x224>
 8003a8a:	f7ff fb43 	bl	8003114 <UI_GetSelectedMC>
 8003a8e:	e67b      	b.n	8003788 <UI_GetReg+0x224>
 8003a90:	6828      	ldr	r0, [r5, #0]
 8003a92:	f003 fe59 	bl	8007748 <PID_GetKIDivisor>
 8003a96:	e677      	b.n	8003788 <UI_GetReg+0x224>
 8003a98:	6828      	ldr	r0, [r5, #0]
 8003a9a:	f003 fe53 	bl	8007744 <PID_GetKPDivisor>
 8003a9e:	e673      	b.n	8003788 <UI_GetReg+0x224>
 8003aa0:	4630      	mov	r0, r6
 8003aa2:	f7fd fc39 	bl	8001318 <MCI_GetControlMode>
 8003aa6:	2801      	cmp	r0, #1
 8003aa8:	4630      	mov	r0, r6
 8003aaa:	d044      	beq.n	8003b36 <UI_GetReg+0x5d2>
 8003aac:	f7fd fc6c 	bl	8001388 <MCI_GetMecSpeedRefUnit>
 8003ab0:	eb00 0040 	add.w	r0, r0, r0, lsl #1
 8003ab4:	0040      	lsls	r0, r0, #1
 8003ab6:	e667      	b.n	8003788 <UI_GetReg+0x224>
 8003ab8:	6868      	ldr	r0, [r5, #4]
 8003aba:	f003 fe39 	bl	8007730 <PID_GetKP>
 8003abe:	e663      	b.n	8003788 <UI_GetReg+0x224>
 8003ac0:	6aa8      	ldr	r0, [r5, #40]	; 0x28
 8003ac2:	f005 fa59 	bl	8008f78 <STM_GetFaultState>
 8003ac6:	e65f      	b.n	8003788 <UI_GetReg+0x224>
 8003ac8:	68a8      	ldr	r0, [r5, #8]
 8003aca:	f003 fe41 	bl	8007750 <PID_GetKD>
 8003ace:	e65b      	b.n	8003788 <UI_GetReg+0x224>
 8003ad0:	68a8      	ldr	r0, [r5, #8]
 8003ad2:	f003 fe31 	bl	8007738 <PID_GetKI>
 8003ad6:	e657      	b.n	8003788 <UI_GetReg+0x224>
 8003ad8:	4630      	mov	r0, r6
 8003ada:	f7fd fc69 	bl	80013b0 <MCI_GetIqd>
 8003ade:	1400      	asrs	r0, r0, #16
 8003ae0:	e652      	b.n	8003788 <UI_GetReg+0x224>
 8003ae2:	4630      	mov	r0, r6
 8003ae4:	f7fd fc64 	bl	80013b0 <MCI_GetIqd>
 8003ae8:	b200      	sxth	r0, r0
 8003aea:	e64d      	b.n	8003788 <UI_GetReg+0x224>
 8003aec:	2000      	movs	r0, #0
 8003aee:	7010      	strb	r0, [r2, #0]
 8003af0:	e64a      	b.n	8003788 <UI_GetReg+0x224>
 8003af2:	2b09      	cmp	r3, #9
 8003af4:	69a8      	ldr	r0, [r5, #24]
 8003af6:	d1b8      	bne.n	8003a6a <UI_GetReg+0x506>
 8003af8:	e7b6      	b.n	8003a68 <UI_GetReg+0x504>
 8003afa:	2b09      	cmp	r3, #9
 8003afc:	69a8      	ldr	r0, [r5, #24]
 8003afe:	f47f af11 	bne.w	8003924 <UI_GetReg+0x3c0>
 8003b02:	e70e      	b.n	8003922 <UI_GetReg+0x3be>
 8003b04:	2b09      	cmp	r3, #9
 8003b06:	69a8      	ldr	r0, [r5, #24]
 8003b08:	f47f af21 	bne.w	800394e <UI_GetReg+0x3ea>
 8003b0c:	e71e      	b.n	800394c <UI_GetReg+0x3e8>
 8003b0e:	2b09      	cmp	r3, #9
 8003b10:	69a8      	ldr	r0, [r5, #24]
 8003b12:	f47f aef3 	bne.w	80038fc <UI_GetReg+0x398>
 8003b16:	e6f0      	b.n	80038fa <UI_GetReg+0x396>
 8003b18:	2b09      	cmp	r3, #9
 8003b1a:	69a8      	ldr	r0, [r5, #24]
 8003b1c:	f47f aeda 	bne.w	80038d4 <UI_GetReg+0x370>
 8003b20:	e6d7      	b.n	80038d2 <UI_GetReg+0x36e>
 8003b22:	2b09      	cmp	r3, #9
 8003b24:	69a8      	ldr	r0, [r5, #24]
 8003b26:	f47f af59 	bne.w	80039dc <UI_GetReg+0x478>
 8003b2a:	e756      	b.n	80039da <UI_GetReg+0x476>
 8003b2c:	2b09      	cmp	r3, #9
 8003b2e:	69a8      	ldr	r0, [r5, #24]
 8003b30:	f47f aeb8 	bne.w	80038a4 <UI_GetReg+0x340>
 8003b34:	e6b5      	b.n	80038a2 <UI_GetReg+0x33e>
 8003b36:	f7fd fc13 	bl	8001360 <MCI_GetLastRampFinalSpeed>
 8003b3a:	eb00 0040 	add.w	r0, r0, r0, lsl #1
 8003b3e:	0040      	lsls	r0, r0, #1
 8003b40:	e622      	b.n	8003788 <UI_GetReg+0x224>
 8003b42:	2b09      	cmp	r3, #9
 8003b44:	69a8      	ldr	r0, [r5, #24]
 8003b46:	f47f af5d 	bne.w	8003a04 <UI_GetReg+0x4a0>
 8003b4a:	e75a      	b.n	8003a02 <UI_GetReg+0x49e>
 8003b4c:	2b09      	cmp	r3, #9
 8003b4e:	69a8      	ldr	r0, [r5, #24]
 8003b50:	f47f af26 	bne.w	80039a0 <UI_GetReg+0x43c>
 8003b54:	e723      	b.n	800399e <UI_GetReg+0x43a>
 8003b56:	2b09      	cmp	r3, #9
 8003b58:	69a8      	ldr	r0, [r5, #24]
 8003b5a:	f47f af0d 	bne.w	8003978 <UI_GetReg+0x414>
 8003b5e:	e70a      	b.n	8003976 <UI_GetReg+0x412>
 8003b60:	2b09      	cmp	r3, #9
 8003b62:	69a8      	ldr	r0, [r5, #24]
 8003b64:	d100      	bne.n	8003b68 <UI_GetReg+0x604>
 8003b66:	69e8      	ldr	r0, [r5, #28]
 8003b68:	2800      	cmp	r0, #0
 8003b6a:	f43f ae41 	beq.w	80037f0 <UI_GetReg+0x28c>
 8003b6e:	aa0f      	add	r2, sp, #60	; 0x3c
 8003b70:	a90e      	add	r1, sp, #56	; 0x38
 8003b72:	f005 ffe9 	bl	8009b48 <STO_GetPLLGains>
 8003b76:	e63b      	b.n	80037f0 <UI_GetReg+0x28c>
 8003b78:	2b09      	cmp	r3, #9
 8003b7a:	69a8      	ldr	r0, [r5, #24]
 8003b7c:	d100      	bne.n	8003b80 <UI_GetReg+0x61c>
 8003b7e:	69e8      	ldr	r0, [r5, #28]
 8003b80:	2800      	cmp	r0, #0
 8003b82:	f43f ae44 	beq.w	800380e <UI_GetReg+0x2aa>
 8003b86:	aa0f      	add	r2, sp, #60	; 0x3c
 8003b88:	a90e      	add	r1, sp, #56	; 0x38
 8003b8a:	f005 ffdd 	bl	8009b48 <STO_GetPLLGains>
 8003b8e:	e63e      	b.n	800380e <UI_GetReg+0x2aa>
 8003b90:	34a6847a 	.word	0x34a6847a

08003b94 <SystemInit>:
 8003b94:	4b05      	ldr	r3, [pc, #20]	; (8003bac <SystemInit+0x18>)
 8003b96:	f8d3 2088 	ldr.w	r2, [r3, #136]	; 0x88
 8003b9a:	f04f 6100 	mov.w	r1, #134217728	; 0x8000000
 8003b9e:	f442 0270 	orr.w	r2, r2, #15728640	; 0xf00000
 8003ba2:	f8c3 2088 	str.w	r2, [r3, #136]	; 0x88
 8003ba6:	6099      	str	r1, [r3, #8]
 8003ba8:	4770      	bx	lr
 8003baa:	bf00      	nop
 8003bac:	e000ed00 	.word	0xe000ed00

08003bb0 <HAL_InitTick>:
 8003bb0:	b538      	push	{r3, r4, r5, lr}
 8003bb2:	4b0f      	ldr	r3, [pc, #60]	; (8003bf0 <HAL_InitTick+0x40>)
 8003bb4:	681b      	ldr	r3, [r3, #0]
 8003bb6:	b90b      	cbnz	r3, 8003bbc <HAL_InitTick+0xc>
 8003bb8:	2001      	movs	r0, #1
 8003bba:	bd38      	pop	{r3, r4, r5, pc}
 8003bbc:	490d      	ldr	r1, [pc, #52]	; (8003bf4 <HAL_InitTick+0x44>)
 8003bbe:	f44f 727a 	mov.w	r2, #1000	; 0x3e8
 8003bc2:	4605      	mov	r5, r0
 8003bc4:	fbb2 f3f3 	udiv	r3, r2, r3
 8003bc8:	6808      	ldr	r0, [r1, #0]
 8003bca:	fbb0 f0f3 	udiv	r0, r0, r3
 8003bce:	f000 ff8f 	bl	8004af0 <HAL_SYSTICK_Config>
 8003bd2:	4604      	mov	r4, r0
 8003bd4:	2800      	cmp	r0, #0
 8003bd6:	d1ef      	bne.n	8003bb8 <HAL_InitTick+0x8>
 8003bd8:	2d0f      	cmp	r5, #15
 8003bda:	d8ed      	bhi.n	8003bb8 <HAL_InitTick+0x8>
 8003bdc:	4602      	mov	r2, r0
 8003bde:	4629      	mov	r1, r5
 8003be0:	f04f 30ff 	mov.w	r0, #4294967295
 8003be4:	f000 ff40 	bl	8004a68 <HAL_NVIC_SetPriority>
 8003be8:	4b03      	ldr	r3, [pc, #12]	; (8003bf8 <HAL_InitTick+0x48>)
 8003bea:	4620      	mov	r0, r4
 8003bec:	601d      	str	r5, [r3, #0]
 8003bee:	bd38      	pop	{r3, r4, r5, pc}
 8003bf0:	2000073c 	.word	0x2000073c
 8003bf4:	20000738 	.word	0x20000738
 8003bf8:	20000740 	.word	0x20000740

08003bfc <HAL_Init>:
 8003bfc:	b500      	push	{lr}
 8003bfe:	2003      	movs	r0, #3
 8003c00:	b083      	sub	sp, #12
 8003c02:	f000 ff1f 	bl	8004a44 <HAL_NVIC_SetPriorityGrouping>
 8003c06:	2004      	movs	r0, #4
 8003c08:	f7ff ffd2 	bl	8003bb0 <HAL_InitTick>
 8003c0c:	b118      	cbz	r0, 8003c16 <HAL_Init+0x1a>
 8003c0e:	2001      	movs	r0, #1
 8003c10:	b003      	add	sp, #12
 8003c12:	f85d fb04 	ldr.w	pc, [sp], #4
 8003c16:	9001      	str	r0, [sp, #4]
 8003c18:	f7fe fe56 	bl	80028c8 <HAL_MspInit>
 8003c1c:	9801      	ldr	r0, [sp, #4]
 8003c1e:	b003      	add	sp, #12
 8003c20:	f85d fb04 	ldr.w	pc, [sp], #4

08003c24 <HAL_IncTick>:
 8003c24:	4a03      	ldr	r2, [pc, #12]	; (8003c34 <HAL_IncTick+0x10>)
 8003c26:	4904      	ldr	r1, [pc, #16]	; (8003c38 <HAL_IncTick+0x14>)
 8003c28:	6813      	ldr	r3, [r2, #0]
 8003c2a:	6809      	ldr	r1, [r1, #0]
 8003c2c:	440b      	add	r3, r1
 8003c2e:	6013      	str	r3, [r2, #0]
 8003c30:	4770      	bx	lr
 8003c32:	bf00      	nop
 8003c34:	20000cb0 	.word	0x20000cb0
 8003c38:	2000073c 	.word	0x2000073c

08003c3c <HAL_GetTick>:
 8003c3c:	4b01      	ldr	r3, [pc, #4]	; (8003c44 <HAL_GetTick+0x8>)
 8003c3e:	6818      	ldr	r0, [r3, #0]
 8003c40:	4770      	bx	lr
 8003c42:	bf00      	nop
 8003c44:	20000cb0 	.word	0x20000cb0

08003c48 <HAL_Delay>:
 8003c48:	b538      	push	{r3, r4, r5, lr}
 8003c4a:	4604      	mov	r4, r0
 8003c4c:	f7ff fff6 	bl	8003c3c <HAL_GetTick>
 8003c50:	1c63      	adds	r3, r4, #1
 8003c52:	4605      	mov	r5, r0
 8003c54:	d002      	beq.n	8003c5c <HAL_Delay+0x14>
 8003c56:	4b04      	ldr	r3, [pc, #16]	; (8003c68 <HAL_Delay+0x20>)
 8003c58:	681b      	ldr	r3, [r3, #0]
 8003c5a:	441c      	add	r4, r3
 8003c5c:	f7ff ffee 	bl	8003c3c <HAL_GetTick>
 8003c60:	1b40      	subs	r0, r0, r5
 8003c62:	42a0      	cmp	r0, r4
 8003c64:	d3fa      	bcc.n	8003c5c <HAL_Delay+0x14>
 8003c66:	bd38      	pop	{r3, r4, r5, pc}
 8003c68:	2000073c 	.word	0x2000073c

08003c6c <HAL_ADC_Init>:
 8003c6c:	b570      	push	{r4, r5, r6, lr}
 8003c6e:	b082      	sub	sp, #8
 8003c70:	2300      	movs	r3, #0
 8003c72:	9301      	str	r3, [sp, #4]
 8003c74:	2800      	cmp	r0, #0
 8003c76:	f000 80a1 	beq.w	8003dbc <HAL_ADC_Init+0x150>
 8003c7a:	6dc5      	ldr	r5, [r0, #92]	; 0x5c
 8003c7c:	4604      	mov	r4, r0
 8003c7e:	2d00      	cmp	r5, #0
 8003c80:	f000 8091 	beq.w	8003da6 <HAL_ADC_Init+0x13a>
 8003c84:	6822      	ldr	r2, [r4, #0]
 8003c86:	6893      	ldr	r3, [r2, #8]
 8003c88:	009d      	lsls	r5, r3, #2
 8003c8a:	d505      	bpl.n	8003c98 <HAL_ADC_Init+0x2c>
 8003c8c:	6893      	ldr	r3, [r2, #8]
 8003c8e:	f023 4320 	bic.w	r3, r3, #2684354560	; 0xa0000000
 8003c92:	f023 033f 	bic.w	r3, r3, #63	; 0x3f
 8003c96:	6093      	str	r3, [r2, #8]
 8003c98:	6893      	ldr	r3, [r2, #8]
 8003c9a:	00d8      	lsls	r0, r3, #3
 8003c9c:	d417      	bmi.n	8003cce <HAL_ADC_Init+0x62>
 8003c9e:	4b75      	ldr	r3, [pc, #468]	; (8003e74 <HAL_ADC_Init+0x208>)
 8003ca0:	6891      	ldr	r1, [r2, #8]
 8003ca2:	681b      	ldr	r3, [r3, #0]
 8003ca4:	4874      	ldr	r0, [pc, #464]	; (8003e78 <HAL_ADC_Init+0x20c>)
 8003ca6:	099b      	lsrs	r3, r3, #6
 8003ca8:	f021 4110 	bic.w	r1, r1, #2415919104	; 0x90000000
 8003cac:	fba0 0303 	umull	r0, r3, r0, r3
 8003cb0:	f021 013f 	bic.w	r1, r1, #63	; 0x3f
 8003cb4:	099b      	lsrs	r3, r3, #6
 8003cb6:	f041 5180 	orr.w	r1, r1, #268435456	; 0x10000000
 8003cba:	6091      	str	r1, [r2, #8]
 8003cbc:	9301      	str	r3, [sp, #4]
 8003cbe:	9b01      	ldr	r3, [sp, #4]
 8003cc0:	b12b      	cbz	r3, 8003cce <HAL_ADC_Init+0x62>
 8003cc2:	9b01      	ldr	r3, [sp, #4]
 8003cc4:	3b01      	subs	r3, #1
 8003cc6:	9301      	str	r3, [sp, #4]
 8003cc8:	9b01      	ldr	r3, [sp, #4]
 8003cca:	2b00      	cmp	r3, #0
 8003ccc:	d1f9      	bne.n	8003cc2 <HAL_ADC_Init+0x56>
 8003cce:	6893      	ldr	r3, [r2, #8]
 8003cd0:	00d9      	lsls	r1, r3, #3
 8003cd2:	d45a      	bmi.n	8003d8a <HAL_ADC_Init+0x11e>
 8003cd4:	6de3      	ldr	r3, [r4, #92]	; 0x5c
 8003cd6:	f043 0310 	orr.w	r3, r3, #16
 8003cda:	65e3      	str	r3, [r4, #92]	; 0x5c
 8003cdc:	6e23      	ldr	r3, [r4, #96]	; 0x60
 8003cde:	f043 0301 	orr.w	r3, r3, #1
 8003ce2:	6623      	str	r3, [r4, #96]	; 0x60
 8003ce4:	6893      	ldr	r3, [r2, #8]
 8003ce6:	f013 0f04 	tst.w	r3, #4
 8003cea:	f04f 0001 	mov.w	r0, #1
 8003cee:	6de3      	ldr	r3, [r4, #92]	; 0x5c
 8003cf0:	d152      	bne.n	8003d98 <HAL_ADC_Init+0x12c>
 8003cf2:	06db      	lsls	r3, r3, #27
 8003cf4:	d450      	bmi.n	8003d98 <HAL_ADC_Init+0x12c>
 8003cf6:	6de3      	ldr	r3, [r4, #92]	; 0x5c
 8003cf8:	f423 7381 	bic.w	r3, r3, #258	; 0x102
 8003cfc:	f043 0302 	orr.w	r3, r3, #2
 8003d00:	65e3      	str	r3, [r4, #92]	; 0x5c
 8003d02:	6893      	ldr	r3, [r2, #8]
 8003d04:	07de      	lsls	r6, r3, #31
 8003d06:	d409      	bmi.n	8003d1c <HAL_ADC_Init+0xb0>
 8003d08:	f04f 43a0 	mov.w	r3, #1342177280	; 0x50000000
 8003d0c:	495b      	ldr	r1, [pc, #364]	; (8003e7c <HAL_ADC_Init+0x210>)
 8003d0e:	689b      	ldr	r3, [r3, #8]
 8003d10:	6889      	ldr	r1, [r1, #8]
 8003d12:	07cd      	lsls	r5, r1, #31
 8003d14:	f003 0301 	and.w	r3, r3, #1
 8003d18:	f140 8083 	bpl.w	8003e22 <HAL_ADC_Init+0x1b6>
 8003d1c:	e9d4 1502 	ldrd	r1, r5, [r4, #8]
 8003d20:	6be3      	ldr	r3, [r4, #60]	; 0x3c
 8003d22:	432b      	orrs	r3, r5
 8003d24:	430b      	orrs	r3, r1
 8003d26:	7f65      	ldrb	r5, [r4, #29]
 8003d28:	f894 1024 	ldrb.w	r1, [r4, #36]	; 0x24
 8003d2c:	ea43 3345 	orr.w	r3, r3, r5, lsl #13
 8003d30:	2901      	cmp	r1, #1
 8003d32:	ea43 4301 	orr.w	r3, r3, r1, lsl #16
 8003d36:	d103      	bne.n	8003d40 <HAL_ADC_Init+0xd4>
 8003d38:	6aa1      	ldr	r1, [r4, #40]	; 0x28
 8003d3a:	3901      	subs	r1, #1
 8003d3c:	ea43 4341 	orr.w	r3, r3, r1, lsl #17
 8003d40:	6ae1      	ldr	r1, [r4, #44]	; 0x2c
 8003d42:	b121      	cbz	r1, 8003d4e <HAL_ADC_Init+0xe2>
 8003d44:	6b25      	ldr	r5, [r4, #48]	; 0x30
 8003d46:	f401 7178 	and.w	r1, r1, #992	; 0x3e0
 8003d4a:	4329      	orrs	r1, r5
 8003d4c:	430b      	orrs	r3, r1
 8003d4e:	68d6      	ldr	r6, [r2, #12]
 8003d50:	494b      	ldr	r1, [pc, #300]	; (8003e80 <HAL_ADC_Init+0x214>)
 8003d52:	6b65      	ldr	r5, [r4, #52]	; 0x34
 8003d54:	4031      	ands	r1, r6
 8003d56:	430b      	orrs	r3, r1
 8003d58:	60d3      	str	r3, [r2, #12]
 8003d5a:	6913      	ldr	r3, [r2, #16]
 8003d5c:	f023 6340 	bic.w	r3, r3, #201326592	; 0xc000000
 8003d60:	432b      	orrs	r3, r5
 8003d62:	6113      	str	r3, [r2, #16]
 8003d64:	6893      	ldr	r3, [r2, #8]
 8003d66:	0759      	lsls	r1, r3, #29
 8003d68:	d52b      	bpl.n	8003dc2 <HAL_ADC_Init+0x156>
 8003d6a:	6893      	ldr	r3, [r2, #8]
 8003d6c:	6963      	ldr	r3, [r4, #20]
 8003d6e:	2b01      	cmp	r3, #1
 8003d70:	d04f      	beq.n	8003e12 <HAL_ADC_Init+0x1a6>
 8003d72:	6b13      	ldr	r3, [r2, #48]	; 0x30
 8003d74:	f023 030f 	bic.w	r3, r3, #15
 8003d78:	6313      	str	r3, [r2, #48]	; 0x30
 8003d7a:	6de3      	ldr	r3, [r4, #92]	; 0x5c
 8003d7c:	f023 0303 	bic.w	r3, r3, #3
 8003d80:	f043 0301 	orr.w	r3, r3, #1
 8003d84:	65e3      	str	r3, [r4, #92]	; 0x5c
 8003d86:	b002      	add	sp, #8
 8003d88:	bd70      	pop	{r4, r5, r6, pc}
 8003d8a:	6893      	ldr	r3, [r2, #8]
 8003d8c:	f013 0f04 	tst.w	r3, #4
 8003d90:	f04f 0000 	mov.w	r0, #0
 8003d94:	6de3      	ldr	r3, [r4, #92]	; 0x5c
 8003d96:	d0ac      	beq.n	8003cf2 <HAL_ADC_Init+0x86>
 8003d98:	6de3      	ldr	r3, [r4, #92]	; 0x5c
 8003d9a:	2001      	movs	r0, #1
 8003d9c:	f043 0310 	orr.w	r3, r3, #16
 8003da0:	65e3      	str	r3, [r4, #92]	; 0x5c
 8003da2:	b002      	add	sp, #8
 8003da4:	bd70      	pop	{r4, r5, r6, pc}
 8003da6:	f7fe fdb3 	bl	8002910 <HAL_ADC_MspInit>
 8003daa:	6822      	ldr	r2, [r4, #0]
 8003dac:	6625      	str	r5, [r4, #96]	; 0x60
 8003dae:	6893      	ldr	r3, [r2, #8]
 8003db0:	f884 5058 	strb.w	r5, [r4, #88]	; 0x58
 8003db4:	009d      	lsls	r5, r3, #2
 8003db6:	f57f af6f 	bpl.w	8003c98 <HAL_ADC_Init+0x2c>
 8003dba:	e767      	b.n	8003c8c <HAL_ADC_Init+0x20>
 8003dbc:	2001      	movs	r0, #1
 8003dbe:	b002      	add	sp, #8
 8003dc0:	bd70      	pop	{r4, r5, r6, pc}
 8003dc2:	6893      	ldr	r3, [r2, #8]
 8003dc4:	071b      	lsls	r3, r3, #28
 8003dc6:	d4d1      	bmi.n	8003d6c <HAL_ADC_Init+0x100>
 8003dc8:	68d1      	ldr	r1, [r2, #12]
 8003dca:	f894 3038 	ldrb.w	r3, [r4, #56]	; 0x38
 8003dce:	7f26      	ldrb	r6, [r4, #28]
 8003dd0:	6925      	ldr	r5, [r4, #16]
 8003dd2:	f421 4180 	bic.w	r1, r1, #16384	; 0x4000
 8003dd6:	005b      	lsls	r3, r3, #1
 8003dd8:	f021 0102 	bic.w	r1, r1, #2
 8003ddc:	ea43 3386 	orr.w	r3, r3, r6, lsl #14
 8003de0:	430b      	orrs	r3, r1
 8003de2:	60d3      	str	r3, [r2, #12]
 8003de4:	6913      	ldr	r3, [r2, #16]
 8003de6:	b33d      	cbz	r5, 8003e38 <HAL_ADC_Init+0x1cc>
 8003de8:	f443 3380 	orr.w	r3, r3, #65536	; 0x10000
 8003dec:	6113      	str	r3, [r2, #16]
 8003dee:	f8d2 30c0 	ldr.w	r3, [r2, #192]	; 0xc0
 8003df2:	f423 537f 	bic.w	r3, r3, #16320	; 0x3fc0
 8003df6:	f023 033f 	bic.w	r3, r3, #63	; 0x3f
 8003dfa:	432b      	orrs	r3, r5
 8003dfc:	f8c2 30c0 	str.w	r3, [r2, #192]	; 0xc0
 8003e00:	f894 3040 	ldrb.w	r3, [r4, #64]	; 0x40
 8003e04:	2b01      	cmp	r3, #1
 8003e06:	d023      	beq.n	8003e50 <HAL_ADC_Init+0x1e4>
 8003e08:	6913      	ldr	r3, [r2, #16]
 8003e0a:	f023 0301 	bic.w	r3, r3, #1
 8003e0e:	6113      	str	r3, [r2, #16]
 8003e10:	e7ac      	b.n	8003d6c <HAL_ADC_Init+0x100>
 8003e12:	6b11      	ldr	r1, [r2, #48]	; 0x30
 8003e14:	6a23      	ldr	r3, [r4, #32]
 8003e16:	f021 010f 	bic.w	r1, r1, #15
 8003e1a:	3b01      	subs	r3, #1
 8003e1c:	430b      	orrs	r3, r1
 8003e1e:	6313      	str	r3, [r2, #48]	; 0x30
 8003e20:	e7ab      	b.n	8003d7a <HAL_ADC_Init+0x10e>
 8003e22:	2b00      	cmp	r3, #0
 8003e24:	f47f af7a 	bne.w	8003d1c <HAL_ADC_Init+0xb0>
 8003e28:	4916      	ldr	r1, [pc, #88]	; (8003e84 <HAL_ADC_Init+0x218>)
 8003e2a:	6865      	ldr	r5, [r4, #4]
 8003e2c:	688b      	ldr	r3, [r1, #8]
 8003e2e:	f423 137c 	bic.w	r3, r3, #4128768	; 0x3f0000
 8003e32:	432b      	orrs	r3, r5
 8003e34:	608b      	str	r3, [r1, #8]
 8003e36:	e771      	b.n	8003d1c <HAL_ADC_Init+0xb0>
 8003e38:	f423 3380 	bic.w	r3, r3, #65536	; 0x10000
 8003e3c:	6113      	str	r3, [r2, #16]
 8003e3e:	f8d2 30c0 	ldr.w	r3, [r2, #192]	; 0xc0
 8003e42:	f423 537f 	bic.w	r3, r3, #16320	; 0x3fc0
 8003e46:	f023 033f 	bic.w	r3, r3, #63	; 0x3f
 8003e4a:	f8c2 30c0 	str.w	r3, [r2, #192]	; 0xc0
 8003e4e:	e7d7      	b.n	8003e00 <HAL_ADC_Init+0x194>
 8003e50:	e9d4 3111 	ldrd	r3, r1, [r4, #68]	; 0x44
 8003e54:	6ce6      	ldr	r6, [r4, #76]	; 0x4c
 8003e56:	6d25      	ldr	r5, [r4, #80]	; 0x50
 8003e58:	430b      	orrs	r3, r1
 8003e5a:	6911      	ldr	r1, [r2, #16]
 8003e5c:	f043 0301 	orr.w	r3, r3, #1
 8003e60:	4333      	orrs	r3, r6
 8003e62:	f421 61ff 	bic.w	r1, r1, #2040	; 0x7f8
 8003e66:	432b      	orrs	r3, r5
 8003e68:	f021 0104 	bic.w	r1, r1, #4
 8003e6c:	430b      	orrs	r3, r1
 8003e6e:	6113      	str	r3, [r2, #16]
 8003e70:	e77c      	b.n	8003d6c <HAL_ADC_Init+0x100>
 8003e72:	bf00      	nop
 8003e74:	20000738 	.word	0x20000738
 8003e78:	053e2d63 	.word	0x053e2d63
 8003e7c:	50000100 	.word	0x50000100
 8003e80:	fff04007 	.word	0xfff04007
 8003e84:	50000300 	.word	0x50000300

08003e88 <HAL_ADC_ConfigChannel>:
 8003e88:	e92d 41f0 	stmdb	sp!, {r4, r5, r6, r7, r8, lr}
 8003e8c:	4603      	mov	r3, r0
 8003e8e:	b082      	sub	sp, #8
 8003e90:	f893 2058 	ldrb.w	r2, [r3, #88]	; 0x58
 8003e94:	2000      	movs	r0, #0
 8003e96:	2a01      	cmp	r2, #1
 8003e98:	9001      	str	r0, [sp, #4]
 8003e9a:	f000 8103 	beq.w	80040a4 <HAL_ADC_ConfigChannel+0x21c>
 8003e9e:	681c      	ldr	r4, [r3, #0]
 8003ea0:	68a2      	ldr	r2, [r4, #8]
 8003ea2:	2001      	movs	r0, #1
 8003ea4:	0756      	lsls	r6, r2, #29
 8003ea6:	f883 0058 	strb.w	r0, [r3, #88]	; 0x58
 8003eaa:	d44f      	bmi.n	8003f4c <HAL_ADC_ConfigChannel+0xc4>
 8003eac:	e9d1 2000 	ldrd	r2, r0, [r1]
 8003eb0:	0986      	lsrs	r6, r0, #6
 8003eb2:	f104 0530 	add.w	r5, r4, #48	; 0x30
 8003eb6:	f006 060c 	and.w	r6, r6, #12
 8003eba:	f000 001f 	and.w	r0, r0, #31
 8003ebe:	5977      	ldr	r7, [r6, r5]
 8003ec0:	f04f 0c1f 	mov.w	ip, #31
 8003ec4:	fa0c fc00 	lsl.w	ip, ip, r0
 8003ec8:	f3c2 6284 	ubfx	r2, r2, #26, #5
 8003ecc:	ea27 070c 	bic.w	r7, r7, ip
 8003ed0:	4082      	lsls	r2, r0
 8003ed2:	433a      	orrs	r2, r7
 8003ed4:	5172      	str	r2, [r6, r5]
 8003ed6:	68a2      	ldr	r2, [r4, #8]
 8003ed8:	0755      	lsls	r5, r2, #29
 8003eda:	d549      	bpl.n	8003f70 <HAL_ADC_ConfigChannel+0xe8>
 8003edc:	68a2      	ldr	r2, [r4, #8]
 8003ede:	680a      	ldr	r2, [r1, #0]
 8003ee0:	68a0      	ldr	r0, [r4, #8]
 8003ee2:	07c0      	lsls	r0, r0, #31
 8003ee4:	d413      	bmi.n	8003f0e <HAL_ADC_ConfigChannel+0x86>
 8003ee6:	68ce      	ldr	r6, [r1, #12]
 8003ee8:	48c1      	ldr	r0, [pc, #772]	; (80041f0 <HAL_ADC_ConfigChannel+0x368>)
 8003eea:	f8d4 50b0 	ldr.w	r5, [r4, #176]	; 0xb0
 8003eee:	f8df c328 	ldr.w	ip, [pc, #808]	; 8004218 <HAL_ADC_ConfigChannel+0x390>
 8003ef2:	f006 0718 	and.w	r7, r6, #24
 8003ef6:	40f8      	lsrs	r0, r7
 8003ef8:	f3c2 0712 	ubfx	r7, r2, #0, #19
 8003efc:	4010      	ands	r0, r2
 8003efe:	ea25 0507 	bic.w	r5, r5, r7
 8003f02:	4328      	orrs	r0, r5
 8003f04:	4566      	cmp	r6, ip
 8003f06:	f8c4 00b0 	str.w	r0, [r4, #176]	; 0xb0
 8003f0a:	f000 808b 	beq.w	8004024 <HAL_ADC_ConfigChannel+0x19c>
 8003f0e:	49b9      	ldr	r1, [pc, #740]	; (80041f4 <HAL_ADC_ConfigChannel+0x36c>)
 8003f10:	420a      	tst	r2, r1
 8003f12:	d02b      	beq.n	8003f6c <HAL_ADC_ConfigChannel+0xe4>
 8003f14:	4db8      	ldr	r5, [pc, #736]	; (80041f8 <HAL_ADC_ConfigChannel+0x370>)
 8003f16:	49b9      	ldr	r1, [pc, #740]	; (80041fc <HAL_ADC_ConfigChannel+0x374>)
 8003f18:	68a8      	ldr	r0, [r5, #8]
 8003f1a:	428a      	cmp	r2, r1
 8003f1c:	f000 76e0 	and.w	r6, r0, #29360128	; 0x1c00000
 8003f20:	d01e      	beq.n	8003f60 <HAL_ADC_ConfigChannel+0xd8>
 8003f22:	49b7      	ldr	r1, [pc, #732]	; (8004200 <HAL_ADC_ConfigChannel+0x378>)
 8003f24:	428a      	cmp	r2, r1
 8003f26:	d01b      	beq.n	8003f60 <HAL_ADC_ConfigChannel+0xd8>
 8003f28:	49b6      	ldr	r1, [pc, #728]	; (8004204 <HAL_ADC_ConfigChannel+0x37c>)
 8003f2a:	428a      	cmp	r2, r1
 8003f2c:	f040 80be 	bne.w	80040ac <HAL_ADC_ConfigChannel+0x224>
 8003f30:	f010 7080 	ands.w	r0, r0, #16777216	; 0x1000000
 8003f34:	d11a      	bne.n	8003f6c <HAL_ADC_ConfigChannel+0xe4>
 8003f36:	4ab4      	ldr	r2, [pc, #720]	; (8004208 <HAL_ADC_ConfigChannel+0x380>)
 8003f38:	4294      	cmp	r4, r2
 8003f3a:	d017      	beq.n	8003f6c <HAL_ADC_ConfigChannel+0xe4>
 8003f3c:	68aa      	ldr	r2, [r5, #8]
 8003f3e:	f022 72e0 	bic.w	r2, r2, #29360128	; 0x1c00000
 8003f42:	4316      	orrs	r6, r2
 8003f44:	f046 7680 	orr.w	r6, r6, #16777216	; 0x1000000
 8003f48:	60ae      	str	r6, [r5, #8]
 8003f4a:	e003      	b.n	8003f54 <HAL_ADC_ConfigChannel+0xcc>
 8003f4c:	6dda      	ldr	r2, [r3, #92]	; 0x5c
 8003f4e:	f042 0220 	orr.w	r2, r2, #32
 8003f52:	65da      	str	r2, [r3, #92]	; 0x5c
 8003f54:	2200      	movs	r2, #0
 8003f56:	f883 2058 	strb.w	r2, [r3, #88]	; 0x58
 8003f5a:	b002      	add	sp, #8
 8003f5c:	e8bd 81f0 	ldmia.w	sp!, {r4, r5, r6, r7, r8, pc}
 8003f60:	0202      	lsls	r2, r0, #8
 8003f62:	d403      	bmi.n	8003f6c <HAL_ADC_ConfigChannel+0xe4>
 8003f64:	f1b4 4fa0 	cmp.w	r4, #1342177280	; 0x50000000
 8003f68:	f000 80cb 	beq.w	8004102 <HAL_ADC_ConfigChannel+0x27a>
 8003f6c:	2000      	movs	r0, #0
 8003f6e:	e7f1      	b.n	8003f54 <HAL_ADC_ConfigChannel+0xcc>
 8003f70:	68a5      	ldr	r5, [r4, #8]
 8003f72:	680a      	ldr	r2, [r1, #0]
 8003f74:	f015 0508 	ands.w	r5, r5, #8
 8003f78:	d1b2      	bne.n	8003ee0 <HAL_ADC_ConfigChannel+0x58>
 8003f7a:	688e      	ldr	r6, [r1, #8]
 8003f7c:	f3c2 5e04 	ubfx	lr, r2, #20, #5
 8003f80:	2007      	movs	r0, #7
 8003f82:	0dd2      	lsrs	r2, r2, #23
 8003f84:	fa00 f00e 	lsl.w	r0, r0, lr
 8003f88:	f1b6 4f00 	cmp.w	r6, #2147483648	; 0x80000000
 8003f8c:	f002 0204 	and.w	r2, r2, #4
 8003f90:	ea6f 0000 	mvn.w	r0, r0
 8003f94:	f104 0c14 	add.w	ip, r4, #20
 8003f98:	f000 811a 	beq.w	80041d0 <HAL_ADC_ConfigChannel+0x348>
 8003f9c:	f852 700c 	ldr.w	r7, [r2, ip]
 8003fa0:	fa06 f60e 	lsl.w	r6, r6, lr
 8003fa4:	4038      	ands	r0, r7
 8003fa6:	4306      	orrs	r6, r0
 8003fa8:	f842 600c 	str.w	r6, [r2, ip]
 8003fac:	6962      	ldr	r2, [r4, #20]
 8003fae:	f022 4200 	bic.w	r2, r2, #2147483648	; 0x80000000
 8003fb2:	6162      	str	r2, [r4, #20]
 8003fb4:	f8d1 c010 	ldr.w	ip, [r1, #16]
 8003fb8:	68e7      	ldr	r7, [r4, #12]
 8003fba:	680a      	ldr	r2, [r1, #0]
 8003fbc:	f1bc 0f04 	cmp.w	ip, #4
 8003fc0:	f104 0060 	add.w	r0, r4, #96	; 0x60
 8003fc4:	f000 80bb 	beq.w	800413e <HAL_ADC_ConfigChannel+0x2b6>
 8003fc8:	694e      	ldr	r6, [r1, #20]
 8003fca:	f850 802c 	ldr.w	r8, [r0, ip, lsl #2]
 8003fce:	f8df e24c 	ldr.w	lr, [pc, #588]	; 800421c <HAL_ADC_ConfigChannel+0x394>
 8003fd2:	f3c7 07c1 	ubfx	r7, r7, #3, #2
 8003fd6:	007f      	lsls	r7, r7, #1
 8003fd8:	f002 42f8 	and.w	r2, r2, #2080374784	; 0x7c000000
 8003fdc:	f042 4200 	orr.w	r2, r2, #2147483648	; 0x80000000
 8003fe0:	40be      	lsls	r6, r7
 8003fe2:	4316      	orrs	r6, r2
 8003fe4:	ea08 0e0e 	and.w	lr, r8, lr
 8003fe8:	ea46 060e 	orr.w	r6, r6, lr
 8003fec:	f840 602c 	str.w	r6, [r0, ip, lsl #2]
 8003ff0:	690f      	ldr	r7, [r1, #16]
 8003ff2:	698e      	ldr	r6, [r1, #24]
 8003ff4:	f850 2027 	ldr.w	r2, [r0, r7, lsl #2]
 8003ff8:	f891 c01c 	ldrb.w	ip, [r1, #28]
 8003ffc:	f022 7280 	bic.w	r2, r2, #16777216	; 0x1000000
 8004000:	4332      	orrs	r2, r6
 8004002:	f840 2027 	str.w	r2, [r0, r7, lsl #2]
 8004006:	690e      	ldr	r6, [r1, #16]
 8004008:	f850 2026 	ldr.w	r2, [r0, r6, lsl #2]
 800400c:	f1bc 0f01 	cmp.w	ip, #1
 8004010:	f022 7200 	bic.w	r2, r2, #33554432	; 0x2000000
 8004014:	bf08      	it	eq
 8004016:	f04f 7500 	moveq.w	r5, #33554432	; 0x2000000
 800401a:	4315      	orrs	r5, r2
 800401c:	f840 5026 	str.w	r5, [r0, r6, lsl #2]
 8004020:	680a      	ldr	r2, [r1, #0]
 8004022:	e75d      	b.n	8003ee0 <HAL_ADC_ConfigChannel+0x58>
 8004024:	2f00      	cmp	r7, #0
 8004026:	d055      	beq.n	80040d4 <HAL_ADC_ConfigChannel+0x24c>
 8004028:	fa92 f0a2 	rbit	r0, r2
 800402c:	fab0 f080 	clz	r0, r0
 8004030:	3001      	adds	r0, #1
 8004032:	f000 001f 	and.w	r0, r0, #31
 8004036:	2809      	cmp	r0, #9
 8004038:	f200 80f2 	bhi.w	8004220 <HAL_ADC_ConfigChannel+0x398>
 800403c:	fa92 f6a2 	rbit	r6, r2
 8004040:	fab6 f686 	clz	r6, r6
 8004044:	fa92 f0a2 	rbit	r0, r2
 8004048:	fab0 f080 	clz	r0, r0
 800404c:	3001      	adds	r0, #1
 800404e:	3601      	adds	r6, #1
 8004050:	2501      	movs	r5, #1
 8004052:	f000 001f 	and.w	r0, r0, #31
 8004056:	06b6      	lsls	r6, r6, #26
 8004058:	fa05 f000 	lsl.w	r0, r5, r0
 800405c:	f006 46f8 	and.w	r6, r6, #2080374784	; 0x7c000000
 8004060:	4306      	orrs	r6, r0
 8004062:	fa92 f5a2 	rbit	r5, r2
 8004066:	fab5 f585 	clz	r5, r5
 800406a:	3501      	adds	r5, #1
 800406c:	f005 051f 	and.w	r5, r5, #31
 8004070:	eb05 0045 	add.w	r0, r5, r5, lsl #1
 8004074:	0500      	lsls	r0, r0, #20
 8004076:	4330      	orrs	r0, r6
 8004078:	ea4f 5cd0 	mov.w	ip, r0, lsr #23
 800407c:	f00c 0c04 	and.w	ip, ip, #4
 8004080:	f104 0714 	add.w	r7, r4, #20
 8004084:	f3c0 5004 	ubfx	r0, r0, #20, #5
 8004088:	f85c 5007 	ldr.w	r5, [ip, r7]
 800408c:	688e      	ldr	r6, [r1, #8]
 800408e:	2207      	movs	r2, #7
 8004090:	4082      	lsls	r2, r0
 8004092:	ea25 0502 	bic.w	r5, r5, r2
 8004096:	fa06 f000 	lsl.w	r0, r6, r0
 800409a:	4328      	orrs	r0, r5
 800409c:	f84c 0007 	str.w	r0, [ip, r7]
 80040a0:	680a      	ldr	r2, [r1, #0]
 80040a2:	e734      	b.n	8003f0e <HAL_ADC_ConfigChannel+0x86>
 80040a4:	2002      	movs	r0, #2
 80040a6:	b002      	add	sp, #8
 80040a8:	e8bd 81f0 	ldmia.w	sp!, {r4, r5, r6, r7, r8, pc}
 80040ac:	4957      	ldr	r1, [pc, #348]	; (800420c <HAL_ADC_ConfigChannel+0x384>)
 80040ae:	428a      	cmp	r2, r1
 80040b0:	f47f af5c 	bne.w	8003f6c <HAL_ADC_ConfigChannel+0xe4>
 80040b4:	f410 0080 	ands.w	r0, r0, #4194304	; 0x400000
 80040b8:	f47f af58 	bne.w	8003f6c <HAL_ADC_ConfigChannel+0xe4>
 80040bc:	4a52      	ldr	r2, [pc, #328]	; (8004208 <HAL_ADC_ConfigChannel+0x380>)
 80040be:	4294      	cmp	r4, r2
 80040c0:	f43f af54 	beq.w	8003f6c <HAL_ADC_ConfigChannel+0xe4>
 80040c4:	68aa      	ldr	r2, [r5, #8]
 80040c6:	f022 72e0 	bic.w	r2, r2, #29360128	; 0x1c00000
 80040ca:	4332      	orrs	r2, r6
 80040cc:	f442 0280 	orr.w	r2, r2, #4194304	; 0x400000
 80040d0:	60aa      	str	r2, [r5, #8]
 80040d2:	e73f      	b.n	8003f54 <HAL_ADC_ConfigChannel+0xcc>
 80040d4:	0e92      	lsrs	r2, r2, #26
 80040d6:	3201      	adds	r2, #1
 80040d8:	f002 051f 	and.w	r5, r2, #31
 80040dc:	2601      	movs	r6, #1
 80040de:	0692      	lsls	r2, r2, #26
 80040e0:	f002 42f8 	and.w	r2, r2, #2080374784	; 0x7c000000
 80040e4:	40ae      	lsls	r6, r5
 80040e6:	2d09      	cmp	r5, #9
 80040e8:	ea46 0602 	orr.w	r6, r6, r2
 80040ec:	eb05 0045 	add.w	r0, r5, r5, lsl #1
 80040f0:	d9c0      	bls.n	8004074 <HAL_ADC_ConfigChannel+0x1ec>
 80040f2:	f1a0 021e 	sub.w	r2, r0, #30
 80040f6:	0512      	lsls	r2, r2, #20
 80040f8:	f042 7200 	orr.w	r2, r2, #33554432	; 0x2000000
 80040fc:	ea42 0006 	orr.w	r0, r2, r6
 8004100:	e7ba      	b.n	8004078 <HAL_ADC_ConfigChannel+0x1f0>
 8004102:	483d      	ldr	r0, [pc, #244]	; (80041f8 <HAL_ADC_ConfigChannel+0x370>)
 8004104:	4a42      	ldr	r2, [pc, #264]	; (8004210 <HAL_ADC_ConfigChannel+0x388>)
 8004106:	6881      	ldr	r1, [r0, #8]
 8004108:	4c42      	ldr	r4, [pc, #264]	; (8004214 <HAL_ADC_ConfigChannel+0x38c>)
 800410a:	f021 71e0 	bic.w	r1, r1, #29360128	; 0x1c00000
 800410e:	430e      	orrs	r6, r1
 8004110:	f446 0600 	orr.w	r6, r6, #8388608	; 0x800000
 8004114:	6086      	str	r6, [r0, #8]
 8004116:	6812      	ldr	r2, [r2, #0]
 8004118:	0992      	lsrs	r2, r2, #6
 800411a:	fba4 1202 	umull	r1, r2, r4, r2
 800411e:	0992      	lsrs	r2, r2, #6
 8004120:	eb02 0242 	add.w	r2, r2, r2, lsl #1
 8004124:	0092      	lsls	r2, r2, #2
 8004126:	9201      	str	r2, [sp, #4]
 8004128:	9a01      	ldr	r2, [sp, #4]
 800412a:	2a00      	cmp	r2, #0
 800412c:	f43f af1e 	beq.w	8003f6c <HAL_ADC_ConfigChannel+0xe4>
 8004130:	9a01      	ldr	r2, [sp, #4]
 8004132:	3a01      	subs	r2, #1
 8004134:	9201      	str	r2, [sp, #4]
 8004136:	9a01      	ldr	r2, [sp, #4]
 8004138:	2a00      	cmp	r2, #0
 800413a:	d1f9      	bne.n	8004130 <HAL_ADC_ConfigChannel+0x2a8>
 800413c:	e716      	b.n	8003f6c <HAL_ADC_ConfigChannel+0xe4>
 800413e:	6e25      	ldr	r5, [r4, #96]	; 0x60
 8004140:	6e25      	ldr	r5, [r4, #96]	; 0x60
 8004142:	f3c2 0712 	ubfx	r7, r2, #0, #19
 8004146:	f3c5 6584 	ubfx	r5, r5, #26, #5
 800414a:	2f00      	cmp	r7, #0
 800414c:	d14a      	bne.n	80041e4 <HAL_ADC_ConfigChannel+0x35c>
 800414e:	f3c2 6684 	ubfx	r6, r2, #26, #5
 8004152:	42b5      	cmp	r5, r6
 8004154:	d106      	bne.n	8004164 <HAL_ADC_ConfigChannel+0x2dc>
 8004156:	6e22      	ldr	r2, [r4, #96]	; 0x60
 8004158:	f022 4200 	bic.w	r2, r2, #2147483648	; 0x80000000
 800415c:	6622      	str	r2, [r4, #96]	; 0x60
 800415e:	680a      	ldr	r2, [r1, #0]
 8004160:	f3c2 0712 	ubfx	r7, r2, #0, #19
 8004164:	6845      	ldr	r5, [r0, #4]
 8004166:	6846      	ldr	r6, [r0, #4]
 8004168:	f3c6 6684 	ubfx	r6, r6, #26, #5
 800416c:	2f00      	cmp	r7, #0
 800416e:	d179      	bne.n	8004264 <HAL_ADC_ConfigChannel+0x3dc>
 8004170:	f3c2 6584 	ubfx	r5, r2, #26, #5
 8004174:	42ae      	cmp	r6, r5
 8004176:	f040 8095 	bne.w	80042a4 <HAL_ADC_ConfigChannel+0x41c>
 800417a:	6842      	ldr	r2, [r0, #4]
 800417c:	f022 4200 	bic.w	r2, r2, #2147483648	; 0x80000000
 8004180:	6042      	str	r2, [r0, #4]
 8004182:	680a      	ldr	r2, [r1, #0]
 8004184:	6885      	ldr	r5, [r0, #8]
 8004186:	6886      	ldr	r6, [r0, #8]
 8004188:	f3c2 0512 	ubfx	r5, r2, #0, #19
 800418c:	f3c6 6684 	ubfx	r6, r6, #26, #5
 8004190:	2d00      	cmp	r5, #0
 8004192:	d171      	bne.n	8004278 <HAL_ADC_ConfigChannel+0x3f0>
 8004194:	f3c2 6584 	ubfx	r5, r2, #26, #5
 8004198:	42ae      	cmp	r6, r5
 800419a:	f100 070c 	add.w	r7, r0, #12
 800419e:	d17c      	bne.n	800429a <HAL_ADC_ConfigChannel+0x412>
 80041a0:	6882      	ldr	r2, [r0, #8]
 80041a2:	f022 4200 	bic.w	r2, r2, #2147483648	; 0x80000000
 80041a6:	6082      	str	r2, [r0, #8]
 80041a8:	680a      	ldr	r2, [r1, #0]
 80041aa:	6838      	ldr	r0, [r7, #0]
 80041ac:	6838      	ldr	r0, [r7, #0]
 80041ae:	f3c2 0512 	ubfx	r5, r2, #0, #19
 80041b2:	f3c0 6084 	ubfx	r0, r0, #26, #5
 80041b6:	2d00      	cmp	r5, #0
 80041b8:	d16a      	bne.n	8004290 <HAL_ADC_ConfigChannel+0x408>
 80041ba:	f3c2 6584 	ubfx	r5, r2, #26, #5
 80041be:	4285      	cmp	r5, r0
 80041c0:	f47f ae8e 	bne.w	8003ee0 <HAL_ADC_ConfigChannel+0x58>
 80041c4:	683a      	ldr	r2, [r7, #0]
 80041c6:	f022 4200 	bic.w	r2, r2, #2147483648	; 0x80000000
 80041ca:	603a      	str	r2, [r7, #0]
 80041cc:	680a      	ldr	r2, [r1, #0]
 80041ce:	e687      	b.n	8003ee0 <HAL_ADC_ConfigChannel+0x58>
 80041d0:	f852 600c 	ldr.w	r6, [r2, ip]
 80041d4:	4030      	ands	r0, r6
 80041d6:	f842 000c 	str.w	r0, [r2, ip]
 80041da:	6962      	ldr	r2, [r4, #20]
 80041dc:	f042 4200 	orr.w	r2, r2, #2147483648	; 0x80000000
 80041e0:	6162      	str	r2, [r4, #20]
 80041e2:	e6e7      	b.n	8003fb4 <HAL_ADC_ConfigChannel+0x12c>
 80041e4:	fa92 f6a2 	rbit	r6, r2
 80041e8:	fab6 f686 	clz	r6, r6
 80041ec:	e7b1      	b.n	8004152 <HAL_ADC_ConfigChannel+0x2ca>
 80041ee:	bf00      	nop
 80041f0:	0007ffff 	.word	0x0007ffff
 80041f4:	80080000 	.word	0x80080000
 80041f8:	50000300 	.word	0x50000300
 80041fc:	c3210000 	.word	0xc3210000
 8004200:	90c00010 	.word	0x90c00010
 8004204:	c7520000 	.word	0xc7520000
 8004208:	50000100 	.word	0x50000100
 800420c:	cb840000 	.word	0xcb840000
 8004210:	20000738 	.word	0x20000738
 8004214:	053e2d63 	.word	0x053e2d63
 8004218:	407f0000 	.word	0x407f0000
 800421c:	03fff000 	.word	0x03fff000
 8004220:	fa92 f6a2 	rbit	r6, r2
 8004224:	fab6 f686 	clz	r6, r6
 8004228:	fa92 f0a2 	rbit	r0, r2
 800422c:	fab0 f080 	clz	r0, r0
 8004230:	3001      	adds	r0, #1
 8004232:	3601      	adds	r6, #1
 8004234:	2501      	movs	r5, #1
 8004236:	f000 001f 	and.w	r0, r0, #31
 800423a:	06b6      	lsls	r6, r6, #26
 800423c:	fa05 f000 	lsl.w	r0, r5, r0
 8004240:	f006 46f8 	and.w	r6, r6, #2080374784	; 0x7c000000
 8004244:	4306      	orrs	r6, r0
 8004246:	fa92 f5a2 	rbit	r5, r2
 800424a:	fab5 f585 	clz	r5, r5
 800424e:	3501      	adds	r5, #1
 8004250:	f005 051f 	and.w	r5, r5, #31
 8004254:	eb05 0545 	add.w	r5, r5, r5, lsl #1
 8004258:	f1a5 021e 	sub.w	r2, r5, #30
 800425c:	0512      	lsls	r2, r2, #20
 800425e:	f042 7200 	orr.w	r2, r2, #33554432	; 0x2000000
 8004262:	e74b      	b.n	80040fc <HAL_ADC_ConfigChannel+0x274>
 8004264:	fa92 f5a2 	rbit	r5, r2
 8004268:	fab5 f585 	clz	r5, r5
 800426c:	42ae      	cmp	r6, r5
 800426e:	d084      	beq.n	800417a <HAL_ADC_ConfigChannel+0x2f2>
 8004270:	6885      	ldr	r5, [r0, #8]
 8004272:	6886      	ldr	r6, [r0, #8]
 8004274:	f3c6 6684 	ubfx	r6, r6, #26, #5
 8004278:	fa92 f5a2 	rbit	r5, r2
 800427c:	fab5 f585 	clz	r5, r5
 8004280:	42b5      	cmp	r5, r6
 8004282:	f100 070c 	add.w	r7, r0, #12
 8004286:	d08b      	beq.n	80041a0 <HAL_ADC_ConfigChannel+0x318>
 8004288:	68c5      	ldr	r5, [r0, #12]
 800428a:	68c0      	ldr	r0, [r0, #12]
 800428c:	f3c0 6084 	ubfx	r0, r0, #26, #5
 8004290:	fa92 f5a2 	rbit	r5, r2
 8004294:	fab5 f585 	clz	r5, r5
 8004298:	e791      	b.n	80041be <HAL_ADC_ConfigChannel+0x336>
 800429a:	68c6      	ldr	r6, [r0, #12]
 800429c:	68c0      	ldr	r0, [r0, #12]
 800429e:	f3c0 6084 	ubfx	r0, r0, #26, #5
 80042a2:	e78c      	b.n	80041be <HAL_ADC_ConfigChannel+0x336>
 80042a4:	6886      	ldr	r6, [r0, #8]
 80042a6:	6886      	ldr	r6, [r0, #8]
 80042a8:	f3c6 6684 	ubfx	r6, r6, #26, #5
 80042ac:	e774      	b.n	8004198 <HAL_ADC_ConfigChannel+0x310>
 80042ae:	bf00      	nop

080042b0 <HAL_ADCEx_InjectedConfigChannel>:
 80042b0:	e92d 43f0 	stmdb	sp!, {r4, r5, r6, r7, r8, r9, lr}
 80042b4:	f890 3058 	ldrb.w	r3, [r0, #88]	; 0x58
 80042b8:	b083      	sub	sp, #12
 80042ba:	2200      	movs	r2, #0
 80042bc:	2b01      	cmp	r3, #1
 80042be:	9201      	str	r2, [sp, #4]
 80042c0:	f000 815f 	beq.w	8004582 <HAL_ADCEx_InjectedConfigChannel+0x2d2>
 80042c4:	6943      	ldr	r3, [r0, #20]
 80042c6:	2201      	movs	r2, #1
 80042c8:	4604      	mov	r4, r0
 80042ca:	f880 2058 	strb.w	r2, [r0, #88]	; 0x58
 80042ce:	2b00      	cmp	r3, #0
 80042d0:	d072      	beq.n	80043b8 <HAL_ADCEx_InjectedConfigChannel+0x108>
 80042d2:	6a0b      	ldr	r3, [r1, #32]
 80042d4:	4293      	cmp	r3, r2
 80042d6:	d06f      	beq.n	80043b8 <HAL_ADCEx_InjectedConfigChannel+0x108>
 80042d8:	6e82      	ldr	r2, [r0, #104]	; 0x68
 80042da:	2a00      	cmp	r2, #0
 80042dc:	f040 812a 	bne.w	8004534 <HAL_ADCEx_InjectedConfigChannel+0x284>
 80042e0:	6a88      	ldr	r0, [r1, #40]	; 0x28
 80042e2:	1e5a      	subs	r2, r3, #1
 80042e4:	2800      	cmp	r0, #0
 80042e6:	f000 822c 	beq.w	8004742 <HAL_ADCEx_InjectedConfigChannel+0x492>
 80042ea:	f000 007c 	and.w	r0, r0, #124	; 0x7c
 80042ee:	6acb      	ldr	r3, [r1, #44]	; 0x2c
 80042f0:	4310      	orrs	r0, r2
 80042f2:	4318      	orrs	r0, r3
 80042f4:	e9d1 3500 	ldrd	r3, r5, [r1]
 80042f8:	66a2      	str	r2, [r4, #104]	; 0x68
 80042fa:	f005 051f 	and.w	r5, r5, #31
 80042fe:	f3c3 6284 	ubfx	r2, r3, #26, #5
 8004302:	40aa      	lsls	r2, r5
 8004304:	4310      	orrs	r0, r2
 8004306:	6822      	ldr	r2, [r4, #0]
 8004308:	6660      	str	r0, [r4, #100]	; 0x64
 800430a:	6890      	ldr	r0, [r2, #8]
 800430c:	0700      	lsls	r0, r0, #28
 800430e:	d410      	bmi.n	8004332 <HAL_ADCEx_InjectedConfigChannel+0x82>
 8004310:	f891 0026 	ldrb.w	r0, [r1, #38]	; 0x26
 8004314:	f891 5025 	ldrb.w	r5, [r1, #37]	; 0x25
 8004318:	0540      	lsls	r0, r0, #21
 800431a:	2d00      	cmp	r5, #0
 800431c:	f040 80ff 	bne.w	800451e <HAL_ADCEx_InjectedConfigChannel+0x26e>
 8004320:	68d5      	ldr	r5, [r2, #12]
 8004322:	f891 6024 	ldrb.w	r6, [r1, #36]	; 0x24
 8004326:	f425 1540 	bic.w	r5, r5, #3145728	; 0x300000
 800432a:	ea40 5006 	orr.w	r0, r0, r6, lsl #20
 800432e:	4328      	orrs	r0, r5
 8004330:	60d0      	str	r0, [r2, #12]
 8004332:	6890      	ldr	r0, [r2, #8]
 8004334:	f010 0004 	ands.w	r0, r0, #4
 8004338:	d057      	beq.n	80043ea <HAL_ADCEx_InjectedConfigChannel+0x13a>
 800433a:	6890      	ldr	r0, [r2, #8]
 800433c:	2000      	movs	r0, #0
 800433e:	6895      	ldr	r5, [r2, #8]
 8004340:	07ef      	lsls	r7, r5, #31
 8004342:	d414      	bmi.n	800436e <HAL_ADCEx_InjectedConfigChannel+0xbe>
 8004344:	68cf      	ldr	r7, [r1, #12]
 8004346:	4dca      	ldr	r5, [pc, #808]	; (8004670 <HAL_ADCEx_InjectedConfigChannel+0x3c0>)
 8004348:	f8d2 60b0 	ldr.w	r6, [r2, #176]	; 0xb0
 800434c:	f8df e34c 	ldr.w	lr, [pc, #844]	; 800469c <HAL_ADCEx_InjectedConfigChannel+0x3ec>
 8004350:	f007 0c18 	and.w	ip, r7, #24
 8004354:	fa25 f50c 	lsr.w	r5, r5, ip
 8004358:	f3c3 0c12 	ubfx	ip, r3, #0, #19
 800435c:	401d      	ands	r5, r3
 800435e:	ea26 060c 	bic.w	r6, r6, ip
 8004362:	4335      	orrs	r5, r6
 8004364:	4577      	cmp	r7, lr
 8004366:	f8c2 50b0 	str.w	r5, [r2, #176]	; 0xb0
 800436a:	f000 810e 	beq.w	800458a <HAL_ADCEx_InjectedConfigChannel+0x2da>
 800436e:	49c1      	ldr	r1, [pc, #772]	; (8004674 <HAL_ADCEx_InjectedConfigChannel+0x3c4>)
 8004370:	420b      	tst	r3, r1
 8004372:	d01b      	beq.n	80043ac <HAL_ADCEx_InjectedConfigChannel+0xfc>
 8004374:	4dc0      	ldr	r5, [pc, #768]	; (8004678 <HAL_ADCEx_InjectedConfigChannel+0x3c8>)
 8004376:	4ec1      	ldr	r6, [pc, #772]	; (800467c <HAL_ADCEx_InjectedConfigChannel+0x3cc>)
 8004378:	68a9      	ldr	r1, [r5, #8]
 800437a:	42b3      	cmp	r3, r6
 800437c:	f001 77e0 	and.w	r7, r1, #29360128	; 0x1c00000
 8004380:	f000 80a7 	beq.w	80044d2 <HAL_ADCEx_InjectedConfigChannel+0x222>
 8004384:	4ebe      	ldr	r6, [pc, #760]	; (8004680 <HAL_ADCEx_InjectedConfigChannel+0x3d0>)
 8004386:	42b3      	cmp	r3, r6
 8004388:	f000 80a3 	beq.w	80044d2 <HAL_ADCEx_InjectedConfigChannel+0x222>
 800438c:	4ebd      	ldr	r6, [pc, #756]	; (8004684 <HAL_ADCEx_InjectedConfigChannel+0x3d4>)
 800438e:	42b3      	cmp	r3, r6
 8004390:	f040 8152 	bne.w	8004638 <HAL_ADCEx_InjectedConfigChannel+0x388>
 8004394:	01ce      	lsls	r6, r1, #7
 8004396:	d409      	bmi.n	80043ac <HAL_ADCEx_InjectedConfigChannel+0xfc>
 8004398:	4bbb      	ldr	r3, [pc, #748]	; (8004688 <HAL_ADCEx_InjectedConfigChannel+0x3d8>)
 800439a:	429a      	cmp	r2, r3
 800439c:	d006      	beq.n	80043ac <HAL_ADCEx_InjectedConfigChannel+0xfc>
 800439e:	68ab      	ldr	r3, [r5, #8]
 80043a0:	f023 73e0 	bic.w	r3, r3, #29360128	; 0x1c00000
 80043a4:	431f      	orrs	r7, r3
 80043a6:	f047 7780 	orr.w	r7, r7, #16777216	; 0x1000000
 80043aa:	60af      	str	r7, [r5, #8]
 80043ac:	2300      	movs	r3, #0
 80043ae:	f884 3058 	strb.w	r3, [r4, #88]	; 0x58
 80043b2:	b003      	add	sp, #12
 80043b4:	e8bd 83f0 	ldmia.w	sp!, {r4, r5, r6, r7, r8, r9, pc}
 80043b8:	e9d1 3000 	ldrd	r3, r0, [r1]
 80043bc:	2809      	cmp	r0, #9
 80043be:	6822      	ldr	r2, [r4, #0]
 80043c0:	d1a3      	bne.n	800430a <HAL_ADCEx_InjectedConfigChannel+0x5a>
 80043c2:	6a88      	ldr	r0, [r1, #40]	; 0x28
 80043c4:	0c5d      	lsrs	r5, r3, #17
 80043c6:	f405 5578 	and.w	r5, r5, #15872	; 0x3e00
 80043ca:	b120      	cbz	r0, 80043d6 <HAL_ADCEx_InjectedConfigChannel+0x126>
 80043cc:	6ace      	ldr	r6, [r1, #44]	; 0x2c
 80043ce:	f000 007c 	and.w	r0, r0, #124	; 0x7c
 80043d2:	4330      	orrs	r0, r6
 80043d4:	4305      	orrs	r5, r0
 80043d6:	6cd0      	ldr	r0, [r2, #76]	; 0x4c
 80043d8:	4eac      	ldr	r6, [pc, #688]	; (800468c <HAL_ADCEx_InjectedConfigChannel+0x3dc>)
 80043da:	4030      	ands	r0, r6
 80043dc:	4328      	orrs	r0, r5
 80043de:	64d0      	str	r0, [r2, #76]	; 0x4c
 80043e0:	6890      	ldr	r0, [r2, #8]
 80043e2:	6665      	str	r5, [r4, #100]	; 0x64
 80043e4:	0700      	lsls	r0, r0, #28
 80043e6:	d4a4      	bmi.n	8004332 <HAL_ADCEx_InjectedConfigChannel+0x82>
 80043e8:	e792      	b.n	8004310 <HAL_ADCEx_InjectedConfigChannel+0x60>
 80043ea:	6895      	ldr	r5, [r2, #8]
 80043ec:	f015 0508 	ands.w	r5, r5, #8
 80043f0:	d1a5      	bne.n	800433e <HAL_ADCEx_InjectedConfigChannel+0x8e>
 80043f2:	6a8e      	ldr	r6, [r1, #40]	; 0x28
 80043f4:	f891 0025 	ldrb.w	r0, [r1, #37]	; 0x25
 80043f8:	2e00      	cmp	r6, #0
 80043fa:	f040 80b5 	bne.w	8004568 <HAL_ADCEx_InjectedConfigChannel+0x2b8>
 80043fe:	2801      	cmp	r0, #1
 8004400:	68d0      	ldr	r0, [r2, #12]
 8004402:	bf0c      	ite	eq
 8004404:	f040 7000 	orreq.w	r0, r0, #33554432	; 0x2000000
 8004408:	f020 7000 	bicne.w	r0, r0, #33554432	; 0x2000000
 800440c:	60d0      	str	r0, [r2, #12]
 800440e:	2000      	movs	r0, #0
 8004410:	f891 6030 	ldrb.w	r6, [r1, #48]	; 0x30
 8004414:	2e01      	cmp	r6, #1
 8004416:	f000 8145 	beq.w	80046a4 <HAL_ADCEx_InjectedConfigChannel+0x3f4>
 800441a:	6916      	ldr	r6, [r2, #16]
 800441c:	f026 0602 	bic.w	r6, r6, #2
 8004420:	6116      	str	r6, [r2, #16]
 8004422:	f3c3 5804 	ubfx	r8, r3, #20, #5
 8004426:	688f      	ldr	r7, [r1, #8]
 8004428:	0ddb      	lsrs	r3, r3, #23
 800442a:	2607      	movs	r6, #7
 800442c:	f003 0e04 	and.w	lr, r3, #4
 8004430:	f102 0c14 	add.w	ip, r2, #20
 8004434:	fa06 f608 	lsl.w	r6, r6, r8
 8004438:	f1b7 4f00 	cmp.w	r7, #2147483648	; 0x80000000
 800443c:	ea6f 0606 	mvn.w	r6, r6
 8004440:	f85e 300c 	ldr.w	r3, [lr, ip]
 8004444:	f000 810b 	beq.w	800465e <HAL_ADCEx_InjectedConfigChannel+0x3ae>
 8004448:	401e      	ands	r6, r3
 800444a:	fa07 f708 	lsl.w	r7, r7, r8
 800444e:	4337      	orrs	r7, r6
 8004450:	f84e 700c 	str.w	r7, [lr, ip]
 8004454:	6953      	ldr	r3, [r2, #20]
 8004456:	f023 4300 	bic.w	r3, r3, #2147483648	; 0x80000000
 800445a:	6153      	str	r3, [r2, #20]
 800445c:	f8d1 e010 	ldr.w	lr, [r1, #16]
 8004460:	68d7      	ldr	r7, [r2, #12]
 8004462:	680b      	ldr	r3, [r1, #0]
 8004464:	f1be 0f04 	cmp.w	lr, #4
 8004468:	f102 0660 	add.w	r6, r2, #96	; 0x60
 800446c:	f000 8126 	beq.w	80046bc <HAL_ADCEx_InjectedConfigChannel+0x40c>
 8004470:	f3c7 0cc1 	ubfx	ip, r7, #3, #2
 8004474:	694f      	ldr	r7, [r1, #20]
 8004476:	f856 902e 	ldr.w	r9, [r6, lr, lsl #2]
 800447a:	f8df 8224 	ldr.w	r8, [pc, #548]	; 80046a0 <HAL_ADCEx_InjectedConfigChannel+0x3f0>
 800447e:	ea4f 0c4c 	mov.w	ip, ip, lsl #1
 8004482:	f003 43f8 	and.w	r3, r3, #2080374784	; 0x7c000000
 8004486:	f043 4300 	orr.w	r3, r3, #2147483648	; 0x80000000
 800448a:	fa07 f70c 	lsl.w	r7, r7, ip
 800448e:	431f      	orrs	r7, r3
 8004490:	ea09 0808 	and.w	r8, r9, r8
 8004494:	ea47 0708 	orr.w	r7, r7, r8
 8004498:	f846 702e 	str.w	r7, [r6, lr, lsl #2]
 800449c:	f8d1 c010 	ldr.w	ip, [r1, #16]
 80044a0:	698f      	ldr	r7, [r1, #24]
 80044a2:	f856 302c 	ldr.w	r3, [r6, ip, lsl #2]
 80044a6:	f891 e01c 	ldrb.w	lr, [r1, #28]
 80044aa:	f023 7380 	bic.w	r3, r3, #16777216	; 0x1000000
 80044ae:	433b      	orrs	r3, r7
 80044b0:	f846 302c 	str.w	r3, [r6, ip, lsl #2]
 80044b4:	690f      	ldr	r7, [r1, #16]
 80044b6:	f856 3027 	ldr.w	r3, [r6, r7, lsl #2]
 80044ba:	f1be 0f01 	cmp.w	lr, #1
 80044be:	f023 7300 	bic.w	r3, r3, #33554432	; 0x2000000
 80044c2:	bf08      	it	eq
 80044c4:	f04f 7500 	moveq.w	r5, #33554432	; 0x2000000
 80044c8:	431d      	orrs	r5, r3
 80044ca:	f846 5027 	str.w	r5, [r6, r7, lsl #2]
 80044ce:	680b      	ldr	r3, [r1, #0]
 80044d0:	e735      	b.n	800433e <HAL_ADCEx_InjectedConfigChannel+0x8e>
 80044d2:	020b      	lsls	r3, r1, #8
 80044d4:	f53f af6a 	bmi.w	80043ac <HAL_ADCEx_InjectedConfigChannel+0xfc>
 80044d8:	f1b2 4fa0 	cmp.w	r2, #1342177280	; 0x50000000
 80044dc:	f47f af66 	bne.w	80043ac <HAL_ADCEx_InjectedConfigChannel+0xfc>
 80044e0:	f8d2 3308 	ldr.w	r3, [r2, #776]	; 0x308
 80044e4:	496a      	ldr	r1, [pc, #424]	; (8004690 <HAL_ADCEx_InjectedConfigChannel+0x3e0>)
 80044e6:	f023 73e0 	bic.w	r3, r3, #29360128	; 0x1c00000
 80044ea:	431f      	orrs	r7, r3
 80044ec:	f447 0700 	orr.w	r7, r7, #8388608	; 0x800000
 80044f0:	f8c2 7308 	str.w	r7, [r2, #776]	; 0x308
 80044f4:	680b      	ldr	r3, [r1, #0]
 80044f6:	4a67      	ldr	r2, [pc, #412]	; (8004694 <HAL_ADCEx_InjectedConfigChannel+0x3e4>)
 80044f8:	099b      	lsrs	r3, r3, #6
 80044fa:	fba2 2303 	umull	r2, r3, r2, r3
 80044fe:	099b      	lsrs	r3, r3, #6
 8004500:	eb03 0343 	add.w	r3, r3, r3, lsl #1
 8004504:	009b      	lsls	r3, r3, #2
 8004506:	9301      	str	r3, [sp, #4]
 8004508:	9b01      	ldr	r3, [sp, #4]
 800450a:	2b00      	cmp	r3, #0
 800450c:	f43f af4e 	beq.w	80043ac <HAL_ADCEx_InjectedConfigChannel+0xfc>
 8004510:	9b01      	ldr	r3, [sp, #4]
 8004512:	3b01      	subs	r3, #1
 8004514:	9301      	str	r3, [sp, #4]
 8004516:	9b01      	ldr	r3, [sp, #4]
 8004518:	2b00      	cmp	r3, #0
 800451a:	d1f9      	bne.n	8004510 <HAL_ADCEx_InjectedConfigChannel+0x260>
 800451c:	e746      	b.n	80043ac <HAL_ADCEx_InjectedConfigChannel+0xfc>
 800451e:	68d5      	ldr	r5, [r2, #12]
 8004520:	f425 1540 	bic.w	r5, r5, #3145728	; 0x300000
 8004524:	4328      	orrs	r0, r5
 8004526:	60d0      	str	r0, [r2, #12]
 8004528:	6890      	ldr	r0, [r2, #8]
 800452a:	f010 0004 	ands.w	r0, r0, #4
 800452e:	f47f af04 	bne.w	800433a <HAL_ADCEx_InjectedConfigChannel+0x8a>
 8004532:	e75a      	b.n	80043ea <HAL_ADCEx_InjectedConfigChannel+0x13a>
 8004534:	e9d1 3000 	ldrd	r3, r0, [r1]
 8004538:	6e66      	ldr	r6, [r4, #100]	; 0x64
 800453a:	f000 001f 	and.w	r0, r0, #31
 800453e:	f3c3 6584 	ubfx	r5, r3, #26, #5
 8004542:	4085      	lsls	r5, r0
 8004544:	4335      	orrs	r5, r6
 8004546:	1e50      	subs	r0, r2, #1
 8004548:	e9c4 5019 	strd	r5, r0, [r4, #100]	; 0x64
 800454c:	6822      	ldr	r2, [r4, #0]
 800454e:	2800      	cmp	r0, #0
 8004550:	f47f aedb 	bne.w	800430a <HAL_ADCEx_InjectedConfigChannel+0x5a>
 8004554:	6cd0      	ldr	r0, [r2, #76]	; 0x4c
 8004556:	4e4d      	ldr	r6, [pc, #308]	; (800468c <HAL_ADCEx_InjectedConfigChannel+0x3dc>)
 8004558:	4030      	ands	r0, r6
 800455a:	4305      	orrs	r5, r0
 800455c:	64d5      	str	r5, [r2, #76]	; 0x4c
 800455e:	6890      	ldr	r0, [r2, #8]
 8004560:	0700      	lsls	r0, r0, #28
 8004562:	f53f aee6 	bmi.w	8004332 <HAL_ADCEx_InjectedConfigChannel+0x82>
 8004566:	e6d3      	b.n	8004310 <HAL_ADCEx_InjectedConfigChannel+0x60>
 8004568:	6ace      	ldr	r6, [r1, #44]	; 0x2c
 800456a:	2e00      	cmp	r6, #0
 800456c:	f43f af47 	beq.w	80043fe <HAL_ADCEx_InjectedConfigChannel+0x14e>
 8004570:	2801      	cmp	r0, #1
 8004572:	f000 8108 	beq.w	8004786 <HAL_ADCEx_InjectedConfigChannel+0x4d6>
 8004576:	68d0      	ldr	r0, [r2, #12]
 8004578:	f020 7000 	bic.w	r0, r0, #33554432	; 0x2000000
 800457c:	60d0      	str	r0, [r2, #12]
 800457e:	4628      	mov	r0, r5
 8004580:	e746      	b.n	8004410 <HAL_ADCEx_InjectedConfigChannel+0x160>
 8004582:	2002      	movs	r0, #2
 8004584:	b003      	add	sp, #12
 8004586:	e8bd 83f0 	ldmia.w	sp!, {r4, r5, r6, r7, r8, r9, pc}
 800458a:	f1bc 0f00 	cmp.w	ip, #0
 800458e:	d12b      	bne.n	80045e8 <HAL_ADCEx_InjectedConfigChannel+0x338>
 8004590:	0e9b      	lsrs	r3, r3, #26
 8004592:	3301      	adds	r3, #1
 8004594:	f003 061f 	and.w	r6, r3, #31
 8004598:	069d      	lsls	r5, r3, #26
 800459a:	2301      	movs	r3, #1
 800459c:	40b3      	lsls	r3, r6
 800459e:	f005 45f8 	and.w	r5, r5, #2080374784	; 0x7c000000
 80045a2:	2e09      	cmp	r6, #9
 80045a4:	ea45 0503 	orr.w	r5, r5, r3
 80045a8:	eb06 0346 	add.w	r3, r6, r6, lsl #1
 80045ac:	d942      	bls.n	8004634 <HAL_ADCEx_InjectedConfigChannel+0x384>
 80045ae:	3b1e      	subs	r3, #30
 80045b0:	051b      	lsls	r3, r3, #20
 80045b2:	f043 7300 	orr.w	r3, r3, #33554432	; 0x2000000
 80045b6:	432b      	orrs	r3, r5
 80045b8:	ea4f 5cd3 	mov.w	ip, r3, lsr #23
 80045bc:	f00c 0c04 	and.w	ip, ip, #4
 80045c0:	f102 0714 	add.w	r7, r2, #20
 80045c4:	f3c3 5304 	ubfx	r3, r3, #20, #5
 80045c8:	f85c 6007 	ldr.w	r6, [ip, r7]
 80045cc:	688d      	ldr	r5, [r1, #8]
 80045ce:	f04f 0e07 	mov.w	lr, #7
 80045d2:	fa0e fe03 	lsl.w	lr, lr, r3
 80045d6:	ea26 060e 	bic.w	r6, r6, lr
 80045da:	fa05 f303 	lsl.w	r3, r5, r3
 80045de:	4333      	orrs	r3, r6
 80045e0:	f84c 3007 	str.w	r3, [ip, r7]
 80045e4:	680b      	ldr	r3, [r1, #0]
 80045e6:	e6c2      	b.n	800436e <HAL_ADCEx_InjectedConfigChannel+0xbe>
 80045e8:	fa93 f5a3 	rbit	r5, r3
 80045ec:	fab5 f585 	clz	r5, r5
 80045f0:	3501      	adds	r5, #1
 80045f2:	f005 051f 	and.w	r5, r5, #31
 80045f6:	2d09      	cmp	r5, #9
 80045f8:	f200 80a8 	bhi.w	800474c <HAL_ADCEx_InjectedConfigChannel+0x49c>
 80045fc:	fa93 f5a3 	rbit	r5, r3
 8004600:	fab5 f585 	clz	r5, r5
 8004604:	fa93 f6a3 	rbit	r6, r3
 8004608:	fab6 f686 	clz	r6, r6
 800460c:	3601      	adds	r6, #1
 800460e:	3501      	adds	r5, #1
 8004610:	2701      	movs	r7, #1
 8004612:	f006 061f 	and.w	r6, r6, #31
 8004616:	06ad      	lsls	r5, r5, #26
 8004618:	fa07 f606 	lsl.w	r6, r7, r6
 800461c:	f005 45f8 	and.w	r5, r5, #2080374784	; 0x7c000000
 8004620:	4335      	orrs	r5, r6
 8004622:	fa93 f3a3 	rbit	r3, r3
 8004626:	fab3 f383 	clz	r3, r3
 800462a:	443b      	add	r3, r7
 800462c:	f003 031f 	and.w	r3, r3, #31
 8004630:	eb03 0343 	add.w	r3, r3, r3, lsl #1
 8004634:	051b      	lsls	r3, r3, #20
 8004636:	e7be      	b.n	80045b6 <HAL_ADCEx_InjectedConfigChannel+0x306>
 8004638:	4e17      	ldr	r6, [pc, #92]	; (8004698 <HAL_ADCEx_InjectedConfigChannel+0x3e8>)
 800463a:	42b3      	cmp	r3, r6
 800463c:	f47f aeb6 	bne.w	80043ac <HAL_ADCEx_InjectedConfigChannel+0xfc>
 8004640:	0249      	lsls	r1, r1, #9
 8004642:	f53f aeb3 	bmi.w	80043ac <HAL_ADCEx_InjectedConfigChannel+0xfc>
 8004646:	4b10      	ldr	r3, [pc, #64]	; (8004688 <HAL_ADCEx_InjectedConfigChannel+0x3d8>)
 8004648:	429a      	cmp	r2, r3
 800464a:	f43f aeaf 	beq.w	80043ac <HAL_ADCEx_InjectedConfigChannel+0xfc>
 800464e:	68ab      	ldr	r3, [r5, #8]
 8004650:	f023 73e0 	bic.w	r3, r3, #29360128	; 0x1c00000
 8004654:	431f      	orrs	r7, r3
 8004656:	f447 0780 	orr.w	r7, r7, #4194304	; 0x400000
 800465a:	60af      	str	r7, [r5, #8]
 800465c:	e6a6      	b.n	80043ac <HAL_ADCEx_InjectedConfigChannel+0xfc>
 800465e:	401e      	ands	r6, r3
 8004660:	f84e 600c 	str.w	r6, [lr, ip]
 8004664:	6953      	ldr	r3, [r2, #20]
 8004666:	f043 4300 	orr.w	r3, r3, #2147483648	; 0x80000000
 800466a:	6153      	str	r3, [r2, #20]
 800466c:	e6f6      	b.n	800445c <HAL_ADCEx_InjectedConfigChannel+0x1ac>
 800466e:	bf00      	nop
 8004670:	0007ffff 	.word	0x0007ffff
 8004674:	80080000 	.word	0x80080000
 8004678:	50000300 	.word	0x50000300
 800467c:	c3210000 	.word	0xc3210000
 8004680:	90c00010 	.word	0x90c00010
 8004684:	c7520000 	.word	0xc7520000
 8004688:	50000100 	.word	0x50000100
 800468c:	04104000 	.word	0x04104000
 8004690:	20000738 	.word	0x20000738
 8004694:	053e2d63 	.word	0x053e2d63
 8004698:	cb840000 	.word	0xcb840000
 800469c:	407f0000 	.word	0x407f0000
 80046a0:	03fff000 	.word	0x03fff000
 80046a4:	6b8f      	ldr	r7, [r1, #56]	; 0x38
 80046a6:	6b4e      	ldr	r6, [r1, #52]	; 0x34
 80046a8:	f8d2 c010 	ldr.w	ip, [r2, #16]
 80046ac:	433e      	orrs	r6, r7
 80046ae:	f046 0602 	orr.w	r6, r6, #2
 80046b2:	f42c 77ff 	bic.w	r7, ip, #510	; 0x1fe
 80046b6:	433e      	orrs	r6, r7
 80046b8:	6116      	str	r6, [r2, #16]
 80046ba:	e6b2      	b.n	8004422 <HAL_ADCEx_InjectedConfigChannel+0x172>
 80046bc:	6e15      	ldr	r5, [r2, #96]	; 0x60
 80046be:	6e15      	ldr	r5, [r2, #96]	; 0x60
 80046c0:	f3c3 0c12 	ubfx	ip, r3, #0, #19
 80046c4:	f3c5 6584 	ubfx	r5, r5, #26, #5
 80046c8:	f1bc 0f00 	cmp.w	ip, #0
 80046cc:	d03b      	beq.n	8004746 <HAL_ADCEx_InjectedConfigChannel+0x496>
 80046ce:	fa93 f7a3 	rbit	r7, r3
 80046d2:	fab7 f787 	clz	r7, r7
 80046d6:	42bd      	cmp	r5, r7
 80046d8:	d106      	bne.n	80046e8 <HAL_ADCEx_InjectedConfigChannel+0x438>
 80046da:	6e13      	ldr	r3, [r2, #96]	; 0x60
 80046dc:	f023 4300 	bic.w	r3, r3, #2147483648	; 0x80000000
 80046e0:	6613      	str	r3, [r2, #96]	; 0x60
 80046e2:	680b      	ldr	r3, [r1, #0]
 80046e4:	f3c3 0c12 	ubfx	ip, r3, #0, #19
 80046e8:	6875      	ldr	r5, [r6, #4]
 80046ea:	6877      	ldr	r7, [r6, #4]
 80046ec:	f3c7 6784 	ubfx	r7, r7, #26, #5
 80046f0:	f1bc 0f00 	cmp.w	ip, #0
 80046f4:	d14c      	bne.n	8004790 <HAL_ADCEx_InjectedConfigChannel+0x4e0>
 80046f6:	f3c3 6584 	ubfx	r5, r3, #26, #5
 80046fa:	42af      	cmp	r7, r5
 80046fc:	d172      	bne.n	80047e4 <HAL_ADCEx_InjectedConfigChannel+0x534>
 80046fe:	6873      	ldr	r3, [r6, #4]
 8004700:	f023 4300 	bic.w	r3, r3, #2147483648	; 0x80000000
 8004704:	6073      	str	r3, [r6, #4]
 8004706:	680b      	ldr	r3, [r1, #0]
 8004708:	68b5      	ldr	r5, [r6, #8]
 800470a:	68b7      	ldr	r7, [r6, #8]
 800470c:	f3c3 0512 	ubfx	r5, r3, #0, #19
 8004710:	f3c7 6784 	ubfx	r7, r7, #26, #5
 8004714:	2d00      	cmp	r5, #0
 8004716:	d145      	bne.n	80047a4 <HAL_ADCEx_InjectedConfigChannel+0x4f4>
 8004718:	f3c3 6584 	ubfx	r5, r3, #26, #5
 800471c:	42af      	cmp	r7, r5
 800471e:	f106 0c0c 	add.w	ip, r6, #12
 8004722:	d047      	beq.n	80047b4 <HAL_ADCEx_InjectedConfigChannel+0x504>
 8004724:	68f7      	ldr	r7, [r6, #12]
 8004726:	68f6      	ldr	r6, [r6, #12]
 8004728:	f3c6 6684 	ubfx	r6, r6, #26, #5
 800472c:	42b5      	cmp	r5, r6
 800472e:	f47f ae06 	bne.w	800433e <HAL_ADCEx_InjectedConfigChannel+0x8e>
 8004732:	f8dc 3000 	ldr.w	r3, [ip]
 8004736:	f023 4300 	bic.w	r3, r3, #2147483648	; 0x80000000
 800473a:	f8cc 3000 	str.w	r3, [ip]
 800473e:	680b      	ldr	r3, [r1, #0]
 8004740:	e5fd      	b.n	800433e <HAL_ADCEx_InjectedConfigChannel+0x8e>
 8004742:	4610      	mov	r0, r2
 8004744:	e5d6      	b.n	80042f4 <HAL_ADCEx_InjectedConfigChannel+0x44>
 8004746:	f3c3 6784 	ubfx	r7, r3, #26, #5
 800474a:	e7c4      	b.n	80046d6 <HAL_ADCEx_InjectedConfigChannel+0x426>
 800474c:	fa93 f5a3 	rbit	r5, r3
 8004750:	fab5 f585 	clz	r5, r5
 8004754:	fa93 f6a3 	rbit	r6, r3
 8004758:	fab6 f686 	clz	r6, r6
 800475c:	3601      	adds	r6, #1
 800475e:	3501      	adds	r5, #1
 8004760:	2701      	movs	r7, #1
 8004762:	f006 061f 	and.w	r6, r6, #31
 8004766:	06ad      	lsls	r5, r5, #26
 8004768:	fa07 f606 	lsl.w	r6, r7, r6
 800476c:	f005 45f8 	and.w	r5, r5, #2080374784	; 0x7c000000
 8004770:	4335      	orrs	r5, r6
 8004772:	fa93 f3a3 	rbit	r3, r3
 8004776:	fab3 f383 	clz	r3, r3
 800477a:	443b      	add	r3, r7
 800477c:	f003 031f 	and.w	r3, r3, #31
 8004780:	eb03 0343 	add.w	r3, r3, r3, lsl #1
 8004784:	e713      	b.n	80045ae <HAL_ADCEx_InjectedConfigChannel+0x2fe>
 8004786:	6de6      	ldr	r6, [r4, #92]	; 0x5c
 8004788:	f046 0620 	orr.w	r6, r6, #32
 800478c:	65e6      	str	r6, [r4, #92]	; 0x5c
 800478e:	e63f      	b.n	8004410 <HAL_ADCEx_InjectedConfigChannel+0x160>
 8004790:	fa93 f5a3 	rbit	r5, r3
 8004794:	fab5 f585 	clz	r5, r5
 8004798:	42af      	cmp	r7, r5
 800479a:	d0b0      	beq.n	80046fe <HAL_ADCEx_InjectedConfigChannel+0x44e>
 800479c:	68b5      	ldr	r5, [r6, #8]
 800479e:	68b7      	ldr	r7, [r6, #8]
 80047a0:	f3c7 6784 	ubfx	r7, r7, #26, #5
 80047a4:	fa93 f5a3 	rbit	r5, r3
 80047a8:	fab5 f585 	clz	r5, r5
 80047ac:	42bd      	cmp	r5, r7
 80047ae:	f106 0c0c 	add.w	ip, r6, #12
 80047b2:	d112      	bne.n	80047da <HAL_ADCEx_InjectedConfigChannel+0x52a>
 80047b4:	68b3      	ldr	r3, [r6, #8]
 80047b6:	f023 4300 	bic.w	r3, r3, #2147483648	; 0x80000000
 80047ba:	60b3      	str	r3, [r6, #8]
 80047bc:	680b      	ldr	r3, [r1, #0]
 80047be:	f8dc 5000 	ldr.w	r5, [ip]
 80047c2:	f8dc 6000 	ldr.w	r6, [ip]
 80047c6:	f3c3 0512 	ubfx	r5, r3, #0, #19
 80047ca:	f3c6 6684 	ubfx	r6, r6, #26, #5
 80047ce:	b175      	cbz	r5, 80047ee <HAL_ADCEx_InjectedConfigChannel+0x53e>
 80047d0:	fa93 f5a3 	rbit	r5, r3
 80047d4:	fab5 f585 	clz	r5, r5
 80047d8:	e7a8      	b.n	800472c <HAL_ADCEx_InjectedConfigChannel+0x47c>
 80047da:	68f5      	ldr	r5, [r6, #12]
 80047dc:	68f6      	ldr	r6, [r6, #12]
 80047de:	f3c6 6684 	ubfx	r6, r6, #26, #5
 80047e2:	e7f5      	b.n	80047d0 <HAL_ADCEx_InjectedConfigChannel+0x520>
 80047e4:	68b7      	ldr	r7, [r6, #8]
 80047e6:	68b7      	ldr	r7, [r6, #8]
 80047e8:	f3c7 6784 	ubfx	r7, r7, #26, #5
 80047ec:	e796      	b.n	800471c <HAL_ADCEx_InjectedConfigChannel+0x46c>
 80047ee:	f3c3 6584 	ubfx	r5, r3, #26, #5
 80047f2:	e79b      	b.n	800472c <HAL_ADCEx_InjectedConfigChannel+0x47c>

080047f4 <HAL_ADCEx_MultiModeConfigChannel>:
 80047f4:	f890 2058 	ldrb.w	r2, [r0, #88]	; 0x58
 80047f8:	2a01      	cmp	r2, #1
 80047fa:	d047      	beq.n	800488c <HAL_ADCEx_MultiModeConfigChannel+0x98>
 80047fc:	b5f0      	push	{r4, r5, r6, r7, lr}
 80047fe:	6804      	ldr	r4, [r0, #0]
 8004800:	680e      	ldr	r6, [r1, #0]
 8004802:	4603      	mov	r3, r0
 8004804:	f1b4 4fa0 	cmp.w	r4, #1342177280	; 0x50000000
 8004808:	f04f 0001 	mov.w	r0, #1
 800480c:	f883 0058 	strb.w	r0, [r3, #88]	; 0x58
 8004810:	d007      	beq.n	8004822 <HAL_ADCEx_MultiModeConfigChannel+0x2e>
 8004812:	6dda      	ldr	r2, [r3, #92]	; 0x5c
 8004814:	2100      	movs	r1, #0
 8004816:	f042 0220 	orr.w	r2, r2, #32
 800481a:	65da      	str	r2, [r3, #92]	; 0x5c
 800481c:	f883 1058 	strb.w	r1, [r3, #88]	; 0x58
 8004820:	bdf0      	pop	{r4, r5, r6, r7, pc}
 8004822:	4d27      	ldr	r5, [pc, #156]	; (80048c0 <HAL_ADCEx_MultiModeConfigChannel+0xcc>)
 8004824:	68aa      	ldr	r2, [r5, #8]
 8004826:	0752      	lsls	r2, r2, #29
 8004828:	d509      	bpl.n	800483e <HAL_ADCEx_MultiModeConfigChannel+0x4a>
 800482a:	68a2      	ldr	r2, [r4, #8]
 800482c:	6dda      	ldr	r2, [r3, #92]	; 0x5c
 800482e:	f042 0220 	orr.w	r2, r2, #32
 8004832:	65da      	str	r2, [r3, #92]	; 0x5c
 8004834:	2001      	movs	r0, #1
 8004836:	2200      	movs	r2, #0
 8004838:	f883 2058 	strb.w	r2, [r3, #88]	; 0x58
 800483c:	bdf0      	pop	{r4, r5, r6, r7, pc}
 800483e:	68a0      	ldr	r0, [r4, #8]
 8004840:	f010 0004 	ands.w	r0, r0, #4
 8004844:	d1f2      	bne.n	800482c <HAL_ADCEx_MultiModeConfigChannel+0x38>
 8004846:	b31e      	cbz	r6, 8004890 <HAL_ADCEx_MultiModeConfigChannel+0x9c>
 8004848:	f8df e078 	ldr.w	lr, [pc, #120]	; 80048c4 <HAL_ADCEx_MultiModeConfigChannel+0xd0>
 800484c:	684f      	ldr	r7, [r1, #4]
 800484e:	f8de 2008 	ldr.w	r2, [lr, #8]
 8004852:	f893 c038 	ldrb.w	ip, [r3, #56]	; 0x38
 8004856:	f422 4260 	bic.w	r2, r2, #57344	; 0xe000
 800485a:	433a      	orrs	r2, r7
 800485c:	ea42 324c 	orr.w	r2, r2, ip, lsl #13
 8004860:	f8ce 2008 	str.w	r2, [lr, #8]
 8004864:	68a2      	ldr	r2, [r4, #8]
 8004866:	07d4      	lsls	r4, r2, #31
 8004868:	d427      	bmi.n	80048ba <HAL_ADCEx_MultiModeConfigChannel+0xc6>
 800486a:	68a8      	ldr	r0, [r5, #8]
 800486c:	f010 0001 	ands.w	r0, r0, #1
 8004870:	d121      	bne.n	80048b6 <HAL_ADCEx_MultiModeConfigChannel+0xc2>
 8004872:	f8de 2008 	ldr.w	r2, [lr, #8]
 8004876:	688c      	ldr	r4, [r1, #8]
 8004878:	f422 6171 	bic.w	r1, r2, #3856	; 0xf10
 800487c:	f021 010f 	bic.w	r1, r1, #15
 8004880:	ea46 0204 	orr.w	r2, r6, r4
 8004884:	430a      	orrs	r2, r1
 8004886:	f8ce 2008 	str.w	r2, [lr, #8]
 800488a:	e7d4      	b.n	8004836 <HAL_ADCEx_MultiModeConfigChannel+0x42>
 800488c:	2002      	movs	r0, #2
 800488e:	4770      	bx	lr
 8004890:	4a0c      	ldr	r2, [pc, #48]	; (80048c4 <HAL_ADCEx_MultiModeConfigChannel+0xd0>)
 8004892:	6891      	ldr	r1, [r2, #8]
 8004894:	f421 4160 	bic.w	r1, r1, #57344	; 0xe000
 8004898:	6091      	str	r1, [r2, #8]
 800489a:	68a0      	ldr	r0, [r4, #8]
 800489c:	68a9      	ldr	r1, [r5, #8]
 800489e:	07c9      	lsls	r1, r1, #31
 80048a0:	f000 0001 	and.w	r0, r0, #1
 80048a4:	d407      	bmi.n	80048b6 <HAL_ADCEx_MultiModeConfigChannel+0xc2>
 80048a6:	b930      	cbnz	r0, 80048b6 <HAL_ADCEx_MultiModeConfigChannel+0xc2>
 80048a8:	6891      	ldr	r1, [r2, #8]
 80048aa:	f421 6171 	bic.w	r1, r1, #3856	; 0xf10
 80048ae:	f021 010f 	bic.w	r1, r1, #15
 80048b2:	6091      	str	r1, [r2, #8]
 80048b4:	e7bf      	b.n	8004836 <HAL_ADCEx_MultiModeConfigChannel+0x42>
 80048b6:	2000      	movs	r0, #0
 80048b8:	e7bd      	b.n	8004836 <HAL_ADCEx_MultiModeConfigChannel+0x42>
 80048ba:	68aa      	ldr	r2, [r5, #8]
 80048bc:	e7bb      	b.n	8004836 <HAL_ADCEx_MultiModeConfigChannel+0x42>
 80048be:	bf00      	nop
 80048c0:	50000100 	.word	0x50000100
 80048c4:	50000300 	.word	0x50000300

080048c8 <HAL_COMP_Init>:
 80048c8:	b5f0      	push	{r4, r5, r6, r7, lr}
 80048ca:	b083      	sub	sp, #12
 80048cc:	2300      	movs	r3, #0
 80048ce:	9301      	str	r3, [sp, #4]
 80048d0:	2800      	cmp	r0, #0
 80048d2:	d054      	beq.n	800497e <HAL_COMP_Init+0xb6>
 80048d4:	6802      	ldr	r2, [r0, #0]
 80048d6:	6813      	ldr	r3, [r2, #0]
 80048d8:	2b00      	cmp	r3, #0
 80048da:	4604      	mov	r4, r0
 80048dc:	db4f      	blt.n	800497e <HAL_COMP_Init+0xb6>
 80048de:	7f43      	ldrb	r3, [r0, #29]
 80048e0:	f003 01ff 	and.w	r1, r3, #255	; 0xff
 80048e4:	2b00      	cmp	r3, #0
 80048e6:	d07e      	beq.n	80049e6 <HAL_COMP_Init+0x11e>
 80048e8:	e9d4 6301 	ldrd	r6, r3, [r4, #4]
 80048ec:	e9d4 5003 	ldrd	r5, r0, [r4, #12]
 80048f0:	6961      	ldr	r1, [r4, #20]
 80048f2:	6817      	ldr	r7, [r2, #0]
 80048f4:	4333      	orrs	r3, r6
 80048f6:	430b      	orrs	r3, r1
 80048f8:	6816      	ldr	r6, [r2, #0]
 80048fa:	4940      	ldr	r1, [pc, #256]	; (80049fc <HAL_COMP_Init+0x134>)
 80048fc:	432b      	orrs	r3, r5
 80048fe:	4303      	orrs	r3, r0
 8004900:	4031      	ands	r1, r6
 8004902:	430b      	orrs	r3, r1
 8004904:	6013      	str	r3, [r2, #0]
 8004906:	6813      	ldr	r3, [r2, #0]
 8004908:	0218      	lsls	r0, r3, #8
 800490a:	d501      	bpl.n	8004910 <HAL_COMP_Init+0x48>
 800490c:	023b      	lsls	r3, r7, #8
 800490e:	d54e      	bpl.n	80049ae <HAL_COMP_Init+0xe6>
 8004910:	4b3b      	ldr	r3, [pc, #236]	; (8004a00 <HAL_COMP_Init+0x138>)
 8004912:	429a      	cmp	r2, r3
 8004914:	d062      	beq.n	80049dc <HAL_COMP_Init+0x114>
 8004916:	3304      	adds	r3, #4
 8004918:	429a      	cmp	r2, r3
 800491a:	d06a      	beq.n	80049f2 <HAL_COMP_Init+0x12a>
 800491c:	3304      	adds	r3, #4
 800491e:	429a      	cmp	r2, r3
 8004920:	bf15      	itete	ne
 8004922:	f06f 4280 	mvnne.w	r2, #1073741824	; 0x40000000
 8004926:	f06f 5200 	mvneq.w	r2, #536870912	; 0x20000000
 800492a:	f04f 4180 	movne.w	r1, #1073741824	; 0x40000000
 800492e:	f04f 5100 	moveq.w	r1, #536870912	; 0x20000000
 8004932:	69a3      	ldr	r3, [r4, #24]
 8004934:	079f      	lsls	r7, r3, #30
 8004936:	d025      	beq.n	8004984 <HAL_COMP_Init+0xbc>
 8004938:	4d32      	ldr	r5, [pc, #200]	; (8004a04 <HAL_COMP_Init+0x13c>)
 800493a:	68a8      	ldr	r0, [r5, #8]
 800493c:	06de      	lsls	r6, r3, #27
 800493e:	bf4c      	ite	mi
 8004940:	4308      	orrmi	r0, r1
 8004942:	4010      	andpl	r0, r2
 8004944:	60a8      	str	r0, [r5, #8]
 8004946:	4d2f      	ldr	r5, [pc, #188]	; (8004a04 <HAL_COMP_Init+0x13c>)
 8004948:	68e8      	ldr	r0, [r5, #12]
 800494a:	069f      	lsls	r7, r3, #26
 800494c:	bf4c      	ite	mi
 800494e:	4308      	orrmi	r0, r1
 8004950:	4010      	andpl	r0, r2
 8004952:	60e8      	str	r0, [r5, #12]
 8004954:	482b      	ldr	r0, [pc, #172]	; (8004a04 <HAL_COMP_Init+0x13c>)
 8004956:	6141      	str	r1, [r0, #20]
 8004958:	6845      	ldr	r5, [r0, #4]
 800495a:	079e      	lsls	r6, r3, #30
 800495c:	bf4c      	ite	mi
 800495e:	430d      	orrmi	r5, r1
 8004960:	4015      	andpl	r5, r2
 8004962:	07db      	lsls	r3, r3, #31
 8004964:	6045      	str	r5, [r0, #4]
 8004966:	d51d      	bpl.n	80049a4 <HAL_COMP_Init+0xdc>
 8004968:	4b26      	ldr	r3, [pc, #152]	; (8004a04 <HAL_COMP_Init+0x13c>)
 800496a:	681a      	ldr	r2, [r3, #0]
 800496c:	4311      	orrs	r1, r2
 800496e:	6019      	str	r1, [r3, #0]
 8004970:	7f63      	ldrb	r3, [r4, #29]
 8004972:	f003 00ff 	and.w	r0, r3, #255	; 0xff
 8004976:	b18b      	cbz	r3, 800499c <HAL_COMP_Init+0xd4>
 8004978:	2000      	movs	r0, #0
 800497a:	b003      	add	sp, #12
 800497c:	bdf0      	pop	{r4, r5, r6, r7, pc}
 800497e:	2001      	movs	r0, #1
 8004980:	b003      	add	sp, #12
 8004982:	bdf0      	pop	{r4, r5, r6, r7, pc}
 8004984:	4b1f      	ldr	r3, [pc, #124]	; (8004a04 <HAL_COMP_Init+0x13c>)
 8004986:	6859      	ldr	r1, [r3, #4]
 8004988:	4011      	ands	r1, r2
 800498a:	6059      	str	r1, [r3, #4]
 800498c:	6819      	ldr	r1, [r3, #0]
 800498e:	400a      	ands	r2, r1
 8004990:	601a      	str	r2, [r3, #0]
 8004992:	7f63      	ldrb	r3, [r4, #29]
 8004994:	f003 00ff 	and.w	r0, r3, #255	; 0xff
 8004998:	2b00      	cmp	r3, #0
 800499a:	d1ed      	bne.n	8004978 <HAL_COMP_Init+0xb0>
 800499c:	2301      	movs	r3, #1
 800499e:	7763      	strb	r3, [r4, #29]
 80049a0:	b003      	add	sp, #12
 80049a2:	bdf0      	pop	{r4, r5, r6, r7, pc}
 80049a4:	4917      	ldr	r1, [pc, #92]	; (8004a04 <HAL_COMP_Init+0x13c>)
 80049a6:	680b      	ldr	r3, [r1, #0]
 80049a8:	401a      	ands	r2, r3
 80049aa:	600a      	str	r2, [r1, #0]
 80049ac:	e7f1      	b.n	8004992 <HAL_COMP_Init+0xca>
 80049ae:	4b16      	ldr	r3, [pc, #88]	; (8004a08 <HAL_COMP_Init+0x140>)
 80049b0:	4916      	ldr	r1, [pc, #88]	; (8004a0c <HAL_COMP_Init+0x144>)
 80049b2:	681b      	ldr	r3, [r3, #0]
 80049b4:	099b      	lsrs	r3, r3, #6
 80049b6:	fba1 1303 	umull	r1, r3, r1, r3
 80049ba:	099b      	lsrs	r3, r3, #6
 80049bc:	eb03 0383 	add.w	r3, r3, r3, lsl #2
 80049c0:	009b      	lsls	r3, r3, #2
 80049c2:	9301      	str	r3, [sp, #4]
 80049c4:	9b01      	ldr	r3, [sp, #4]
 80049c6:	2b00      	cmp	r3, #0
 80049c8:	d0a2      	beq.n	8004910 <HAL_COMP_Init+0x48>
 80049ca:	9b01      	ldr	r3, [sp, #4]
 80049cc:	3b01      	subs	r3, #1
 80049ce:	9301      	str	r3, [sp, #4]
 80049d0:	9b01      	ldr	r3, [sp, #4]
 80049d2:	2b00      	cmp	r3, #0
 80049d4:	d1f9      	bne.n	80049ca <HAL_COMP_Init+0x102>
 80049d6:	4b0a      	ldr	r3, [pc, #40]	; (8004a00 <HAL_COMP_Init+0x138>)
 80049d8:	429a      	cmp	r2, r3
 80049da:	d19c      	bne.n	8004916 <HAL_COMP_Init+0x4e>
 80049dc:	f46f 1200 	mvn.w	r2, #2097152	; 0x200000
 80049e0:	f44f 1100 	mov.w	r1, #2097152	; 0x200000
 80049e4:	e7a5      	b.n	8004932 <HAL_COMP_Init+0x6a>
 80049e6:	7701      	strb	r1, [r0, #28]
 80049e8:	6201      	str	r1, [r0, #32]
 80049ea:	f7fe f809 	bl	8002a00 <HAL_COMP_MspInit>
 80049ee:	6822      	ldr	r2, [r4, #0]
 80049f0:	e77a      	b.n	80048e8 <HAL_COMP_Init+0x20>
 80049f2:	f46f 0280 	mvn.w	r2, #4194304	; 0x400000
 80049f6:	f44f 0180 	mov.w	r1, #4194304	; 0x400000
 80049fa:	e79a      	b.n	8004932 <HAL_COMP_Init+0x6a>
 80049fc:	ff007e0f 	.word	0xff007e0f
 8004a00:	40010200 	.word	0x40010200
 8004a04:	40010400 	.word	0x40010400
 8004a08:	20000738 	.word	0x20000738
 8004a0c:	053e2d63 	.word	0x053e2d63

08004a10 <HAL_CORDIC_Init>:
 8004a10:	b1b0      	cbz	r0, 8004a40 <HAL_CORDIC_Init+0x30>
 8004a12:	f890 3021 	ldrb.w	r3, [r0, #33]	; 0x21
 8004a16:	b510      	push	{r4, lr}
 8004a18:	f003 02ff 	and.w	r2, r3, #255	; 0xff
 8004a1c:	4604      	mov	r4, r0
 8004a1e:	b153      	cbz	r3, 8004a36 <HAL_CORDIC_Init+0x26>
 8004a20:	2000      	movs	r0, #0
 8004a22:	2301      	movs	r3, #1
 8004a24:	6260      	str	r0, [r4, #36]	; 0x24
 8004a26:	e9c4 0001 	strd	r0, r0, [r4, #4]
 8004a2a:	e9c4 0003 	strd	r0, r0, [r4, #12]
 8004a2e:	6160      	str	r0, [r4, #20]
 8004a30:	f884 3021 	strb.w	r3, [r4, #33]	; 0x21
 8004a34:	bd10      	pop	{r4, pc}
 8004a36:	f880 2020 	strb.w	r2, [r0, #32]
 8004a3a:	f7fe f845 	bl	8002ac8 <HAL_CORDIC_MspInit>
 8004a3e:	e7ef      	b.n	8004a20 <HAL_CORDIC_Init+0x10>
 8004a40:	2001      	movs	r0, #1
 8004a42:	4770      	bx	lr

08004a44 <HAL_NVIC_SetPriorityGrouping>:
 8004a44:	4a07      	ldr	r2, [pc, #28]	; (8004a64 <HAL_NVIC_SetPriorityGrouping+0x20>)
 8004a46:	68d3      	ldr	r3, [r2, #12]
 8004a48:	f64f 01ff 	movw	r1, #63743	; 0xf8ff
 8004a4c:	400b      	ands	r3, r1
 8004a4e:	0200      	lsls	r0, r0, #8
 8004a50:	f043 63bf 	orr.w	r3, r3, #100139008	; 0x5f80000
 8004a54:	f400 60e0 	and.w	r0, r0, #1792	; 0x700
 8004a58:	f443 3300 	orr.w	r3, r3, #131072	; 0x20000
 8004a5c:	4303      	orrs	r3, r0
 8004a5e:	60d3      	str	r3, [r2, #12]
 8004a60:	4770      	bx	lr
 8004a62:	bf00      	nop
 8004a64:	e000ed00 	.word	0xe000ed00

08004a68 <HAL_NVIC_SetPriority>:
 8004a68:	4b18      	ldr	r3, [pc, #96]	; (8004acc <HAL_NVIC_SetPriority+0x64>)
 8004a6a:	68db      	ldr	r3, [r3, #12]
 8004a6c:	f3c3 2302 	ubfx	r3, r3, #8, #3
 8004a70:	b430      	push	{r4, r5}
 8004a72:	f1c3 0507 	rsb	r5, r3, #7
 8004a76:	2d04      	cmp	r5, #4
 8004a78:	f103 0404 	add.w	r4, r3, #4
 8004a7c:	bf28      	it	cs
 8004a7e:	2504      	movcs	r5, #4
 8004a80:	2c06      	cmp	r4, #6
 8004a82:	d919      	bls.n	8004ab8 <HAL_NVIC_SetPriority+0x50>
 8004a84:	3b03      	subs	r3, #3
 8004a86:	f04f 34ff 	mov.w	r4, #4294967295
 8004a8a:	409c      	lsls	r4, r3
 8004a8c:	ea22 0404 	bic.w	r4, r2, r4
 8004a90:	f04f 32ff 	mov.w	r2, #4294967295
 8004a94:	40aa      	lsls	r2, r5
 8004a96:	ea21 0102 	bic.w	r1, r1, r2
 8004a9a:	fa01 f203 	lsl.w	r2, r1, r3
 8004a9e:	4322      	orrs	r2, r4
 8004aa0:	0112      	lsls	r2, r2, #4
 8004aa2:	2800      	cmp	r0, #0
 8004aa4:	b2d2      	uxtb	r2, r2
 8004aa6:	db0a      	blt.n	8004abe <HAL_NVIC_SetPriority+0x56>
 8004aa8:	f100 4060 	add.w	r0, r0, #3758096384	; 0xe0000000
 8004aac:	f500 4061 	add.w	r0, r0, #57600	; 0xe100
 8004ab0:	f880 2300 	strb.w	r2, [r0, #768]	; 0x300
 8004ab4:	bc30      	pop	{r4, r5}
 8004ab6:	4770      	bx	lr
 8004ab8:	2400      	movs	r4, #0
 8004aba:	4623      	mov	r3, r4
 8004abc:	e7e8      	b.n	8004a90 <HAL_NVIC_SetPriority+0x28>
 8004abe:	4b04      	ldr	r3, [pc, #16]	; (8004ad0 <HAL_NVIC_SetPriority+0x68>)
 8004ac0:	f000 000f 	and.w	r0, r0, #15
 8004ac4:	4403      	add	r3, r0
 8004ac6:	761a      	strb	r2, [r3, #24]
 8004ac8:	bc30      	pop	{r4, r5}
 8004aca:	4770      	bx	lr
 8004acc:	e000ed00 	.word	0xe000ed00
 8004ad0:	e000ecfc 	.word	0xe000ecfc

08004ad4 <HAL_NVIC_EnableIRQ>:
 8004ad4:	2800      	cmp	r0, #0
 8004ad6:	db07      	blt.n	8004ae8 <HAL_NVIC_EnableIRQ+0x14>
 8004ad8:	f000 011f 	and.w	r1, r0, #31
 8004adc:	2301      	movs	r3, #1
 8004ade:	0940      	lsrs	r0, r0, #5
 8004ae0:	4a02      	ldr	r2, [pc, #8]	; (8004aec <HAL_NVIC_EnableIRQ+0x18>)
 8004ae2:	408b      	lsls	r3, r1
 8004ae4:	f842 3020 	str.w	r3, [r2, r0, lsl #2]
 8004ae8:	4770      	bx	lr
 8004aea:	bf00      	nop
 8004aec:	e000e100 	.word	0xe000e100

08004af0 <HAL_SYSTICK_Config>:
 8004af0:	3801      	subs	r0, #1
 8004af2:	f1b0 7f80 	cmp.w	r0, #16777216	; 0x1000000
 8004af6:	d20e      	bcs.n	8004b16 <HAL_SYSTICK_Config+0x26>
 8004af8:	4b08      	ldr	r3, [pc, #32]	; (8004b1c <HAL_SYSTICK_Config+0x2c>)
 8004afa:	b410      	push	{r4}
 8004afc:	4c08      	ldr	r4, [pc, #32]	; (8004b20 <HAL_SYSTICK_Config+0x30>)
 8004afe:	6058      	str	r0, [r3, #4]
 8004b00:	20f0      	movs	r0, #240	; 0xf0
 8004b02:	f884 0023 	strb.w	r0, [r4, #35]	; 0x23
 8004b06:	2200      	movs	r2, #0
 8004b08:	2107      	movs	r1, #7
 8004b0a:	4610      	mov	r0, r2
 8004b0c:	609a      	str	r2, [r3, #8]
 8004b0e:	6019      	str	r1, [r3, #0]
 8004b10:	f85d 4b04 	ldr.w	r4, [sp], #4
 8004b14:	4770      	bx	lr
 8004b16:	2001      	movs	r0, #1
 8004b18:	4770      	bx	lr
 8004b1a:	bf00      	nop
 8004b1c:	e000e010 	.word	0xe000e010
 8004b20:	e000ed00 	.word	0xe000ed00

08004b24 <HAL_SYSTICK_Callback>:
 8004b24:	4770      	bx	lr
 8004b26:	bf00      	nop

08004b28 <HAL_SYSTICK_IRQHandler>:
 8004b28:	b508      	push	{r3, lr}
 8004b2a:	f7ff fffb 	bl	8004b24 <HAL_SYSTICK_Callback>
 8004b2e:	bd08      	pop	{r3, pc}

08004b30 <HAL_DAC_Init>:
 8004b30:	b188      	cbz	r0, 8004b56 <HAL_DAC_Init+0x26>
 8004b32:	7903      	ldrb	r3, [r0, #4]
 8004b34:	b510      	push	{r4, lr}
 8004b36:	f003 02ff 	and.w	r2, r3, #255	; 0xff
 8004b3a:	4604      	mov	r4, r0
 8004b3c:	b13b      	cbz	r3, 8004b4e <HAL_DAC_Init+0x1e>
 8004b3e:	2300      	movs	r3, #0
 8004b40:	2102      	movs	r1, #2
 8004b42:	2201      	movs	r2, #1
 8004b44:	7121      	strb	r1, [r4, #4]
 8004b46:	4618      	mov	r0, r3
 8004b48:	6123      	str	r3, [r4, #16]
 8004b4a:	7122      	strb	r2, [r4, #4]
 8004b4c:	bd10      	pop	{r4, pc}
 8004b4e:	7142      	strb	r2, [r0, #5]
 8004b50:	f7fd ffd2 	bl	8002af8 <HAL_DAC_MspInit>
 8004b54:	e7f3      	b.n	8004b3e <HAL_DAC_Init+0xe>
 8004b56:	2001      	movs	r0, #1
 8004b58:	4770      	bx	lr
 8004b5a:	bf00      	nop

08004b5c <HAL_DAC_ConfigChannel>:
 8004b5c:	7943      	ldrb	r3, [r0, #5]
 8004b5e:	2b01      	cmp	r3, #1
 8004b60:	f000 80c4 	beq.w	8004cec <HAL_DAC_ConfigChannel+0x190>
 8004b64:	e92d 41f0 	stmdb	sp!, {r4, r5, r6, r7, r8, lr}
 8004b68:	688f      	ldr	r7, [r1, #8]
 8004b6a:	4614      	mov	r4, r2
 8004b6c:	2302      	movs	r3, #2
 8004b6e:	2201      	movs	r2, #1
 8004b70:	2f04      	cmp	r7, #4
 8004b72:	460e      	mov	r6, r1
 8004b74:	4605      	mov	r5, r0
 8004b76:	7142      	strb	r2, [r0, #5]
 8004b78:	7103      	strb	r3, [r0, #4]
 8004b7a:	d079      	beq.n	8004c70 <HAL_DAC_ConfigChannel+0x114>
 8004b7c:	6803      	ldr	r3, [r0, #0]
 8004b7e:	f004 0410 	and.w	r4, r4, #16
 8004b82:	69f2      	ldr	r2, [r6, #28]
 8004b84:	2a01      	cmp	r2, #1
 8004b86:	d069      	beq.n	8004c5c <HAL_DAC_ConfigChannel+0x100>
 8004b88:	e9d6 c005 	ldrd	ip, r0, [r6, #20]
 8004b8c:	6bda      	ldr	r2, [r3, #60]	; 0x3c
 8004b8e:	2107      	movs	r1, #7
 8004b90:	40a1      	lsls	r1, r4
 8004b92:	f422 4840 	bic.w	r8, r2, #49152	; 0xc000
 8004b96:	07c2      	lsls	r2, r0, #31
 8004b98:	ea6f 0101 	mvn.w	r1, r1
 8004b9c:	d55a      	bpl.n	8004c54 <HAL_DAC_ConfigChannel+0xf8>
 8004b9e:	2000      	movs	r0, #0
 8004ba0:	f44f 7280 	mov.w	r2, #256	; 0x100
 8004ba4:	ea47 070c 	orr.w	r7, r7, ip
 8004ba8:	40a2      	lsls	r2, r4
 8004baa:	f896 c004 	ldrb.w	ip, [r6, #4]
 8004bae:	4307      	orrs	r7, r0
 8004bb0:	ea01 0108 	and.w	r1, r1, r8
 8004bb4:	43d2      	mvns	r2, r2
 8004bb6:	7970      	ldrb	r0, [r6, #5]
 8004bb8:	f1bc 0f01 	cmp.w	ip, #1
 8004bbc:	ea02 0201 	and.w	r2, r2, r1
 8004bc0:	f44f 7800 	mov.w	r8, #512	; 0x200
 8004bc4:	6831      	ldr	r1, [r6, #0]
 8004bc6:	bf08      	it	eq
 8004bc8:	f447 7780 	orreq.w	r7, r7, #256	; 0x100
 8004bcc:	fa08 f804 	lsl.w	r8, r8, r4
 8004bd0:	2801      	cmp	r0, #1
 8004bd2:	ea6f 0808 	mvn.w	r8, r8
 8004bd6:	bf08      	it	eq
 8004bd8:	f447 7700 	orreq.w	r7, r7, #512	; 0x200
 8004bdc:	2902      	cmp	r1, #2
 8004bde:	ea08 0802 	and.w	r8, r8, r2
 8004be2:	f000 8085 	beq.w	8004cf0 <HAL_DAC_ConfigChannel+0x194>
 8004be6:	ea48 0801 	orr.w	r8, r8, r1
 8004bea:	40a7      	lsls	r7, r4
 8004bec:	ea47 0708 	orr.w	r7, r7, r8
 8004bf0:	63df      	str	r7, [r3, #60]	; 0x3c
 8004bf2:	6818      	ldr	r0, [r3, #0]
 8004bf4:	e9d6 1203 	ldrd	r1, r2, [r6, #12]
 8004bf8:	f44f 4680 	mov.w	r6, #16384	; 0x4000
 8004bfc:	40a6      	lsls	r6, r4
 8004bfe:	ea20 0006 	bic.w	r0, r0, r6
 8004c02:	6018      	str	r0, [r3, #0]
 8004c04:	6818      	ldr	r0, [r3, #0]
 8004c06:	f640 76fe 	movw	r6, #4094	; 0xffe
 8004c0a:	40a6      	lsls	r6, r4
 8004c0c:	ea20 0606 	bic.w	r6, r0, r6
 8004c10:	fa01 f004 	lsl.w	r0, r1, r4
 8004c14:	4330      	orrs	r0, r6
 8004c16:	6018      	str	r0, [r3, #0]
 8004c18:	6818      	ldr	r0, [r3, #0]
 8004c1a:	26c0      	movs	r6, #192	; 0xc0
 8004c1c:	40a6      	lsls	r6, r4
 8004c1e:	ea20 0006 	bic.w	r0, r0, r6
 8004c22:	6018      	str	r0, [r3, #0]
 8004c24:	0192      	lsls	r2, r2, #6
 8004c26:	6e18      	ldr	r0, [r3, #96]	; 0x60
 8004c28:	f3c1 0183 	ubfx	r1, r1, #2, #4
 8004c2c:	f640 760f 	movw	r6, #3855	; 0xf0f
 8004c30:	f402 6270 	and.w	r2, r2, #3840	; 0xf00
 8004c34:	430a      	orrs	r2, r1
 8004c36:	fa06 f104 	lsl.w	r1, r6, r4
 8004c3a:	fa02 f404 	lsl.w	r4, r2, r4
 8004c3e:	ea20 0201 	bic.w	r2, r0, r1
 8004c42:	4314      	orrs	r4, r2
 8004c44:	2101      	movs	r1, #1
 8004c46:	2200      	movs	r2, #0
 8004c48:	661c      	str	r4, [r3, #96]	; 0x60
 8004c4a:	4610      	mov	r0, r2
 8004c4c:	7129      	strb	r1, [r5, #4]
 8004c4e:	716a      	strb	r2, [r5, #5]
 8004c50:	e8bd 81f0 	ldmia.w	sp!, {r4, r5, r6, r7, r8, pc}
 8004c54:	0782      	lsls	r2, r0, #30
 8004c56:	d545      	bpl.n	8004ce4 <HAL_DAC_ConfigChannel+0x188>
 8004c58:	2001      	movs	r0, #1
 8004c5a:	e7a1      	b.n	8004ba0 <HAL_DAC_ConfigChannel+0x44>
 8004c5c:	6b99      	ldr	r1, [r3, #56]	; 0x38
 8004c5e:	6a32      	ldr	r2, [r6, #32]
 8004c60:	201f      	movs	r0, #31
 8004c62:	40a0      	lsls	r0, r4
 8004c64:	ea21 0100 	bic.w	r1, r1, r0
 8004c68:	40a2      	lsls	r2, r4
 8004c6a:	430a      	orrs	r2, r1
 8004c6c:	639a      	str	r2, [r3, #56]	; 0x38
 8004c6e:	e78b      	b.n	8004b88 <HAL_DAC_ConfigChannel+0x2c>
 8004c70:	b9bc      	cbnz	r4, 8004ca2 <HAL_DAC_ConfigChannel+0x146>
 8004c72:	f7fe ffe3 	bl	8003c3c <HAL_GetTick>
 8004c76:	4607      	mov	r7, r0
 8004c78:	e004      	b.n	8004c84 <HAL_DAC_ConfigChannel+0x128>
 8004c7a:	f7fe ffdf 	bl	8003c3c <HAL_GetTick>
 8004c7e:	1bc0      	subs	r0, r0, r7
 8004c80:	2801      	cmp	r0, #1
 8004c82:	d83e      	bhi.n	8004d02 <HAL_DAC_ConfigChannel+0x1a6>
 8004c84:	682b      	ldr	r3, [r5, #0]
 8004c86:	6b5b      	ldr	r3, [r3, #52]	; 0x34
 8004c88:	0419      	lsls	r1, r3, #16
 8004c8a:	d4f6      	bmi.n	8004c7a <HAL_DAC_ConfigChannel+0x11e>
 8004c8c:	2001      	movs	r0, #1
 8004c8e:	f7fe ffdb 	bl	8003c48 <HAL_Delay>
 8004c92:	682b      	ldr	r3, [r5, #0]
 8004c94:	6a72      	ldr	r2, [r6, #36]	; 0x24
 8004c96:	641a      	str	r2, [r3, #64]	; 0x40
 8004c98:	e00d      	b.n	8004cb6 <HAL_DAC_ConfigChannel+0x15a>
 8004c9a:	f7fe ffcf 	bl	8003c3c <HAL_GetTick>
 8004c9e:	2801      	cmp	r0, #1
 8004ca0:	d82f      	bhi.n	8004d02 <HAL_DAC_ConfigChannel+0x1a6>
 8004ca2:	682b      	ldr	r3, [r5, #0]
 8004ca4:	6b5b      	ldr	r3, [r3, #52]	; 0x34
 8004ca6:	2b00      	cmp	r3, #0
 8004ca8:	dbf7      	blt.n	8004c9a <HAL_DAC_ConfigChannel+0x13e>
 8004caa:	2001      	movs	r0, #1
 8004cac:	f7fe ffcc 	bl	8003c48 <HAL_Delay>
 8004cb0:	682b      	ldr	r3, [r5, #0]
 8004cb2:	6a72      	ldr	r2, [r6, #36]	; 0x24
 8004cb4:	645a      	str	r2, [r3, #68]	; 0x44
 8004cb6:	f004 0410 	and.w	r4, r4, #16
 8004cba:	6c9a      	ldr	r2, [r3, #72]	; 0x48
 8004cbc:	6ab1      	ldr	r1, [r6, #40]	; 0x28
 8004cbe:	68b7      	ldr	r7, [r6, #8]
 8004cc0:	f240 30ff 	movw	r0, #1023	; 0x3ff
 8004cc4:	40a0      	lsls	r0, r4
 8004cc6:	ea22 0200 	bic.w	r2, r2, r0
 8004cca:	40a1      	lsls	r1, r4
 8004ccc:	430a      	orrs	r2, r1
 8004cce:	649a      	str	r2, [r3, #72]	; 0x48
 8004cd0:	6cda      	ldr	r2, [r3, #76]	; 0x4c
 8004cd2:	6af1      	ldr	r1, [r6, #44]	; 0x2c
 8004cd4:	20ff      	movs	r0, #255	; 0xff
 8004cd6:	40a0      	lsls	r0, r4
 8004cd8:	ea22 0200 	bic.w	r2, r2, r0
 8004cdc:	40a1      	lsls	r1, r4
 8004cde:	430a      	orrs	r2, r1
 8004ce0:	64da      	str	r2, [r3, #76]	; 0x4c
 8004ce2:	e74e      	b.n	8004b82 <HAL_DAC_ConfigChannel+0x26>
 8004ce4:	fabc f08c 	clz	r0, ip
 8004ce8:	0940      	lsrs	r0, r0, #5
 8004cea:	e759      	b.n	8004ba0 <HAL_DAC_ConfigChannel+0x44>
 8004cec:	2002      	movs	r0, #2
 8004cee:	4770      	bx	lr
 8004cf0:	f000 fe02 	bl	80058f8 <HAL_RCC_GetHCLKFreq>
 8004cf4:	4b0b      	ldr	r3, [pc, #44]	; (8004d24 <HAL_DAC_ConfigChannel+0x1c8>)
 8004cf6:	4298      	cmp	r0, r3
 8004cf8:	d90c      	bls.n	8004d14 <HAL_DAC_ConfigChannel+0x1b8>
 8004cfa:	f448 4800 	orr.w	r8, r8, #32768	; 0x8000
 8004cfe:	682b      	ldr	r3, [r5, #0]
 8004d00:	e773      	b.n	8004bea <HAL_DAC_ConfigChannel+0x8e>
 8004d02:	692b      	ldr	r3, [r5, #16]
 8004d04:	2203      	movs	r2, #3
 8004d06:	f043 0308 	orr.w	r3, r3, #8
 8004d0a:	612b      	str	r3, [r5, #16]
 8004d0c:	4610      	mov	r0, r2
 8004d0e:	712a      	strb	r2, [r5, #4]
 8004d10:	e8bd 81f0 	ldmia.w	sp!, {r4, r5, r6, r7, r8, pc}
 8004d14:	4a04      	ldr	r2, [pc, #16]	; (8004d28 <HAL_DAC_ConfigChannel+0x1cc>)
 8004d16:	682b      	ldr	r3, [r5, #0]
 8004d18:	4290      	cmp	r0, r2
 8004d1a:	f67f af66 	bls.w	8004bea <HAL_DAC_ConfigChannel+0x8e>
 8004d1e:	f448 4880 	orr.w	r8, r8, #16384	; 0x4000
 8004d22:	e762      	b.n	8004bea <HAL_DAC_ConfigChannel+0x8e>
 8004d24:	09896800 	.word	0x09896800
 8004d28:	04c4b400 	.word	0x04c4b400

08004d2c <HAL_GPIO_Init>:
 8004d2c:	f8d1 c000 	ldr.w	ip, [r1]
 8004d30:	f1bc 0f00 	cmp.w	ip, #0
 8004d34:	f000 80c7 	beq.w	8004ec6 <HAL_GPIO_Init+0x19a>
 8004d38:	e92d 4ff0 	stmdb	sp!, {r4, r5, r6, r7, r8, r9, sl, fp, lr}
 8004d3c:	f8df e1b4 	ldr.w	lr, [pc, #436]	; 8004ef4 <HAL_GPIO_Init+0x1c8>
 8004d40:	b083      	sub	sp, #12
 8004d42:	4688      	mov	r8, r1
 8004d44:	2500      	movs	r5, #0
 8004d46:	f04f 0901 	mov.w	r9, #1
 8004d4a:	fa09 f205 	lsl.w	r2, r9, r5
 8004d4e:	ea12 060c 	ands.w	r6, r2, ip
 8004d52:	d074      	beq.n	8004e3e <HAL_GPIO_Init+0x112>
 8004d54:	f8d8 1004 	ldr.w	r1, [r8, #4]
 8004d58:	f021 0a10 	bic.w	sl, r1, #16
 8004d5c:	f1ba 0f02 	cmp.w	sl, #2
 8004d60:	d074      	beq.n	8004e4c <HAL_GPIO_Init+0x120>
 8004d62:	006f      	lsls	r7, r5, #1
 8004d64:	2303      	movs	r3, #3
 8004d66:	f8d0 b000 	ldr.w	fp, [r0]
 8004d6a:	40bb      	lsls	r3, r7
 8004d6c:	43db      	mvns	r3, r3
 8004d6e:	f001 0403 	and.w	r4, r1, #3
 8004d72:	ea03 0b0b 	and.w	fp, r3, fp
 8004d76:	40bc      	lsls	r4, r7
 8004d78:	f10a 3aff 	add.w	sl, sl, #4294967295
 8004d7c:	ea44 040b 	orr.w	r4, r4, fp
 8004d80:	f1ba 0f01 	cmp.w	sl, #1
 8004d84:	6004      	str	r4, [r0, #0]
 8004d86:	f240 8082 	bls.w	8004e8e <HAL_GPIO_Init+0x162>
 8004d8a:	68c4      	ldr	r4, [r0, #12]
 8004d8c:	f8d8 2008 	ldr.w	r2, [r8, #8]
 8004d90:	4023      	ands	r3, r4
 8004d92:	40ba      	lsls	r2, r7
 8004d94:	431a      	orrs	r2, r3
 8004d96:	00cf      	lsls	r7, r1, #3
 8004d98:	60c2      	str	r2, [r0, #12]
 8004d9a:	d550      	bpl.n	8004e3e <HAL_GPIO_Init+0x112>
 8004d9c:	4a4f      	ldr	r2, [pc, #316]	; (8004edc <HAL_GPIO_Init+0x1b0>)
 8004d9e:	6e13      	ldr	r3, [r2, #96]	; 0x60
 8004da0:	f043 0301 	orr.w	r3, r3, #1
 8004da4:	6613      	str	r3, [r2, #96]	; 0x60
 8004da6:	6e13      	ldr	r3, [r2, #96]	; 0x60
 8004da8:	f025 0403 	bic.w	r4, r5, #3
 8004dac:	f104 4480 	add.w	r4, r4, #1073741824	; 0x40000000
 8004db0:	f003 0301 	and.w	r3, r3, #1
 8004db4:	f504 3480 	add.w	r4, r4, #65536	; 0x10000
 8004db8:	9301      	str	r3, [sp, #4]
 8004dba:	f005 0303 	and.w	r3, r5, #3
 8004dbe:	9a01      	ldr	r2, [sp, #4]
 8004dc0:	68a2      	ldr	r2, [r4, #8]
 8004dc2:	009b      	lsls	r3, r3, #2
 8004dc4:	270f      	movs	r7, #15
 8004dc6:	409f      	lsls	r7, r3
 8004dc8:	f1b0 4f90 	cmp.w	r0, #1207959552	; 0x48000000
 8004dcc:	ea22 0207 	bic.w	r2, r2, r7
 8004dd0:	d013      	beq.n	8004dfa <HAL_GPIO_Init+0xce>
 8004dd2:	4f43      	ldr	r7, [pc, #268]	; (8004ee0 <HAL_GPIO_Init+0x1b4>)
 8004dd4:	42b8      	cmp	r0, r7
 8004dd6:	d072      	beq.n	8004ebe <HAL_GPIO_Init+0x192>
 8004dd8:	4f42      	ldr	r7, [pc, #264]	; (8004ee4 <HAL_GPIO_Init+0x1b8>)
 8004dda:	42b8      	cmp	r0, r7
 8004ddc:	d06a      	beq.n	8004eb4 <HAL_GPIO_Init+0x188>
 8004dde:	4f42      	ldr	r7, [pc, #264]	; (8004ee8 <HAL_GPIO_Init+0x1bc>)
 8004de0:	42b8      	cmp	r0, r7
 8004de2:	d071      	beq.n	8004ec8 <HAL_GPIO_Init+0x19c>
 8004de4:	4f41      	ldr	r7, [pc, #260]	; (8004eec <HAL_GPIO_Init+0x1c0>)
 8004de6:	42b8      	cmp	r0, r7
 8004de8:	d073      	beq.n	8004ed2 <HAL_GPIO_Init+0x1a6>
 8004dea:	4f41      	ldr	r7, [pc, #260]	; (8004ef0 <HAL_GPIO_Init+0x1c4>)
 8004dec:	42b8      	cmp	r0, r7
 8004dee:	bf0c      	ite	eq
 8004df0:	2705      	moveq	r7, #5
 8004df2:	2706      	movne	r7, #6
 8004df4:	fa07 f303 	lsl.w	r3, r7, r3
 8004df8:	431a      	orrs	r2, r3
 8004dfa:	60a2      	str	r2, [r4, #8]
 8004dfc:	f8de 3000 	ldr.w	r3, [lr]
 8004e00:	43f2      	mvns	r2, r6
 8004e02:	03cc      	lsls	r4, r1, #15
 8004e04:	bf54      	ite	pl
 8004e06:	4013      	andpl	r3, r2
 8004e08:	4333      	orrmi	r3, r6
 8004e0a:	f8ce 3000 	str.w	r3, [lr]
 8004e0e:	f8de 3004 	ldr.w	r3, [lr, #4]
 8004e12:	038f      	lsls	r7, r1, #14
 8004e14:	bf54      	ite	pl
 8004e16:	4013      	andpl	r3, r2
 8004e18:	4333      	orrmi	r3, r6
 8004e1a:	f8ce 3004 	str.w	r3, [lr, #4]
 8004e1e:	f8de 3008 	ldr.w	r3, [lr, #8]
 8004e22:	02cc      	lsls	r4, r1, #11
 8004e24:	bf54      	ite	pl
 8004e26:	4013      	andpl	r3, r2
 8004e28:	4333      	orrmi	r3, r6
 8004e2a:	f8ce 3008 	str.w	r3, [lr, #8]
 8004e2e:	f8de 300c 	ldr.w	r3, [lr, #12]
 8004e32:	0289      	lsls	r1, r1, #10
 8004e34:	bf54      	ite	pl
 8004e36:	4013      	andpl	r3, r2
 8004e38:	4333      	orrmi	r3, r6
 8004e3a:	f8ce 300c 	str.w	r3, [lr, #12]
 8004e3e:	3501      	adds	r5, #1
 8004e40:	fa3c f305 	lsrs.w	r3, ip, r5
 8004e44:	d181      	bne.n	8004d4a <HAL_GPIO_Init+0x1e>
 8004e46:	b003      	add	sp, #12
 8004e48:	e8bd 8ff0 	ldmia.w	sp!, {r4, r5, r6, r7, r8, r9, sl, fp, pc}
 8004e4c:	08ef      	lsrs	r7, r5, #3
 8004e4e:	eb00 0787 	add.w	r7, r0, r7, lsl #2
 8004e52:	f005 0407 	and.w	r4, r5, #7
 8004e56:	6a3b      	ldr	r3, [r7, #32]
 8004e58:	00a4      	lsls	r4, r4, #2
 8004e5a:	f04f 0a0f 	mov.w	sl, #15
 8004e5e:	fa0a fb04 	lsl.w	fp, sl, r4
 8004e62:	ea23 0a0b 	bic.w	sl, r3, fp
 8004e66:	f8d8 3010 	ldr.w	r3, [r8, #16]
 8004e6a:	40a3      	lsls	r3, r4
 8004e6c:	ea43 030a 	orr.w	r3, r3, sl
 8004e70:	623b      	str	r3, [r7, #32]
 8004e72:	006f      	lsls	r7, r5, #1
 8004e74:	2303      	movs	r3, #3
 8004e76:	f8d0 a000 	ldr.w	sl, [r0]
 8004e7a:	40bb      	lsls	r3, r7
 8004e7c:	43db      	mvns	r3, r3
 8004e7e:	f001 0403 	and.w	r4, r1, #3
 8004e82:	ea03 0a0a 	and.w	sl, r3, sl
 8004e86:	40bc      	lsls	r4, r7
 8004e88:	ea44 040a 	orr.w	r4, r4, sl
 8004e8c:	6004      	str	r4, [r0, #0]
 8004e8e:	6884      	ldr	r4, [r0, #8]
 8004e90:	ea04 0a03 	and.w	sl, r4, r3
 8004e94:	f8d8 400c 	ldr.w	r4, [r8, #12]
 8004e98:	40bc      	lsls	r4, r7
 8004e9a:	ea44 040a 	orr.w	r4, r4, sl
 8004e9e:	6084      	str	r4, [r0, #8]
 8004ea0:	f8d0 a004 	ldr.w	sl, [r0, #4]
 8004ea4:	f3c1 1400 	ubfx	r4, r1, #4, #1
 8004ea8:	ea2a 0202 	bic.w	r2, sl, r2
 8004eac:	40ac      	lsls	r4, r5
 8004eae:	4314      	orrs	r4, r2
 8004eb0:	6044      	str	r4, [r0, #4]
 8004eb2:	e76a      	b.n	8004d8a <HAL_GPIO_Init+0x5e>
 8004eb4:	2702      	movs	r7, #2
 8004eb6:	fa07 f303 	lsl.w	r3, r7, r3
 8004eba:	431a      	orrs	r2, r3
 8004ebc:	e79d      	b.n	8004dfa <HAL_GPIO_Init+0xce>
 8004ebe:	fa09 f303 	lsl.w	r3, r9, r3
 8004ec2:	431a      	orrs	r2, r3
 8004ec4:	e799      	b.n	8004dfa <HAL_GPIO_Init+0xce>
 8004ec6:	4770      	bx	lr
 8004ec8:	2703      	movs	r7, #3
 8004eca:	fa07 f303 	lsl.w	r3, r7, r3
 8004ece:	431a      	orrs	r2, r3
 8004ed0:	e793      	b.n	8004dfa <HAL_GPIO_Init+0xce>
 8004ed2:	2704      	movs	r7, #4
 8004ed4:	fa07 f303 	lsl.w	r3, r7, r3
 8004ed8:	431a      	orrs	r2, r3
 8004eda:	e78e      	b.n	8004dfa <HAL_GPIO_Init+0xce>
 8004edc:	40021000 	.word	0x40021000
 8004ee0:	48000400 	.word	0x48000400
 8004ee4:	48000800 	.word	0x48000800
 8004ee8:	48000c00 	.word	0x48000c00
 8004eec:	48001000 	.word	0x48001000
 8004ef0:	48001400 	.word	0x48001400
 8004ef4:	40010400 	.word	0x40010400

08004ef8 <HAL_GPIO_WritePin>:
 8004ef8:	b90a      	cbnz	r2, 8004efe <HAL_GPIO_WritePin+0x6>
 8004efa:	6281      	str	r1, [r0, #40]	; 0x28
 8004efc:	4770      	bx	lr
 8004efe:	6181      	str	r1, [r0, #24]
 8004f00:	4770      	bx	lr
 8004f02:	bf00      	nop

08004f04 <HAL_OPAMP_Init>:
 8004f04:	2800      	cmp	r0, #0
 8004f06:	d05c      	beq.n	8004fc2 <HAL_OPAMP_Init+0xbe>
 8004f08:	f890 303a 	ldrb.w	r3, [r0, #58]	; 0x3a
 8004f0c:	2b05      	cmp	r3, #5
 8004f0e:	d058      	beq.n	8004fc2 <HAL_OPAMP_Init+0xbe>
 8004f10:	f890 303a 	ldrb.w	r3, [r0, #58]	; 0x3a
 8004f14:	2b02      	cmp	r3, #2
 8004f16:	d054      	beq.n	8004fc2 <HAL_OPAMP_Init+0xbe>
 8004f18:	4b3a      	ldr	r3, [pc, #232]	; (8005004 <HAL_OPAMP_Init+0x100>)
 8004f1a:	b570      	push	{r4, r5, r6, lr}
 8004f1c:	6e1a      	ldr	r2, [r3, #96]	; 0x60
 8004f1e:	f042 0201 	orr.w	r2, r2, #1
 8004f22:	661a      	str	r2, [r3, #96]	; 0x60
 8004f24:	6e1b      	ldr	r3, [r3, #96]	; 0x60
 8004f26:	b082      	sub	sp, #8
 8004f28:	f003 0301 	and.w	r3, r3, #1
 8004f2c:	9301      	str	r3, [sp, #4]
 8004f2e:	9b01      	ldr	r3, [sp, #4]
 8004f30:	f890 303a 	ldrb.w	r3, [r0, #58]	; 0x3a
 8004f34:	f003 02ff 	and.w	r2, r3, #255	; 0xff
 8004f38:	2b00      	cmp	r3, #0
 8004f3a:	d044      	beq.n	8004fc6 <HAL_OPAMP_Init+0xc2>
 8004f3c:	4604      	mov	r4, r0
 8004f3e:	f7fd fe0d 	bl	8002b5c <HAL_OPAMP_MspInit>
 8004f42:	68a3      	ldr	r3, [r4, #8]
 8004f44:	f023 0220 	bic.w	r2, r3, #32
 8004f48:	2a40      	cmp	r2, #64	; 0x40
 8004f4a:	6822      	ldr	r2, [r4, #0]
 8004f4c:	d041      	beq.n	8004fd2 <HAL_OPAMP_Init+0xce>
 8004f4e:	6860      	ldr	r0, [r4, #4]
 8004f50:	68e6      	ldr	r6, [r4, #12]
 8004f52:	6811      	ldr	r1, [r2, #0]
 8004f54:	6925      	ldr	r5, [r4, #16]
 8004f56:	4303      	orrs	r3, r0
 8004f58:	4333      	orrs	r3, r6
 8004f5a:	6ae0      	ldr	r0, [r4, #44]	; 0x2c
 8004f5c:	6a66      	ldr	r6, [r4, #36]	; 0x24
 8004f5e:	432b      	orrs	r3, r5
 8004f60:	f021 0110 	bic.w	r1, r1, #16
 8004f64:	4301      	orrs	r1, r0
 8004f66:	6aa5      	ldr	r5, [r4, #40]	; 0x28
 8004f68:	6011      	str	r1, [r2, #0]
 8004f6a:	4333      	orrs	r3, r6
 8004f6c:	e9d4 600c 	ldrd	r6, r0, [r4, #48]	; 0x30
 8004f70:	432b      	orrs	r3, r5
 8004f72:	4925      	ldr	r1, [pc, #148]	; (8005008 <HAL_OPAMP_Init+0x104>)
 8004f74:	6815      	ldr	r5, [r2, #0]
 8004f76:	ea43 43c6 	orr.w	r3, r3, r6, lsl #19
 8004f7a:	ea43 6300 	orr.w	r3, r3, r0, lsl #24
 8004f7e:	7d20      	ldrb	r0, [r4, #20]
 8004f80:	4029      	ands	r1, r5
 8004f82:	2801      	cmp	r0, #1
 8004f84:	ea43 0301 	orr.w	r3, r3, r1
 8004f88:	bf14      	ite	ne
 8004f8a:	2100      	movne	r1, #0
 8004f8c:	f44f 7180 	moveq.w	r1, #256	; 0x100
 8004f90:	430b      	orrs	r3, r1
 8004f92:	6013      	str	r3, [r2, #0]
 8004f94:	6993      	ldr	r3, [r2, #24]
 8004f96:	2b00      	cmp	r3, #0
 8004f98:	db09      	blt.n	8004fae <HAL_OPAMP_Init+0xaa>
 8004f9a:	e9d4 3506 	ldrd	r3, r5, [r4, #24]
 8004f9e:	6a20      	ldr	r0, [r4, #32]
 8004fa0:	6991      	ldr	r1, [r2, #24]
 8004fa2:	432b      	orrs	r3, r5
 8004fa4:	4303      	orrs	r3, r0
 8004fa6:	f021 013f 	bic.w	r1, r1, #63	; 0x3f
 8004faa:	430b      	orrs	r3, r1
 8004fac:	6193      	str	r3, [r2, #24]
 8004fae:	f894 303a 	ldrb.w	r3, [r4, #58]	; 0x3a
 8004fb2:	f003 00ff 	and.w	r0, r3, #255	; 0xff
 8004fb6:	b94b      	cbnz	r3, 8004fcc <HAL_OPAMP_Init+0xc8>
 8004fb8:	2301      	movs	r3, #1
 8004fba:	f884 303a 	strb.w	r3, [r4, #58]	; 0x3a
 8004fbe:	b002      	add	sp, #8
 8004fc0:	bd70      	pop	{r4, r5, r6, pc}
 8004fc2:	2001      	movs	r0, #1
 8004fc4:	4770      	bx	lr
 8004fc6:	f880 2039 	strb.w	r2, [r0, #57]	; 0x39
 8004fca:	e7b7      	b.n	8004f3c <HAL_OPAMP_Init+0x38>
 8004fcc:	2000      	movs	r0, #0
 8004fce:	b002      	add	sp, #8
 8004fd0:	bd70      	pop	{r4, r5, r6, pc}
 8004fd2:	6866      	ldr	r6, [r4, #4]
 8004fd4:	6811      	ldr	r1, [r2, #0]
 8004fd6:	6920      	ldr	r0, [r4, #16]
 8004fd8:	6ae5      	ldr	r5, [r4, #44]	; 0x2c
 8004fda:	4333      	orrs	r3, r6
 8004fdc:	4303      	orrs	r3, r0
 8004fde:	f021 0110 	bic.w	r1, r1, #16
 8004fe2:	6a60      	ldr	r0, [r4, #36]	; 0x24
 8004fe4:	4329      	orrs	r1, r5
 8004fe6:	6aa5      	ldr	r5, [r4, #40]	; 0x28
 8004fe8:	6011      	str	r1, [r2, #0]
 8004fea:	4303      	orrs	r3, r0
 8004fec:	6b20      	ldr	r0, [r4, #48]	; 0x30
 8004fee:	6816      	ldr	r6, [r2, #0]
 8004ff0:	4905      	ldr	r1, [pc, #20]	; (8005008 <HAL_OPAMP_Init+0x104>)
 8004ff2:	432b      	orrs	r3, r5
 8004ff4:	6b65      	ldr	r5, [r4, #52]	; 0x34
 8004ff6:	ea43 43c0 	orr.w	r3, r3, r0, lsl #19
 8004ffa:	4031      	ands	r1, r6
 8004ffc:	7d20      	ldrb	r0, [r4, #20]
 8004ffe:	ea43 6305 	orr.w	r3, r3, r5, lsl #24
 8005002:	e7be      	b.n	8004f82 <HAL_OPAMP_Init+0x7e>
 8005004:	40021000 	.word	0x40021000
 8005008:	e0003e11 	.word	0xe0003e11

0800500c <HAL_PWREx_ControlVoltageScaling>:
 800500c:	4a3b      	ldr	r2, [pc, #236]	; (80050fc <HAL_PWREx_ControlVoltageScaling+0xf0>)
 800500e:	b410      	push	{r4}
 8005010:	6813      	ldr	r3, [r2, #0]
 8005012:	b968      	cbnz	r0, 8005030 <HAL_PWREx_ControlVoltageScaling+0x24>
 8005014:	f403 63c0 	and.w	r3, r3, #1536	; 0x600
 8005018:	f5b3 6f80 	cmp.w	r3, #1024	; 0x400
 800501c:	d014      	beq.n	8005048 <HAL_PWREx_ControlVoltageScaling+0x3c>
 800501e:	f8d2 3080 	ldr.w	r3, [r2, #128]	; 0x80
 8005022:	f85d 4b04 	ldr.w	r4, [sp], #4
 8005026:	f423 7380 	bic.w	r3, r3, #256	; 0x100
 800502a:	f8c2 3080 	str.w	r3, [r2, #128]	; 0x80
 800502e:	4770      	bx	lr
 8005030:	f5b0 7f00 	cmp.w	r0, #512	; 0x200
 8005034:	d02f      	beq.n	8005096 <HAL_PWREx_ControlVoltageScaling+0x8a>
 8005036:	f423 63c0 	bic.w	r3, r3, #1536	; 0x600
 800503a:	f443 6380 	orr.w	r3, r3, #1024	; 0x400
 800503e:	6013      	str	r3, [r2, #0]
 8005040:	2000      	movs	r0, #0
 8005042:	f85d 4b04 	ldr.w	r4, [sp], #4
 8005046:	4770      	bx	lr
 8005048:	f8d2 1080 	ldr.w	r1, [r2, #128]	; 0x80
 800504c:	4b2c      	ldr	r3, [pc, #176]	; (8005100 <HAL_PWREx_ControlVoltageScaling+0xf4>)
 800504e:	482d      	ldr	r0, [pc, #180]	; (8005104 <HAL_PWREx_ControlVoltageScaling+0xf8>)
 8005050:	f421 7180 	bic.w	r1, r1, #256	; 0x100
 8005054:	f8c2 1080 	str.w	r1, [r2, #128]	; 0x80
 8005058:	6811      	ldr	r1, [r2, #0]
 800505a:	f421 61c0 	bic.w	r1, r1, #1536	; 0x600
 800505e:	f441 7100 	orr.w	r1, r1, #512	; 0x200
 8005062:	6011      	str	r1, [r2, #0]
 8005064:	681c      	ldr	r4, [r3, #0]
 8005066:	6951      	ldr	r1, [r2, #20]
 8005068:	2332      	movs	r3, #50	; 0x32
 800506a:	fb03 f304 	mul.w	r3, r3, r4
 800506e:	fba0 0303 	umull	r0, r3, r0, r3
 8005072:	0c9b      	lsrs	r3, r3, #18
 8005074:	0548      	lsls	r0, r1, #21
 8005076:	f103 0301 	add.w	r3, r3, #1
 800507a:	d506      	bpl.n	800508a <HAL_PWREx_ControlVoltageScaling+0x7e>
 800507c:	e000      	b.n	8005080 <HAL_PWREx_ControlVoltageScaling+0x74>
 800507e:	b123      	cbz	r3, 800508a <HAL_PWREx_ControlVoltageScaling+0x7e>
 8005080:	6951      	ldr	r1, [r2, #20]
 8005082:	0549      	lsls	r1, r1, #21
 8005084:	f103 33ff 	add.w	r3, r3, #4294967295
 8005088:	d4f9      	bmi.n	800507e <HAL_PWREx_ControlVoltageScaling+0x72>
 800508a:	4b1c      	ldr	r3, [pc, #112]	; (80050fc <HAL_PWREx_ControlVoltageScaling+0xf0>)
 800508c:	695b      	ldr	r3, [r3, #20]
 800508e:	055c      	lsls	r4, r3, #21
 8005090:	d5d6      	bpl.n	8005040 <HAL_PWREx_ControlVoltageScaling+0x34>
 8005092:	2003      	movs	r0, #3
 8005094:	e7d5      	b.n	8005042 <HAL_PWREx_ControlVoltageScaling+0x36>
 8005096:	f403 63c0 	and.w	r3, r3, #1536	; 0x600
 800509a:	f5b3 6f80 	cmp.w	r3, #1024	; 0x400
 800509e:	d009      	beq.n	80050b4 <HAL_PWREx_ControlVoltageScaling+0xa8>
 80050a0:	f8d2 3080 	ldr.w	r3, [r2, #128]	; 0x80
 80050a4:	f85d 4b04 	ldr.w	r4, [sp], #4
 80050a8:	f443 7380 	orr.w	r3, r3, #256	; 0x100
 80050ac:	2000      	movs	r0, #0
 80050ae:	f8c2 3080 	str.w	r3, [r2, #128]	; 0x80
 80050b2:	4770      	bx	lr
 80050b4:	f8d2 1080 	ldr.w	r1, [r2, #128]	; 0x80
 80050b8:	4b11      	ldr	r3, [pc, #68]	; (8005100 <HAL_PWREx_ControlVoltageScaling+0xf4>)
 80050ba:	4812      	ldr	r0, [pc, #72]	; (8005104 <HAL_PWREx_ControlVoltageScaling+0xf8>)
 80050bc:	f441 7180 	orr.w	r1, r1, #256	; 0x100
 80050c0:	f8c2 1080 	str.w	r1, [r2, #128]	; 0x80
 80050c4:	6811      	ldr	r1, [r2, #0]
 80050c6:	f421 61c0 	bic.w	r1, r1, #1536	; 0x600
 80050ca:	f441 7100 	orr.w	r1, r1, #512	; 0x200
 80050ce:	6011      	str	r1, [r2, #0]
 80050d0:	681c      	ldr	r4, [r3, #0]
 80050d2:	6951      	ldr	r1, [r2, #20]
 80050d4:	2332      	movs	r3, #50	; 0x32
 80050d6:	fb03 f304 	mul.w	r3, r3, r4
 80050da:	fba0 0303 	umull	r0, r3, r0, r3
 80050de:	0c9b      	lsrs	r3, r3, #18
 80050e0:	0548      	lsls	r0, r1, #21
 80050e2:	f103 0301 	add.w	r3, r3, #1
 80050e6:	d5d0      	bpl.n	800508a <HAL_PWREx_ControlVoltageScaling+0x7e>
 80050e8:	e001      	b.n	80050ee <HAL_PWREx_ControlVoltageScaling+0xe2>
 80050ea:	2b00      	cmp	r3, #0
 80050ec:	d0cd      	beq.n	800508a <HAL_PWREx_ControlVoltageScaling+0x7e>
 80050ee:	6951      	ldr	r1, [r2, #20]
 80050f0:	0549      	lsls	r1, r1, #21
 80050f2:	f103 33ff 	add.w	r3, r3, #4294967295
 80050f6:	d5c8      	bpl.n	800508a <HAL_PWREx_ControlVoltageScaling+0x7e>
 80050f8:	e7f7      	b.n	80050ea <HAL_PWREx_ControlVoltageScaling+0xde>
 80050fa:	bf00      	nop
 80050fc:	40007000 	.word	0x40007000
 8005100:	20000738 	.word	0x20000738
 8005104:	431bde83 	.word	0x431bde83

08005108 <HAL_RCC_OscConfig>:
 8005108:	2800      	cmp	r0, #0
 800510a:	f000 816c 	beq.w	80053e6 <HAL_RCC_OscConfig+0x2de>
 800510e:	e92d 41f0 	stmdb	sp!, {r4, r5, r6, r7, r8, lr}
 8005112:	6803      	ldr	r3, [r0, #0]
 8005114:	07d9      	lsls	r1, r3, #31
 8005116:	b082      	sub	sp, #8
 8005118:	4604      	mov	r4, r0
 800511a:	d52d      	bpl.n	8005178 <HAL_RCC_OscConfig+0x70>
 800511c:	49b7      	ldr	r1, [pc, #732]	; (80053fc <HAL_RCC_OscConfig+0x2f4>)
 800511e:	688a      	ldr	r2, [r1, #8]
 8005120:	68c9      	ldr	r1, [r1, #12]
 8005122:	f002 020c 	and.w	r2, r2, #12
 8005126:	2a0c      	cmp	r2, #12
 8005128:	f000 80f5 	beq.w	8005316 <HAL_RCC_OscConfig+0x20e>
 800512c:	2a08      	cmp	r2, #8
 800512e:	f000 80f7 	beq.w	8005320 <HAL_RCC_OscConfig+0x218>
 8005132:	6863      	ldr	r3, [r4, #4]
 8005134:	f5b3 3f80 	cmp.w	r3, #65536	; 0x10000
 8005138:	f000 812e 	beq.w	8005398 <HAL_RCC_OscConfig+0x290>
 800513c:	f5b3 2fa0 	cmp.w	r3, #327680	; 0x50000
 8005140:	f000 81e0 	beq.w	8005504 <HAL_RCC_OscConfig+0x3fc>
 8005144:	4dad      	ldr	r5, [pc, #692]	; (80053fc <HAL_RCC_OscConfig+0x2f4>)
 8005146:	682a      	ldr	r2, [r5, #0]
 8005148:	f422 3280 	bic.w	r2, r2, #65536	; 0x10000
 800514c:	602a      	str	r2, [r5, #0]
 800514e:	682a      	ldr	r2, [r5, #0]
 8005150:	f422 2280 	bic.w	r2, r2, #262144	; 0x40000
 8005154:	602a      	str	r2, [r5, #0]
 8005156:	2b00      	cmp	r3, #0
 8005158:	f040 8123 	bne.w	80053a2 <HAL_RCC_OscConfig+0x29a>
 800515c:	f7fe fd6e 	bl	8003c3c <HAL_GetTick>
 8005160:	4606      	mov	r6, r0
 8005162:	e005      	b.n	8005170 <HAL_RCC_OscConfig+0x68>
 8005164:	f7fe fd6a 	bl	8003c3c <HAL_GetTick>
 8005168:	1b80      	subs	r0, r0, r6
 800516a:	2864      	cmp	r0, #100	; 0x64
 800516c:	f200 8137 	bhi.w	80053de <HAL_RCC_OscConfig+0x2d6>
 8005170:	682b      	ldr	r3, [r5, #0]
 8005172:	039f      	lsls	r7, r3, #14
 8005174:	d4f6      	bmi.n	8005164 <HAL_RCC_OscConfig+0x5c>
 8005176:	6823      	ldr	r3, [r4, #0]
 8005178:	079e      	lsls	r6, r3, #30
 800517a:	f100 80a5 	bmi.w	80052c8 <HAL_RCC_OscConfig+0x1c0>
 800517e:	071a      	lsls	r2, r3, #28
 8005180:	d519      	bpl.n	80051b6 <HAL_RCC_OscConfig+0xae>
 8005182:	6963      	ldr	r3, [r4, #20]
 8005184:	4d9d      	ldr	r5, [pc, #628]	; (80053fc <HAL_RCC_OscConfig+0x2f4>)
 8005186:	2b00      	cmp	r3, #0
 8005188:	f000 80d7 	beq.w	800533a <HAL_RCC_OscConfig+0x232>
 800518c:	f8d5 3094 	ldr.w	r3, [r5, #148]	; 0x94
 8005190:	f043 0301 	orr.w	r3, r3, #1
 8005194:	f8c5 3094 	str.w	r3, [r5, #148]	; 0x94
 8005198:	f7fe fd50 	bl	8003c3c <HAL_GetTick>
 800519c:	4606      	mov	r6, r0
 800519e:	e005      	b.n	80051ac <HAL_RCC_OscConfig+0xa4>
 80051a0:	f7fe fd4c 	bl	8003c3c <HAL_GetTick>
 80051a4:	1b80      	subs	r0, r0, r6
 80051a6:	2802      	cmp	r0, #2
 80051a8:	f200 8119 	bhi.w	80053de <HAL_RCC_OscConfig+0x2d6>
 80051ac:	f8d5 3094 	ldr.w	r3, [r5, #148]	; 0x94
 80051b0:	079f      	lsls	r7, r3, #30
 80051b2:	d5f5      	bpl.n	80051a0 <HAL_RCC_OscConfig+0x98>
 80051b4:	6823      	ldr	r3, [r4, #0]
 80051b6:	0759      	lsls	r1, r3, #29
 80051b8:	d53f      	bpl.n	800523a <HAL_RCC_OscConfig+0x132>
 80051ba:	4b90      	ldr	r3, [pc, #576]	; (80053fc <HAL_RCC_OscConfig+0x2f4>)
 80051bc:	6d9a      	ldr	r2, [r3, #88]	; 0x58
 80051be:	00d2      	lsls	r2, r2, #3
 80051c0:	f100 812b 	bmi.w	800541a <HAL_RCC_OscConfig+0x312>
 80051c4:	6d9a      	ldr	r2, [r3, #88]	; 0x58
 80051c6:	f042 5280 	orr.w	r2, r2, #268435456	; 0x10000000
 80051ca:	659a      	str	r2, [r3, #88]	; 0x58
 80051cc:	6d9b      	ldr	r3, [r3, #88]	; 0x58
 80051ce:	f003 5380 	and.w	r3, r3, #268435456	; 0x10000000
 80051d2:	9301      	str	r3, [sp, #4]
 80051d4:	9b01      	ldr	r3, [sp, #4]
 80051d6:	2601      	movs	r6, #1
 80051d8:	4d89      	ldr	r5, [pc, #548]	; (8005400 <HAL_RCC_OscConfig+0x2f8>)
 80051da:	682a      	ldr	r2, [r5, #0]
 80051dc:	05d7      	lsls	r7, r2, #23
 80051de:	f140 80ee 	bpl.w	80053be <HAL_RCC_OscConfig+0x2b6>
 80051e2:	68a3      	ldr	r3, [r4, #8]
 80051e4:	2b01      	cmp	r3, #1
 80051e6:	f000 811a 	beq.w	800541e <HAL_RCC_OscConfig+0x316>
 80051ea:	2b05      	cmp	r3, #5
 80051ec:	f000 81cb 	beq.w	8005586 <HAL_RCC_OscConfig+0x47e>
 80051f0:	4d82      	ldr	r5, [pc, #520]	; (80053fc <HAL_RCC_OscConfig+0x2f4>)
 80051f2:	f8d5 2090 	ldr.w	r2, [r5, #144]	; 0x90
 80051f6:	f022 0201 	bic.w	r2, r2, #1
 80051fa:	f8c5 2090 	str.w	r2, [r5, #144]	; 0x90
 80051fe:	f8d5 2090 	ldr.w	r2, [r5, #144]	; 0x90
 8005202:	f022 0204 	bic.w	r2, r2, #4
 8005206:	f8c5 2090 	str.w	r2, [r5, #144]	; 0x90
 800520a:	2b00      	cmp	r3, #0
 800520c:	f040 810e 	bne.w	800542c <HAL_RCC_OscConfig+0x324>
 8005210:	f7fe fd14 	bl	8003c3c <HAL_GetTick>
 8005214:	f241 3788 	movw	r7, #5000	; 0x1388
 8005218:	4680      	mov	r8, r0
 800521a:	e006      	b.n	800522a <HAL_RCC_OscConfig+0x122>
 800521c:	f7fe fd0e 	bl	8003c3c <HAL_GetTick>
 8005220:	eba0 0008 	sub.w	r0, r0, r8
 8005224:	42b8      	cmp	r0, r7
 8005226:	f200 80da 	bhi.w	80053de <HAL_RCC_OscConfig+0x2d6>
 800522a:	f8d5 3090 	ldr.w	r3, [r5, #144]	; 0x90
 800522e:	079a      	lsls	r2, r3, #30
 8005230:	d4f4      	bmi.n	800521c <HAL_RCC_OscConfig+0x114>
 8005232:	2e00      	cmp	r6, #0
 8005234:	f040 8123 	bne.w	800547e <HAL_RCC_OscConfig+0x376>
 8005238:	6823      	ldr	r3, [r4, #0]
 800523a:	069b      	lsls	r3, r3, #26
 800523c:	d518      	bpl.n	8005270 <HAL_RCC_OscConfig+0x168>
 800523e:	69a3      	ldr	r3, [r4, #24]
 8005240:	4d6e      	ldr	r5, [pc, #440]	; (80053fc <HAL_RCC_OscConfig+0x2f4>)
 8005242:	2b00      	cmp	r3, #0
 8005244:	f000 8107 	beq.w	8005456 <HAL_RCC_OscConfig+0x34e>
 8005248:	f8d5 3098 	ldr.w	r3, [r5, #152]	; 0x98
 800524c:	f043 0301 	orr.w	r3, r3, #1
 8005250:	f8c5 3098 	str.w	r3, [r5, #152]	; 0x98
 8005254:	f7fe fcf2 	bl	8003c3c <HAL_GetTick>
 8005258:	4606      	mov	r6, r0
 800525a:	e005      	b.n	8005268 <HAL_RCC_OscConfig+0x160>
 800525c:	f7fe fcee 	bl	8003c3c <HAL_GetTick>
 8005260:	1b80      	subs	r0, r0, r6
 8005262:	2802      	cmp	r0, #2
 8005264:	f200 80bb 	bhi.w	80053de <HAL_RCC_OscConfig+0x2d6>
 8005268:	f8d5 3098 	ldr.w	r3, [r5, #152]	; 0x98
 800526c:	079f      	lsls	r7, r3, #30
 800526e:	d5f5      	bpl.n	800525c <HAL_RCC_OscConfig+0x154>
 8005270:	69e0      	ldr	r0, [r4, #28]
 8005272:	b328      	cbz	r0, 80052c0 <HAL_RCC_OscConfig+0x1b8>
 8005274:	4d61      	ldr	r5, [pc, #388]	; (80053fc <HAL_RCC_OscConfig+0x2f4>)
 8005276:	68aa      	ldr	r2, [r5, #8]
 8005278:	f002 020c 	and.w	r2, r2, #12
 800527c:	2a0c      	cmp	r2, #12
 800527e:	f000 814e 	beq.w	800551e <HAL_RCC_OscConfig+0x416>
 8005282:	682a      	ldr	r2, [r5, #0]
 8005284:	2802      	cmp	r0, #2
 8005286:	f022 7280 	bic.w	r2, r2, #16777216	; 0x1000000
 800528a:	602a      	str	r2, [r5, #0]
 800528c:	f000 80fd 	beq.w	800548a <HAL_RCC_OscConfig+0x382>
 8005290:	68ea      	ldr	r2, [r5, #12]
 8005292:	f022 0203 	bic.w	r2, r2, #3
 8005296:	60ea      	str	r2, [r5, #12]
 8005298:	68ea      	ldr	r2, [r5, #12]
 800529a:	f022 7288 	bic.w	r2, r2, #17825792	; 0x1100000
 800529e:	f422 3280 	bic.w	r2, r2, #65536	; 0x10000
 80052a2:	60ea      	str	r2, [r5, #12]
 80052a4:	f7fe fcca 	bl	8003c3c <HAL_GetTick>
 80052a8:	462c      	mov	r4, r5
 80052aa:	4605      	mov	r5, r0
 80052ac:	e005      	b.n	80052ba <HAL_RCC_OscConfig+0x1b2>
 80052ae:	f7fe fcc5 	bl	8003c3c <HAL_GetTick>
 80052b2:	1b40      	subs	r0, r0, r5
 80052b4:	2802      	cmp	r0, #2
 80052b6:	f200 8092 	bhi.w	80053de <HAL_RCC_OscConfig+0x2d6>
 80052ba:	6823      	ldr	r3, [r4, #0]
 80052bc:	019b      	lsls	r3, r3, #6
 80052be:	d4f6      	bmi.n	80052ae <HAL_RCC_OscConfig+0x1a6>
 80052c0:	2000      	movs	r0, #0
 80052c2:	b002      	add	sp, #8
 80052c4:	e8bd 81f0 	ldmia.w	sp!, {r4, r5, r6, r7, r8, pc}
 80052c8:	4a4c      	ldr	r2, [pc, #304]	; (80053fc <HAL_RCC_OscConfig+0x2f4>)
 80052ca:	6893      	ldr	r3, [r2, #8]
 80052cc:	68d2      	ldr	r2, [r2, #12]
 80052ce:	f003 030c 	and.w	r3, r3, #12
 80052d2:	2b0c      	cmp	r3, #12
 80052d4:	d045      	beq.n	8005362 <HAL_RCC_OscConfig+0x25a>
 80052d6:	2b04      	cmp	r3, #4
 80052d8:	d047      	beq.n	800536a <HAL_RCC_OscConfig+0x262>
 80052da:	68e3      	ldr	r3, [r4, #12]
 80052dc:	4d47      	ldr	r5, [pc, #284]	; (80053fc <HAL_RCC_OscConfig+0x2f4>)
 80052de:	2b00      	cmp	r3, #0
 80052e0:	f000 8083 	beq.w	80053ea <HAL_RCC_OscConfig+0x2e2>
 80052e4:	682b      	ldr	r3, [r5, #0]
 80052e6:	f443 7380 	orr.w	r3, r3, #256	; 0x100
 80052ea:	602b      	str	r3, [r5, #0]
 80052ec:	f7fe fca6 	bl	8003c3c <HAL_GetTick>
 80052f0:	4606      	mov	r6, r0
 80052f2:	e004      	b.n	80052fe <HAL_RCC_OscConfig+0x1f6>
 80052f4:	f7fe fca2 	bl	8003c3c <HAL_GetTick>
 80052f8:	1b80      	subs	r0, r0, r6
 80052fa:	2802      	cmp	r0, #2
 80052fc:	d86f      	bhi.n	80053de <HAL_RCC_OscConfig+0x2d6>
 80052fe:	682b      	ldr	r3, [r5, #0]
 8005300:	0558      	lsls	r0, r3, #21
 8005302:	d5f7      	bpl.n	80052f4 <HAL_RCC_OscConfig+0x1ec>
 8005304:	686b      	ldr	r3, [r5, #4]
 8005306:	6922      	ldr	r2, [r4, #16]
 8005308:	f023 43fe 	bic.w	r3, r3, #2130706432	; 0x7f000000
 800530c:	ea43 6302 	orr.w	r3, r3, r2, lsl #24
 8005310:	606b      	str	r3, [r5, #4]
 8005312:	6823      	ldr	r3, [r4, #0]
 8005314:	e733      	b.n	800517e <HAL_RCC_OscConfig+0x76>
 8005316:	f001 0103 	and.w	r1, r1, #3
 800531a:	2903      	cmp	r1, #3
 800531c:	f47f af09 	bne.w	8005132 <HAL_RCC_OscConfig+0x2a>
 8005320:	4a36      	ldr	r2, [pc, #216]	; (80053fc <HAL_RCC_OscConfig+0x2f4>)
 8005322:	6812      	ldr	r2, [r2, #0]
 8005324:	0392      	lsls	r2, r2, #14
 8005326:	f57f af27 	bpl.w	8005178 <HAL_RCC_OscConfig+0x70>
 800532a:	6862      	ldr	r2, [r4, #4]
 800532c:	2a00      	cmp	r2, #0
 800532e:	f47f af23 	bne.w	8005178 <HAL_RCC_OscConfig+0x70>
 8005332:	2001      	movs	r0, #1
 8005334:	b002      	add	sp, #8
 8005336:	e8bd 81f0 	ldmia.w	sp!, {r4, r5, r6, r7, r8, pc}
 800533a:	f8d5 3094 	ldr.w	r3, [r5, #148]	; 0x94
 800533e:	f023 0301 	bic.w	r3, r3, #1
 8005342:	f8c5 3094 	str.w	r3, [r5, #148]	; 0x94
 8005346:	f7fe fc79 	bl	8003c3c <HAL_GetTick>
 800534a:	4606      	mov	r6, r0
 800534c:	e004      	b.n	8005358 <HAL_RCC_OscConfig+0x250>
 800534e:	f7fe fc75 	bl	8003c3c <HAL_GetTick>
 8005352:	1b80      	subs	r0, r0, r6
 8005354:	2802      	cmp	r0, #2
 8005356:	d842      	bhi.n	80053de <HAL_RCC_OscConfig+0x2d6>
 8005358:	f8d5 3094 	ldr.w	r3, [r5, #148]	; 0x94
 800535c:	0798      	lsls	r0, r3, #30
 800535e:	d4f6      	bmi.n	800534e <HAL_RCC_OscConfig+0x246>
 8005360:	e728      	b.n	80051b4 <HAL_RCC_OscConfig+0xac>
 8005362:	f002 0203 	and.w	r2, r2, #3
 8005366:	2a02      	cmp	r2, #2
 8005368:	d1b7      	bne.n	80052da <HAL_RCC_OscConfig+0x1d2>
 800536a:	4b24      	ldr	r3, [pc, #144]	; (80053fc <HAL_RCC_OscConfig+0x2f4>)
 800536c:	681b      	ldr	r3, [r3, #0]
 800536e:	055d      	lsls	r5, r3, #21
 8005370:	d502      	bpl.n	8005378 <HAL_RCC_OscConfig+0x270>
 8005372:	68e3      	ldr	r3, [r4, #12]
 8005374:	2b00      	cmp	r3, #0
 8005376:	d0dc      	beq.n	8005332 <HAL_RCC_OscConfig+0x22a>
 8005378:	4a20      	ldr	r2, [pc, #128]	; (80053fc <HAL_RCC_OscConfig+0x2f4>)
 800537a:	6920      	ldr	r0, [r4, #16]
 800537c:	6853      	ldr	r3, [r2, #4]
 800537e:	4921      	ldr	r1, [pc, #132]	; (8005404 <HAL_RCC_OscConfig+0x2fc>)
 8005380:	f023 43fe 	bic.w	r3, r3, #2130706432	; 0x7f000000
 8005384:	ea43 6300 	orr.w	r3, r3, r0, lsl #24
 8005388:	6053      	str	r3, [r2, #4]
 800538a:	6808      	ldr	r0, [r1, #0]
 800538c:	f7fe fc10 	bl	8003bb0 <HAL_InitTick>
 8005390:	2800      	cmp	r0, #0
 8005392:	d1ce      	bne.n	8005332 <HAL_RCC_OscConfig+0x22a>
 8005394:	6823      	ldr	r3, [r4, #0]
 8005396:	e6f2      	b.n	800517e <HAL_RCC_OscConfig+0x76>
 8005398:	4a18      	ldr	r2, [pc, #96]	; (80053fc <HAL_RCC_OscConfig+0x2f4>)
 800539a:	6813      	ldr	r3, [r2, #0]
 800539c:	f443 3380 	orr.w	r3, r3, #65536	; 0x10000
 80053a0:	6013      	str	r3, [r2, #0]
 80053a2:	f7fe fc4b 	bl	8003c3c <HAL_GetTick>
 80053a6:	4d15      	ldr	r5, [pc, #84]	; (80053fc <HAL_RCC_OscConfig+0x2f4>)
 80053a8:	4606      	mov	r6, r0
 80053aa:	e004      	b.n	80053b6 <HAL_RCC_OscConfig+0x2ae>
 80053ac:	f7fe fc46 	bl	8003c3c <HAL_GetTick>
 80053b0:	1b80      	subs	r0, r0, r6
 80053b2:	2864      	cmp	r0, #100	; 0x64
 80053b4:	d813      	bhi.n	80053de <HAL_RCC_OscConfig+0x2d6>
 80053b6:	682b      	ldr	r3, [r5, #0]
 80053b8:	039b      	lsls	r3, r3, #14
 80053ba:	d5f7      	bpl.n	80053ac <HAL_RCC_OscConfig+0x2a4>
 80053bc:	e6db      	b.n	8005176 <HAL_RCC_OscConfig+0x6e>
 80053be:	682a      	ldr	r2, [r5, #0]
 80053c0:	f442 7280 	orr.w	r2, r2, #256	; 0x100
 80053c4:	602a      	str	r2, [r5, #0]
 80053c6:	f7fe fc39 	bl	8003c3c <HAL_GetTick>
 80053ca:	4607      	mov	r7, r0
 80053cc:	682b      	ldr	r3, [r5, #0]
 80053ce:	05d8      	lsls	r0, r3, #23
 80053d0:	f53f af07 	bmi.w	80051e2 <HAL_RCC_OscConfig+0xda>
 80053d4:	f7fe fc32 	bl	8003c3c <HAL_GetTick>
 80053d8:	1bc0      	subs	r0, r0, r7
 80053da:	2802      	cmp	r0, #2
 80053dc:	d9f6      	bls.n	80053cc <HAL_RCC_OscConfig+0x2c4>
 80053de:	2003      	movs	r0, #3
 80053e0:	b002      	add	sp, #8
 80053e2:	e8bd 81f0 	ldmia.w	sp!, {r4, r5, r6, r7, r8, pc}
 80053e6:	2001      	movs	r0, #1
 80053e8:	4770      	bx	lr
 80053ea:	682b      	ldr	r3, [r5, #0]
 80053ec:	f423 7380 	bic.w	r3, r3, #256	; 0x100
 80053f0:	602b      	str	r3, [r5, #0]
 80053f2:	f7fe fc23 	bl	8003c3c <HAL_GetTick>
 80053f6:	4606      	mov	r6, r0
 80053f8:	e00b      	b.n	8005412 <HAL_RCC_OscConfig+0x30a>
 80053fa:	bf00      	nop
 80053fc:	40021000 	.word	0x40021000
 8005400:	40007000 	.word	0x40007000
 8005404:	20000740 	.word	0x20000740
 8005408:	f7fe fc18 	bl	8003c3c <HAL_GetTick>
 800540c:	1b80      	subs	r0, r0, r6
 800540e:	2802      	cmp	r0, #2
 8005410:	d8e5      	bhi.n	80053de <HAL_RCC_OscConfig+0x2d6>
 8005412:	682b      	ldr	r3, [r5, #0]
 8005414:	0559      	lsls	r1, r3, #21
 8005416:	d4f7      	bmi.n	8005408 <HAL_RCC_OscConfig+0x300>
 8005418:	e7bc      	b.n	8005394 <HAL_RCC_OscConfig+0x28c>
 800541a:	2600      	movs	r6, #0
 800541c:	e6dc      	b.n	80051d8 <HAL_RCC_OscConfig+0xd0>
 800541e:	4a61      	ldr	r2, [pc, #388]	; (80055a4 <HAL_RCC_OscConfig+0x49c>)
 8005420:	f8d2 3090 	ldr.w	r3, [r2, #144]	; 0x90
 8005424:	f043 0301 	orr.w	r3, r3, #1
 8005428:	f8c2 3090 	str.w	r3, [r2, #144]	; 0x90
 800542c:	f7fe fc06 	bl	8003c3c <HAL_GetTick>
 8005430:	4d5c      	ldr	r5, [pc, #368]	; (80055a4 <HAL_RCC_OscConfig+0x49c>)
 8005432:	4680      	mov	r8, r0
 8005434:	f241 3788 	movw	r7, #5000	; 0x1388
 8005438:	e005      	b.n	8005446 <HAL_RCC_OscConfig+0x33e>
 800543a:	f7fe fbff 	bl	8003c3c <HAL_GetTick>
 800543e:	eba0 0008 	sub.w	r0, r0, r8
 8005442:	42b8      	cmp	r0, r7
 8005444:	d8cb      	bhi.n	80053de <HAL_RCC_OscConfig+0x2d6>
 8005446:	f8d5 3090 	ldr.w	r3, [r5, #144]	; 0x90
 800544a:	0799      	lsls	r1, r3, #30
 800544c:	d5f5      	bpl.n	800543a <HAL_RCC_OscConfig+0x332>
 800544e:	2e00      	cmp	r6, #0
 8005450:	f43f aef2 	beq.w	8005238 <HAL_RCC_OscConfig+0x130>
 8005454:	e013      	b.n	800547e <HAL_RCC_OscConfig+0x376>
 8005456:	f8d5 3098 	ldr.w	r3, [r5, #152]	; 0x98
 800545a:	f023 0301 	bic.w	r3, r3, #1
 800545e:	f8c5 3098 	str.w	r3, [r5, #152]	; 0x98
 8005462:	f7fe fbeb 	bl	8003c3c <HAL_GetTick>
 8005466:	4606      	mov	r6, r0
 8005468:	e004      	b.n	8005474 <HAL_RCC_OscConfig+0x36c>
 800546a:	f7fe fbe7 	bl	8003c3c <HAL_GetTick>
 800546e:	1b80      	subs	r0, r0, r6
 8005470:	2802      	cmp	r0, #2
 8005472:	d8b4      	bhi.n	80053de <HAL_RCC_OscConfig+0x2d6>
 8005474:	f8d5 3098 	ldr.w	r3, [r5, #152]	; 0x98
 8005478:	0798      	lsls	r0, r3, #30
 800547a:	d4f6      	bmi.n	800546a <HAL_RCC_OscConfig+0x362>
 800547c:	e6f8      	b.n	8005270 <HAL_RCC_OscConfig+0x168>
 800547e:	4a49      	ldr	r2, [pc, #292]	; (80055a4 <HAL_RCC_OscConfig+0x49c>)
 8005480:	6d93      	ldr	r3, [r2, #88]	; 0x58
 8005482:	f023 5380 	bic.w	r3, r3, #268435456	; 0x10000000
 8005486:	6593      	str	r3, [r2, #88]	; 0x58
 8005488:	e6d6      	b.n	8005238 <HAL_RCC_OscConfig+0x130>
 800548a:	f7fe fbd7 	bl	8003c3c <HAL_GetTick>
 800548e:	4606      	mov	r6, r0
 8005490:	e004      	b.n	800549c <HAL_RCC_OscConfig+0x394>
 8005492:	f7fe fbd3 	bl	8003c3c <HAL_GetTick>
 8005496:	1b80      	subs	r0, r0, r6
 8005498:	2802      	cmp	r0, #2
 800549a:	d8a0      	bhi.n	80053de <HAL_RCC_OscConfig+0x2d6>
 800549c:	682b      	ldr	r3, [r5, #0]
 800549e:	0199      	lsls	r1, r3, #6
 80054a0:	d4f7      	bmi.n	8005492 <HAL_RCC_OscConfig+0x38a>
 80054a2:	68e9      	ldr	r1, [r5, #12]
 80054a4:	4b40      	ldr	r3, [pc, #256]	; (80055a8 <HAL_RCC_OscConfig+0x4a0>)
 80054a6:	6a22      	ldr	r2, [r4, #32]
 80054a8:	6aa7      	ldr	r7, [r4, #40]	; 0x28
 80054aa:	6ae6      	ldr	r6, [r4, #44]	; 0x2c
 80054ac:	6a60      	ldr	r0, [r4, #36]	; 0x24
 80054ae:	400b      	ands	r3, r1
 80054b0:	4313      	orrs	r3, r2
 80054b2:	e9d4 120c 	ldrd	r1, r2, [r4, #48]	; 0x30
 80054b6:	ea43 2307 	orr.w	r3, r3, r7, lsl #8
 80054ba:	3801      	subs	r0, #1
 80054bc:	ea43 63c6 	orr.w	r3, r3, r6, lsl #27
 80054c0:	0849      	lsrs	r1, r1, #1
 80054c2:	ea43 1300 	orr.w	r3, r3, r0, lsl #4
 80054c6:	3901      	subs	r1, #1
 80054c8:	0852      	lsrs	r2, r2, #1
 80054ca:	ea43 5341 	orr.w	r3, r3, r1, lsl #21
 80054ce:	3a01      	subs	r2, #1
 80054d0:	ea43 6342 	orr.w	r3, r3, r2, lsl #25
 80054d4:	60eb      	str	r3, [r5, #12]
 80054d6:	682b      	ldr	r3, [r5, #0]
 80054d8:	4c32      	ldr	r4, [pc, #200]	; (80055a4 <HAL_RCC_OscConfig+0x49c>)
 80054da:	f043 7380 	orr.w	r3, r3, #16777216	; 0x1000000
 80054de:	602b      	str	r3, [r5, #0]
 80054e0:	68eb      	ldr	r3, [r5, #12]
 80054e2:	f043 7380 	orr.w	r3, r3, #16777216	; 0x1000000
 80054e6:	60eb      	str	r3, [r5, #12]
 80054e8:	f7fe fba8 	bl	8003c3c <HAL_GetTick>
 80054ec:	4605      	mov	r5, r0
 80054ee:	e005      	b.n	80054fc <HAL_RCC_OscConfig+0x3f4>
 80054f0:	f7fe fba4 	bl	8003c3c <HAL_GetTick>
 80054f4:	1b40      	subs	r0, r0, r5
 80054f6:	2802      	cmp	r0, #2
 80054f8:	f63f af71 	bhi.w	80053de <HAL_RCC_OscConfig+0x2d6>
 80054fc:	6823      	ldr	r3, [r4, #0]
 80054fe:	019a      	lsls	r2, r3, #6
 8005500:	d5f6      	bpl.n	80054f0 <HAL_RCC_OscConfig+0x3e8>
 8005502:	e6dd      	b.n	80052c0 <HAL_RCC_OscConfig+0x1b8>
 8005504:	f103 4380 	add.w	r3, r3, #1073741824	; 0x40000000
 8005508:	f5a3 333c 	sub.w	r3, r3, #192512	; 0x2f000
 800550c:	681a      	ldr	r2, [r3, #0]
 800550e:	f442 2280 	orr.w	r2, r2, #262144	; 0x40000
 8005512:	601a      	str	r2, [r3, #0]
 8005514:	681a      	ldr	r2, [r3, #0]
 8005516:	f442 3280 	orr.w	r2, r2, #65536	; 0x10000
 800551a:	601a      	str	r2, [r3, #0]
 800551c:	e741      	b.n	80053a2 <HAL_RCC_OscConfig+0x29a>
 800551e:	2801      	cmp	r0, #1
 8005520:	f43f af08 	beq.w	8005334 <HAL_RCC_OscConfig+0x22c>
 8005524:	68eb      	ldr	r3, [r5, #12]
 8005526:	6a22      	ldr	r2, [r4, #32]
 8005528:	f003 0103 	and.w	r1, r3, #3
 800552c:	4291      	cmp	r1, r2
 800552e:	f47f af00 	bne.w	8005332 <HAL_RCC_OscConfig+0x22a>
 8005532:	6a61      	ldr	r1, [r4, #36]	; 0x24
 8005534:	f003 02f0 	and.w	r2, r3, #240	; 0xf0
 8005538:	3901      	subs	r1, #1
 800553a:	ebb2 1f01 	cmp.w	r2, r1, lsl #4
 800553e:	f47f aef8 	bne.w	8005332 <HAL_RCC_OscConfig+0x22a>
 8005542:	6aa1      	ldr	r1, [r4, #40]	; 0x28
 8005544:	f403 42fe 	and.w	r2, r3, #32512	; 0x7f00
 8005548:	ebb2 2f01 	cmp.w	r2, r1, lsl #8
 800554c:	f47f aef1 	bne.w	8005332 <HAL_RCC_OscConfig+0x22a>
 8005550:	6ae1      	ldr	r1, [r4, #44]	; 0x2c
 8005552:	f003 4278 	and.w	r2, r3, #4160749568	; 0xf8000000
 8005556:	ebb2 6fc1 	cmp.w	r2, r1, lsl #27
 800555a:	f47f aeea 	bne.w	8005332 <HAL_RCC_OscConfig+0x22a>
 800555e:	6b22      	ldr	r2, [r4, #48]	; 0x30
 8005560:	0852      	lsrs	r2, r2, #1
 8005562:	3a01      	subs	r2, #1
 8005564:	f403 01c0 	and.w	r1, r3, #6291456	; 0x600000
 8005568:	ebb1 5f42 	cmp.w	r1, r2, lsl #21
 800556c:	f47f aee1 	bne.w	8005332 <HAL_RCC_OscConfig+0x22a>
 8005570:	6b62      	ldr	r2, [r4, #52]	; 0x34
 8005572:	0852      	lsrs	r2, r2, #1
 8005574:	3a01      	subs	r2, #1
 8005576:	f003 63c0 	and.w	r3, r3, #100663296	; 0x6000000
 800557a:	ebb3 6f42 	cmp.w	r3, r2, lsl #25
 800557e:	bf14      	ite	ne
 8005580:	2001      	movne	r0, #1
 8005582:	2000      	moveq	r0, #0
 8005584:	e6d6      	b.n	8005334 <HAL_RCC_OscConfig+0x22c>
 8005586:	4b07      	ldr	r3, [pc, #28]	; (80055a4 <HAL_RCC_OscConfig+0x49c>)
 8005588:	f8d3 2090 	ldr.w	r2, [r3, #144]	; 0x90
 800558c:	f042 0204 	orr.w	r2, r2, #4
 8005590:	f8c3 2090 	str.w	r2, [r3, #144]	; 0x90
 8005594:	f8d3 2090 	ldr.w	r2, [r3, #144]	; 0x90
 8005598:	f042 0201 	orr.w	r2, r2, #1
 800559c:	f8c3 2090 	str.w	r2, [r3, #144]	; 0x90
 80055a0:	e744      	b.n	800542c <HAL_RCC_OscConfig+0x324>
 80055a2:	bf00      	nop
 80055a4:	40021000 	.word	0x40021000
 80055a8:	019f800c 	.word	0x019f800c

080055ac <HAL_RCC_ClockConfig>:
 80055ac:	2800      	cmp	r0, #0
 80055ae:	f000 8105 	beq.w	80057bc <HAL_RCC_ClockConfig+0x210>
 80055b2:	4aad      	ldr	r2, [pc, #692]	; (8005868 <HAL_RCC_ClockConfig+0x2bc>)
 80055b4:	e92d 43f8 	stmdb	sp!, {r3, r4, r5, r6, r7, r8, r9, lr}
 80055b8:	6813      	ldr	r3, [r2, #0]
 80055ba:	f003 030f 	and.w	r3, r3, #15
 80055be:	428b      	cmp	r3, r1
 80055c0:	d20c      	bcs.n	80055dc <HAL_RCC_ClockConfig+0x30>
 80055c2:	6813      	ldr	r3, [r2, #0]
 80055c4:	f023 030f 	bic.w	r3, r3, #15
 80055c8:	430b      	orrs	r3, r1
 80055ca:	6013      	str	r3, [r2, #0]
 80055cc:	6813      	ldr	r3, [r2, #0]
 80055ce:	f003 030f 	and.w	r3, r3, #15
 80055d2:	428b      	cmp	r3, r1
 80055d4:	d002      	beq.n	80055dc <HAL_RCC_ClockConfig+0x30>
 80055d6:	2001      	movs	r0, #1
 80055d8:	e8bd 83f8 	ldmia.w	sp!, {r3, r4, r5, r6, r7, r8, r9, pc}
 80055dc:	6803      	ldr	r3, [r0, #0]
 80055de:	07df      	lsls	r7, r3, #31
 80055e0:	4604      	mov	r4, r0
 80055e2:	460d      	mov	r5, r1
 80055e4:	f140 8088 	bpl.w	80056f8 <HAL_RCC_ClockConfig+0x14c>
 80055e8:	6842      	ldr	r2, [r0, #4]
 80055ea:	2a03      	cmp	r2, #3
 80055ec:	f000 80ad 	beq.w	800574a <HAL_RCC_ClockConfig+0x19e>
 80055f0:	4b9e      	ldr	r3, [pc, #632]	; (800586c <HAL_RCC_ClockConfig+0x2c0>)
 80055f2:	2a02      	cmp	r2, #2
 80055f4:	681b      	ldr	r3, [r3, #0]
 80055f6:	f000 80ff 	beq.w	80057f8 <HAL_RCC_ClockConfig+0x24c>
 80055fa:	055b      	lsls	r3, r3, #21
 80055fc:	d5eb      	bpl.n	80055d6 <HAL_RCC_ClockConfig+0x2a>
 80055fe:	4b9b      	ldr	r3, [pc, #620]	; (800586c <HAL_RCC_ClockConfig+0x2c0>)
 8005600:	6899      	ldr	r1, [r3, #8]
 8005602:	f001 010c 	and.w	r1, r1, #12
 8005606:	2904      	cmp	r1, #4
 8005608:	d00a      	beq.n	8005620 <HAL_RCC_ClockConfig+0x74>
 800560a:	6899      	ldr	r1, [r3, #8]
 800560c:	f001 010c 	and.w	r1, r1, #12
 8005610:	2908      	cmp	r1, #8
 8005612:	d005      	beq.n	8005620 <HAL_RCC_ClockConfig+0x74>
 8005614:	6899      	ldr	r1, [r3, #8]
 8005616:	f001 010c 	and.w	r1, r1, #12
 800561a:	290c      	cmp	r1, #12
 800561c:	f000 80fb 	beq.w	8005816 <HAL_RCC_ClockConfig+0x26a>
 8005620:	f04f 0800 	mov.w	r8, #0
 8005624:	4e91      	ldr	r6, [pc, #580]	; (800586c <HAL_RCC_ClockConfig+0x2c0>)
 8005626:	68b3      	ldr	r3, [r6, #8]
 8005628:	f023 0303 	bic.w	r3, r3, #3
 800562c:	431a      	orrs	r2, r3
 800562e:	60b2      	str	r2, [r6, #8]
 8005630:	f7fe fb04 	bl	8003c3c <HAL_GetTick>
 8005634:	f241 3788 	movw	r7, #5000	; 0x1388
 8005638:	4681      	mov	r9, r0
 800563a:	e005      	b.n	8005648 <HAL_RCC_ClockConfig+0x9c>
 800563c:	f7fe fafe 	bl	8003c3c <HAL_GetTick>
 8005640:	eba0 0009 	sub.w	r0, r0, r9
 8005644:	42b8      	cmp	r0, r7
 8005646:	d874      	bhi.n	8005732 <HAL_RCC_ClockConfig+0x186>
 8005648:	68b3      	ldr	r3, [r6, #8]
 800564a:	6862      	ldr	r2, [r4, #4]
 800564c:	f003 030c 	and.w	r3, r3, #12
 8005650:	ebb3 0f82 	cmp.w	r3, r2, lsl #2
 8005654:	d1f2      	bne.n	800563c <HAL_RCC_ClockConfig+0x90>
 8005656:	6823      	ldr	r3, [r4, #0]
 8005658:	079f      	lsls	r7, r3, #30
 800565a:	f140 80d3 	bpl.w	8005804 <HAL_RCC_ClockConfig+0x258>
 800565e:	0758      	lsls	r0, r3, #29
 8005660:	d504      	bpl.n	800566c <HAL_RCC_ClockConfig+0xc0>
 8005662:	4982      	ldr	r1, [pc, #520]	; (800586c <HAL_RCC_ClockConfig+0x2c0>)
 8005664:	688a      	ldr	r2, [r1, #8]
 8005666:	f442 62e0 	orr.w	r2, r2, #1792	; 0x700
 800566a:	608a      	str	r2, [r1, #8]
 800566c:	0719      	lsls	r1, r3, #28
 800566e:	d506      	bpl.n	800567e <HAL_RCC_ClockConfig+0xd2>
 8005670:	4a7e      	ldr	r2, [pc, #504]	; (800586c <HAL_RCC_ClockConfig+0x2c0>)
 8005672:	6893      	ldr	r3, [r2, #8]
 8005674:	f423 537c 	bic.w	r3, r3, #16128	; 0x3f00
 8005678:	f443 63e0 	orr.w	r3, r3, #1792	; 0x700
 800567c:	6093      	str	r3, [r2, #8]
 800567e:	4a7b      	ldr	r2, [pc, #492]	; (800586c <HAL_RCC_ClockConfig+0x2c0>)
 8005680:	68a1      	ldr	r1, [r4, #8]
 8005682:	6893      	ldr	r3, [r2, #8]
 8005684:	f023 03f0 	bic.w	r3, r3, #240	; 0xf0
 8005688:	430b      	orrs	r3, r1
 800568a:	6093      	str	r3, [r2, #8]
 800568c:	4e76      	ldr	r6, [pc, #472]	; (8005868 <HAL_RCC_ClockConfig+0x2bc>)
 800568e:	6832      	ldr	r2, [r6, #0]
 8005690:	f002 020f 	and.w	r2, r2, #15
 8005694:	42aa      	cmp	r2, r5
 8005696:	d837      	bhi.n	8005708 <HAL_RCC_ClockConfig+0x15c>
 8005698:	6823      	ldr	r3, [r4, #0]
 800569a:	075a      	lsls	r2, r3, #29
 800569c:	d506      	bpl.n	80056ac <HAL_RCC_ClockConfig+0x100>
 800569e:	4973      	ldr	r1, [pc, #460]	; (800586c <HAL_RCC_ClockConfig+0x2c0>)
 80056a0:	68e0      	ldr	r0, [r4, #12]
 80056a2:	688a      	ldr	r2, [r1, #8]
 80056a4:	f422 62e0 	bic.w	r2, r2, #1792	; 0x700
 80056a8:	4302      	orrs	r2, r0
 80056aa:	608a      	str	r2, [r1, #8]
 80056ac:	071b      	lsls	r3, r3, #28
 80056ae:	d443      	bmi.n	8005738 <HAL_RCC_ClockConfig+0x18c>
 80056b0:	4a6e      	ldr	r2, [pc, #440]	; (800586c <HAL_RCC_ClockConfig+0x2c0>)
 80056b2:	6893      	ldr	r3, [r2, #8]
 80056b4:	f003 030c 	and.w	r3, r3, #12
 80056b8:	2b04      	cmp	r3, #4
 80056ba:	f000 80d3 	beq.w	8005864 <HAL_RCC_ClockConfig+0x2b8>
 80056be:	6893      	ldr	r3, [r2, #8]
 80056c0:	f003 030c 	and.w	r3, r3, #12
 80056c4:	2b08      	cmp	r3, #8
 80056c6:	f000 809b 	beq.w	8005800 <HAL_RCC_ClockConfig+0x254>
 80056ca:	6893      	ldr	r3, [r2, #8]
 80056cc:	f003 030c 	and.w	r3, r3, #12
 80056d0:	2b0c      	cmp	r3, #12
 80056d2:	d075      	beq.n	80057c0 <HAL_RCC_ClockConfig+0x214>
 80056d4:	2300      	movs	r3, #0
 80056d6:	4a65      	ldr	r2, [pc, #404]	; (800586c <HAL_RCC_ClockConfig+0x2c0>)
 80056d8:	4c65      	ldr	r4, [pc, #404]	; (8005870 <HAL_RCC_ClockConfig+0x2c4>)
 80056da:	6892      	ldr	r2, [r2, #8]
 80056dc:	4865      	ldr	r0, [pc, #404]	; (8005874 <HAL_RCC_ClockConfig+0x2c8>)
 80056de:	4966      	ldr	r1, [pc, #408]	; (8005878 <HAL_RCC_ClockConfig+0x2cc>)
 80056e0:	6800      	ldr	r0, [r0, #0]
 80056e2:	f3c2 1203 	ubfx	r2, r2, #4, #4
 80056e6:	5ca2      	ldrb	r2, [r4, r2]
 80056e8:	f002 021f 	and.w	r2, r2, #31
 80056ec:	40d3      	lsrs	r3, r2
 80056ee:	600b      	str	r3, [r1, #0]
 80056f0:	e8bd 43f8 	ldmia.w	sp!, {r3, r4, r5, r6, r7, r8, r9, lr}
 80056f4:	f7fe ba5c 	b.w	8003bb0 <HAL_InitTick>
 80056f8:	079e      	lsls	r6, r3, #30
 80056fa:	d4b0      	bmi.n	800565e <HAL_RCC_ClockConfig+0xb2>
 80056fc:	4e5a      	ldr	r6, [pc, #360]	; (8005868 <HAL_RCC_ClockConfig+0x2bc>)
 80056fe:	6832      	ldr	r2, [r6, #0]
 8005700:	f002 020f 	and.w	r2, r2, #15
 8005704:	42aa      	cmp	r2, r5
 8005706:	d9c7      	bls.n	8005698 <HAL_RCC_ClockConfig+0xec>
 8005708:	6832      	ldr	r2, [r6, #0]
 800570a:	f022 020f 	bic.w	r2, r2, #15
 800570e:	432a      	orrs	r2, r5
 8005710:	6032      	str	r2, [r6, #0]
 8005712:	f7fe fa93 	bl	8003c3c <HAL_GetTick>
 8005716:	f241 3788 	movw	r7, #5000	; 0x1388
 800571a:	4680      	mov	r8, r0
 800571c:	6833      	ldr	r3, [r6, #0]
 800571e:	f003 030f 	and.w	r3, r3, #15
 8005722:	42ab      	cmp	r3, r5
 8005724:	d0b8      	beq.n	8005698 <HAL_RCC_ClockConfig+0xec>
 8005726:	f7fe fa89 	bl	8003c3c <HAL_GetTick>
 800572a:	eba0 0008 	sub.w	r0, r0, r8
 800572e:	42b8      	cmp	r0, r7
 8005730:	d9f4      	bls.n	800571c <HAL_RCC_ClockConfig+0x170>
 8005732:	2003      	movs	r0, #3
 8005734:	e8bd 83f8 	ldmia.w	sp!, {r3, r4, r5, r6, r7, r8, r9, pc}
 8005738:	4a4c      	ldr	r2, [pc, #304]	; (800586c <HAL_RCC_ClockConfig+0x2c0>)
 800573a:	6921      	ldr	r1, [r4, #16]
 800573c:	6893      	ldr	r3, [r2, #8]
 800573e:	f423 5360 	bic.w	r3, r3, #14336	; 0x3800
 8005742:	ea43 03c1 	orr.w	r3, r3, r1, lsl #3
 8005746:	6093      	str	r3, [r2, #8]
 8005748:	e7b2      	b.n	80056b0 <HAL_RCC_ClockConfig+0x104>
 800574a:	4948      	ldr	r1, [pc, #288]	; (800586c <HAL_RCC_ClockConfig+0x2c0>)
 800574c:	6808      	ldr	r0, [r1, #0]
 800574e:	0180      	lsls	r0, r0, #6
 8005750:	f57f af41 	bpl.w	80055d6 <HAL_RCC_ClockConfig+0x2a>
 8005754:	68ce      	ldr	r6, [r1, #12]
 8005756:	68c8      	ldr	r0, [r1, #12]
 8005758:	4f48      	ldr	r7, [pc, #288]	; (800587c <HAL_RCC_ClockConfig+0x2d0>)
 800575a:	f006 0603 	and.w	r6, r6, #3
 800575e:	2e03      	cmp	r6, #3
 8005760:	68ce      	ldr	r6, [r1, #12]
 8005762:	bf0c      	ite	eq
 8005764:	4946      	ldreq	r1, [pc, #280]	; (8005880 <HAL_RCC_ClockConfig+0x2d4>)
 8005766:	4947      	ldrne	r1, [pc, #284]	; (8005884 <HAL_RCC_ClockConfig+0x2d8>)
 8005768:	f3c0 1003 	ubfx	r0, r0, #4, #4
 800576c:	3001      	adds	r0, #1
 800576e:	fbb1 f1f0 	udiv	r1, r1, r0
 8005772:	f3c6 2006 	ubfx	r0, r6, #8, #7
 8005776:	4e3d      	ldr	r6, [pc, #244]	; (800586c <HAL_RCC_ClockConfig+0x2c0>)
 8005778:	fb01 f100 	mul.w	r1, r1, r0
 800577c:	68f0      	ldr	r0, [r6, #12]
 800577e:	f3c0 6041 	ubfx	r0, r0, #25, #2
 8005782:	3001      	adds	r0, #1
 8005784:	0040      	lsls	r0, r0, #1
 8005786:	fbb1 f1f0 	udiv	r1, r1, r0
 800578a:	42b9      	cmp	r1, r7
 800578c:	f67f af48 	bls.w	8005620 <HAL_RCC_ClockConfig+0x74>
 8005790:	68b1      	ldr	r1, [r6, #8]
 8005792:	f011 0ff0 	tst.w	r1, #240	; 0xf0
 8005796:	d007      	beq.n	80057a8 <HAL_RCC_ClockConfig+0x1fc>
 8005798:	f013 0802 	ands.w	r8, r3, #2
 800579c:	f43f af42 	beq.w	8005624 <HAL_RCC_ClockConfig+0x78>
 80057a0:	68a3      	ldr	r3, [r4, #8]
 80057a2:	2b00      	cmp	r3, #0
 80057a4:	f47f af3c 	bne.w	8005620 <HAL_RCC_ClockConfig+0x74>
 80057a8:	4930      	ldr	r1, [pc, #192]	; (800586c <HAL_RCC_ClockConfig+0x2c0>)
 80057aa:	688b      	ldr	r3, [r1, #8]
 80057ac:	f023 03f0 	bic.w	r3, r3, #240	; 0xf0
 80057b0:	f043 0380 	orr.w	r3, r3, #128	; 0x80
 80057b4:	608b      	str	r3, [r1, #8]
 80057b6:	f04f 0880 	mov.w	r8, #128	; 0x80
 80057ba:	e733      	b.n	8005624 <HAL_RCC_ClockConfig+0x78>
 80057bc:	2001      	movs	r0, #1
 80057be:	4770      	bx	lr
 80057c0:	68d0      	ldr	r0, [r2, #12]
 80057c2:	68d3      	ldr	r3, [r2, #12]
 80057c4:	68d2      	ldr	r2, [r2, #12]
 80057c6:	f000 0003 	and.w	r0, r0, #3
 80057ca:	f3c3 1303 	ubfx	r3, r3, #4, #4
 80057ce:	2803      	cmp	r0, #3
 80057d0:	f3c2 2206 	ubfx	r2, r2, #8, #7
 80057d4:	f103 0101 	add.w	r1, r3, #1
 80057d8:	bf0c      	ite	eq
 80057da:	4b29      	ldreq	r3, [pc, #164]	; (8005880 <HAL_RCC_ClockConfig+0x2d4>)
 80057dc:	4b29      	ldrne	r3, [pc, #164]	; (8005884 <HAL_RCC_ClockConfig+0x2d8>)
 80057de:	fbb3 f3f1 	udiv	r3, r3, r1
 80057e2:	fb03 f302 	mul.w	r3, r3, r2
 80057e6:	4a21      	ldr	r2, [pc, #132]	; (800586c <HAL_RCC_ClockConfig+0x2c0>)
 80057e8:	68d2      	ldr	r2, [r2, #12]
 80057ea:	f3c2 6241 	ubfx	r2, r2, #25, #2
 80057ee:	3201      	adds	r2, #1
 80057f0:	0052      	lsls	r2, r2, #1
 80057f2:	fbb3 f3f2 	udiv	r3, r3, r2
 80057f6:	e76e      	b.n	80056d6 <HAL_RCC_ClockConfig+0x12a>
 80057f8:	0399      	lsls	r1, r3, #14
 80057fa:	f53f af00 	bmi.w	80055fe <HAL_RCC_ClockConfig+0x52>
 80057fe:	e6ea      	b.n	80055d6 <HAL_RCC_ClockConfig+0x2a>
 8005800:	4b1f      	ldr	r3, [pc, #124]	; (8005880 <HAL_RCC_ClockConfig+0x2d4>)
 8005802:	e768      	b.n	80056d6 <HAL_RCC_ClockConfig+0x12a>
 8005804:	f1b8 0f00 	cmp.w	r8, #0
 8005808:	f43f af40 	beq.w	800568c <HAL_RCC_ClockConfig+0xe0>
 800580c:	68b3      	ldr	r3, [r6, #8]
 800580e:	f023 03f0 	bic.w	r3, r3, #240	; 0xf0
 8005812:	60b3      	str	r3, [r6, #8]
 8005814:	e73a      	b.n	800568c <HAL_RCC_ClockConfig+0xe0>
 8005816:	68d8      	ldr	r0, [r3, #12]
 8005818:	68d9      	ldr	r1, [r3, #12]
 800581a:	4e18      	ldr	r6, [pc, #96]	; (800587c <HAL_RCC_ClockConfig+0x2d0>)
 800581c:	f000 0003 	and.w	r0, r0, #3
 8005820:	2803      	cmp	r0, #3
 8005822:	68d8      	ldr	r0, [r3, #12]
 8005824:	bf0c      	ite	eq
 8005826:	4b16      	ldreq	r3, [pc, #88]	; (8005880 <HAL_RCC_ClockConfig+0x2d4>)
 8005828:	4b16      	ldrne	r3, [pc, #88]	; (8005884 <HAL_RCC_ClockConfig+0x2d8>)
 800582a:	f3c1 1103 	ubfx	r1, r1, #4, #4
 800582e:	3101      	adds	r1, #1
 8005830:	fbb3 f3f1 	udiv	r3, r3, r1
 8005834:	f3c0 2106 	ubfx	r1, r0, #8, #7
 8005838:	480c      	ldr	r0, [pc, #48]	; (800586c <HAL_RCC_ClockConfig+0x2c0>)
 800583a:	fb03 f301 	mul.w	r3, r3, r1
 800583e:	68c1      	ldr	r1, [r0, #12]
 8005840:	f3c1 6141 	ubfx	r1, r1, #25, #2
 8005844:	3101      	adds	r1, #1
 8005846:	0049      	lsls	r1, r1, #1
 8005848:	fbb3 f3f1 	udiv	r3, r3, r1
 800584c:	42b3      	cmp	r3, r6
 800584e:	f67f aee7 	bls.w	8005620 <HAL_RCC_ClockConfig+0x74>
 8005852:	6883      	ldr	r3, [r0, #8]
 8005854:	f023 03f0 	bic.w	r3, r3, #240	; 0xf0
 8005858:	f043 0380 	orr.w	r3, r3, #128	; 0x80
 800585c:	6083      	str	r3, [r0, #8]
 800585e:	f04f 0880 	mov.w	r8, #128	; 0x80
 8005862:	e6df      	b.n	8005624 <HAL_RCC_ClockConfig+0x78>
 8005864:	4b07      	ldr	r3, [pc, #28]	; (8005884 <HAL_RCC_ClockConfig+0x2d8>)
 8005866:	e736      	b.n	80056d6 <HAL_RCC_ClockConfig+0x12a>
 8005868:	40022000 	.word	0x40022000
 800586c:	40021000 	.word	0x40021000
 8005870:	08009db0 	.word	0x08009db0
 8005874:	20000740 	.word	0x20000740
 8005878:	20000738 	.word	0x20000738
 800587c:	04c4b400 	.word	0x04c4b400
 8005880:	007a1200 	.word	0x007a1200
 8005884:	00f42400 	.word	0x00f42400

08005888 <HAL_RCC_GetSysClockFreq>:
 8005888:	4b18      	ldr	r3, [pc, #96]	; (80058ec <HAL_RCC_GetSysClockFreq+0x64>)
 800588a:	689a      	ldr	r2, [r3, #8]
 800588c:	f002 020c 	and.w	r2, r2, #12
 8005890:	2a04      	cmp	r2, #4
 8005892:	d027      	beq.n	80058e4 <HAL_RCC_GetSysClockFreq+0x5c>
 8005894:	689a      	ldr	r2, [r3, #8]
 8005896:	f002 020c 	and.w	r2, r2, #12
 800589a:	2a08      	cmp	r2, #8
 800589c:	d024      	beq.n	80058e8 <HAL_RCC_GetSysClockFreq+0x60>
 800589e:	689a      	ldr	r2, [r3, #8]
 80058a0:	f002 020c 	and.w	r2, r2, #12
 80058a4:	2a0c      	cmp	r2, #12
 80058a6:	d001      	beq.n	80058ac <HAL_RCC_GetSysClockFreq+0x24>
 80058a8:	2000      	movs	r0, #0
 80058aa:	4770      	bx	lr
 80058ac:	68d9      	ldr	r1, [r3, #12]
 80058ae:	68d8      	ldr	r0, [r3, #12]
 80058b0:	68db      	ldr	r3, [r3, #12]
 80058b2:	f001 0103 	and.w	r1, r1, #3
 80058b6:	f3c0 1003 	ubfx	r0, r0, #4, #4
 80058ba:	2903      	cmp	r1, #3
 80058bc:	f3c3 2306 	ubfx	r3, r3, #8, #7
 80058c0:	f100 0201 	add.w	r2, r0, #1
 80058c4:	bf0c      	ite	eq
 80058c6:	480a      	ldreq	r0, [pc, #40]	; (80058f0 <HAL_RCC_GetSysClockFreq+0x68>)
 80058c8:	480a      	ldrne	r0, [pc, #40]	; (80058f4 <HAL_RCC_GetSysClockFreq+0x6c>)
 80058ca:	fbb0 f0f2 	udiv	r0, r0, r2
 80058ce:	fb00 f003 	mul.w	r0, r0, r3
 80058d2:	4b06      	ldr	r3, [pc, #24]	; (80058ec <HAL_RCC_GetSysClockFreq+0x64>)
 80058d4:	68db      	ldr	r3, [r3, #12]
 80058d6:	f3c3 6341 	ubfx	r3, r3, #25, #2
 80058da:	3301      	adds	r3, #1
 80058dc:	005b      	lsls	r3, r3, #1
 80058de:	fbb0 f0f3 	udiv	r0, r0, r3
 80058e2:	4770      	bx	lr
 80058e4:	4803      	ldr	r0, [pc, #12]	; (80058f4 <HAL_RCC_GetSysClockFreq+0x6c>)
 80058e6:	4770      	bx	lr
 80058e8:	4801      	ldr	r0, [pc, #4]	; (80058f0 <HAL_RCC_GetSysClockFreq+0x68>)
 80058ea:	4770      	bx	lr
 80058ec:	40021000 	.word	0x40021000
 80058f0:	007a1200 	.word	0x007a1200
 80058f4:	00f42400 	.word	0x00f42400

080058f8 <HAL_RCC_GetHCLKFreq>:
 80058f8:	4b01      	ldr	r3, [pc, #4]	; (8005900 <HAL_RCC_GetHCLKFreq+0x8>)
 80058fa:	6818      	ldr	r0, [r3, #0]
 80058fc:	4770      	bx	lr
 80058fe:	bf00      	nop
 8005900:	20000738 	.word	0x20000738

08005904 <HAL_RCC_GetPCLK1Freq>:
 8005904:	4b05      	ldr	r3, [pc, #20]	; (800591c <HAL_RCC_GetPCLK1Freq+0x18>)
 8005906:	4a06      	ldr	r2, [pc, #24]	; (8005920 <HAL_RCC_GetPCLK1Freq+0x1c>)
 8005908:	689b      	ldr	r3, [r3, #8]
 800590a:	4906      	ldr	r1, [pc, #24]	; (8005924 <HAL_RCC_GetPCLK1Freq+0x20>)
 800590c:	f3c3 2302 	ubfx	r3, r3, #8, #3
 8005910:	6808      	ldr	r0, [r1, #0]
 8005912:	5cd3      	ldrb	r3, [r2, r3]
 8005914:	f003 031f 	and.w	r3, r3, #31
 8005918:	40d8      	lsrs	r0, r3
 800591a:	4770      	bx	lr
 800591c:	40021000 	.word	0x40021000
 8005920:	08009dc0 	.word	0x08009dc0
 8005924:	20000738 	.word	0x20000738

08005928 <HAL_RCC_GetPCLK2Freq>:
 8005928:	4b05      	ldr	r3, [pc, #20]	; (8005940 <HAL_RCC_GetPCLK2Freq+0x18>)
 800592a:	4a06      	ldr	r2, [pc, #24]	; (8005944 <HAL_RCC_GetPCLK2Freq+0x1c>)
 800592c:	689b      	ldr	r3, [r3, #8]
 800592e:	4906      	ldr	r1, [pc, #24]	; (8005948 <HAL_RCC_GetPCLK2Freq+0x20>)
 8005930:	f3c3 23c2 	ubfx	r3, r3, #11, #3
 8005934:	6808      	ldr	r0, [r1, #0]
 8005936:	5cd3      	ldrb	r3, [r2, r3]
 8005938:	f003 031f 	and.w	r3, r3, #31
 800593c:	40d8      	lsrs	r0, r3
 800593e:	4770      	bx	lr
 8005940:	40021000 	.word	0x40021000
 8005944:	08009dc0 	.word	0x08009dc0
 8005948:	20000738 	.word	0x20000738

0800594c <HAL_RCC_EnableCSS>:
 800594c:	4a02      	ldr	r2, [pc, #8]	; (8005958 <HAL_RCC_EnableCSS+0xc>)
 800594e:	6813      	ldr	r3, [r2, #0]
 8005950:	f443 2300 	orr.w	r3, r3, #524288	; 0x80000
 8005954:	6013      	str	r3, [r2, #0]
 8005956:	4770      	bx	lr
 8005958:	40021000 	.word	0x40021000

0800595c <HAL_RCCEx_PeriphCLKConfig>:
 800595c:	e92d 41f0 	stmdb	sp!, {r4, r5, r6, r7, r8, lr}
 8005960:	6803      	ldr	r3, [r0, #0]
 8005962:	4604      	mov	r4, r0
 8005964:	f413 2000 	ands.w	r0, r3, #524288	; 0x80000
 8005968:	b082      	sub	sp, #8
 800596a:	d057      	beq.n	8005a1c <HAL_RCCEx_PeriphCLKConfig+0xc0>
 800596c:	4b9f      	ldr	r3, [pc, #636]	; (8005bec <HAL_RCCEx_PeriphCLKConfig+0x290>)
 800596e:	6d9a      	ldr	r2, [r3, #88]	; 0x58
 8005970:	00d0      	lsls	r0, r2, #3
 8005972:	f140 810d 	bpl.w	8005b90 <HAL_RCCEx_PeriphCLKConfig+0x234>
 8005976:	2700      	movs	r7, #0
 8005978:	4d9d      	ldr	r5, [pc, #628]	; (8005bf0 <HAL_RCCEx_PeriphCLKConfig+0x294>)
 800597a:	682b      	ldr	r3, [r5, #0]
 800597c:	f443 7380 	orr.w	r3, r3, #256	; 0x100
 8005980:	602b      	str	r3, [r5, #0]
 8005982:	f7fe f95b 	bl	8003c3c <HAL_GetTick>
 8005986:	4606      	mov	r6, r0
 8005988:	e005      	b.n	8005996 <HAL_RCCEx_PeriphCLKConfig+0x3a>
 800598a:	f7fe f957 	bl	8003c3c <HAL_GetTick>
 800598e:	1b80      	subs	r0, r0, r6
 8005990:	2802      	cmp	r0, #2
 8005992:	f200 810f 	bhi.w	8005bb4 <HAL_RCCEx_PeriphCLKConfig+0x258>
 8005996:	682b      	ldr	r3, [r5, #0]
 8005998:	05d9      	lsls	r1, r3, #23
 800599a:	d5f6      	bpl.n	800598a <HAL_RCCEx_PeriphCLKConfig+0x2e>
 800599c:	4b93      	ldr	r3, [pc, #588]	; (8005bec <HAL_RCCEx_PeriphCLKConfig+0x290>)
 800599e:	6c21      	ldr	r1, [r4, #64]	; 0x40
 80059a0:	f8d3 2090 	ldr.w	r2, [r3, #144]	; 0x90
 80059a4:	f412 7240 	ands.w	r2, r2, #768	; 0x300
 80059a8:	d028      	beq.n	80059fc <HAL_RCCEx_PeriphCLKConfig+0xa0>
 80059aa:	428a      	cmp	r2, r1
 80059ac:	d026      	beq.n	80059fc <HAL_RCCEx_PeriphCLKConfig+0xa0>
 80059ae:	f8d3 0090 	ldr.w	r0, [r3, #144]	; 0x90
 80059b2:	f8d3 2090 	ldr.w	r2, [r3, #144]	; 0x90
 80059b6:	f442 3280 	orr.w	r2, r2, #65536	; 0x10000
 80059ba:	f8c3 2090 	str.w	r2, [r3, #144]	; 0x90
 80059be:	f8d3 2090 	ldr.w	r2, [r3, #144]	; 0x90
 80059c2:	f422 3280 	bic.w	r2, r2, #65536	; 0x10000
 80059c6:	f8c3 2090 	str.w	r2, [r3, #144]	; 0x90
 80059ca:	f420 7540 	bic.w	r5, r0, #768	; 0x300
 80059ce:	07c2      	lsls	r2, r0, #31
 80059d0:	f8c3 5090 	str.w	r5, [r3, #144]	; 0x90
 80059d4:	d512      	bpl.n	80059fc <HAL_RCCEx_PeriphCLKConfig+0xa0>
 80059d6:	461d      	mov	r5, r3
 80059d8:	f7fe f930 	bl	8003c3c <HAL_GetTick>
 80059dc:	f241 3688 	movw	r6, #5000	; 0x1388
 80059e0:	4680      	mov	r8, r0
 80059e2:	e006      	b.n	80059f2 <HAL_RCCEx_PeriphCLKConfig+0x96>
 80059e4:	f7fe f92a 	bl	8003c3c <HAL_GetTick>
 80059e8:	eba0 0008 	sub.w	r0, r0, r8
 80059ec:	42b0      	cmp	r0, r6
 80059ee:	f200 80e1 	bhi.w	8005bb4 <HAL_RCCEx_PeriphCLKConfig+0x258>
 80059f2:	f8d5 3090 	ldr.w	r3, [r5, #144]	; 0x90
 80059f6:	079b      	lsls	r3, r3, #30
 80059f8:	d5f4      	bpl.n	80059e4 <HAL_RCCEx_PeriphCLKConfig+0x88>
 80059fa:	6c21      	ldr	r1, [r4, #64]	; 0x40
 80059fc:	4a7b      	ldr	r2, [pc, #492]	; (8005bec <HAL_RCCEx_PeriphCLKConfig+0x290>)
 80059fe:	f8d2 3090 	ldr.w	r3, [r2, #144]	; 0x90
 8005a02:	f423 7340 	bic.w	r3, r3, #768	; 0x300
 8005a06:	430b      	orrs	r3, r1
 8005a08:	f8c2 3090 	str.w	r3, [r2, #144]	; 0x90
 8005a0c:	2000      	movs	r0, #0
 8005a0e:	b127      	cbz	r7, 8005a1a <HAL_RCCEx_PeriphCLKConfig+0xbe>
 8005a10:	4a76      	ldr	r2, [pc, #472]	; (8005bec <HAL_RCCEx_PeriphCLKConfig+0x290>)
 8005a12:	6d93      	ldr	r3, [r2, #88]	; 0x58
 8005a14:	f023 5380 	bic.w	r3, r3, #268435456	; 0x10000000
 8005a18:	6593      	str	r3, [r2, #88]	; 0x58
 8005a1a:	6823      	ldr	r3, [r4, #0]
 8005a1c:	07de      	lsls	r6, r3, #31
 8005a1e:	d508      	bpl.n	8005a32 <HAL_RCCEx_PeriphCLKConfig+0xd6>
 8005a20:	4972      	ldr	r1, [pc, #456]	; (8005bec <HAL_RCCEx_PeriphCLKConfig+0x290>)
 8005a22:	6865      	ldr	r5, [r4, #4]
 8005a24:	f8d1 2088 	ldr.w	r2, [r1, #136]	; 0x88
 8005a28:	f022 0203 	bic.w	r2, r2, #3
 8005a2c:	432a      	orrs	r2, r5
 8005a2e:	f8c1 2088 	str.w	r2, [r1, #136]	; 0x88
 8005a32:	079d      	lsls	r5, r3, #30
 8005a34:	d508      	bpl.n	8005a48 <HAL_RCCEx_PeriphCLKConfig+0xec>
 8005a36:	496d      	ldr	r1, [pc, #436]	; (8005bec <HAL_RCCEx_PeriphCLKConfig+0x290>)
 8005a38:	68a5      	ldr	r5, [r4, #8]
 8005a3a:	f8d1 2088 	ldr.w	r2, [r1, #136]	; 0x88
 8005a3e:	f022 020c 	bic.w	r2, r2, #12
 8005a42:	432a      	orrs	r2, r5
 8005a44:	f8c1 2088 	str.w	r2, [r1, #136]	; 0x88
 8005a48:	0759      	lsls	r1, r3, #29
 8005a4a:	d508      	bpl.n	8005a5e <HAL_RCCEx_PeriphCLKConfig+0x102>
 8005a4c:	4967      	ldr	r1, [pc, #412]	; (8005bec <HAL_RCCEx_PeriphCLKConfig+0x290>)
 8005a4e:	68e5      	ldr	r5, [r4, #12]
 8005a50:	f8d1 2088 	ldr.w	r2, [r1, #136]	; 0x88
 8005a54:	f022 0230 	bic.w	r2, r2, #48	; 0x30
 8005a58:	432a      	orrs	r2, r5
 8005a5a:	f8c1 2088 	str.w	r2, [r1, #136]	; 0x88
 8005a5e:	071a      	lsls	r2, r3, #28
 8005a60:	d508      	bpl.n	8005a74 <HAL_RCCEx_PeriphCLKConfig+0x118>
 8005a62:	4962      	ldr	r1, [pc, #392]	; (8005bec <HAL_RCCEx_PeriphCLKConfig+0x290>)
 8005a64:	6925      	ldr	r5, [r4, #16]
 8005a66:	f8d1 2088 	ldr.w	r2, [r1, #136]	; 0x88
 8005a6a:	f022 02c0 	bic.w	r2, r2, #192	; 0xc0
 8005a6e:	432a      	orrs	r2, r5
 8005a70:	f8c1 2088 	str.w	r2, [r1, #136]	; 0x88
 8005a74:	069f      	lsls	r7, r3, #26
 8005a76:	d508      	bpl.n	8005a8a <HAL_RCCEx_PeriphCLKConfig+0x12e>
 8005a78:	495c      	ldr	r1, [pc, #368]	; (8005bec <HAL_RCCEx_PeriphCLKConfig+0x290>)
 8005a7a:	6965      	ldr	r5, [r4, #20]
 8005a7c:	f8d1 2088 	ldr.w	r2, [r1, #136]	; 0x88
 8005a80:	f422 6240 	bic.w	r2, r2, #3072	; 0xc00
 8005a84:	432a      	orrs	r2, r5
 8005a86:	f8c1 2088 	str.w	r2, [r1, #136]	; 0x88
 8005a8a:	065e      	lsls	r6, r3, #25
 8005a8c:	d508      	bpl.n	8005aa0 <HAL_RCCEx_PeriphCLKConfig+0x144>
 8005a8e:	4957      	ldr	r1, [pc, #348]	; (8005bec <HAL_RCCEx_PeriphCLKConfig+0x290>)
 8005a90:	69a5      	ldr	r5, [r4, #24]
 8005a92:	f8d1 2088 	ldr.w	r2, [r1, #136]	; 0x88
 8005a96:	f422 5240 	bic.w	r2, r2, #12288	; 0x3000
 8005a9a:	432a      	orrs	r2, r5
 8005a9c:	f8c1 2088 	str.w	r2, [r1, #136]	; 0x88
 8005aa0:	061d      	lsls	r5, r3, #24
 8005aa2:	d508      	bpl.n	8005ab6 <HAL_RCCEx_PeriphCLKConfig+0x15a>
 8005aa4:	4951      	ldr	r1, [pc, #324]	; (8005bec <HAL_RCCEx_PeriphCLKConfig+0x290>)
 8005aa6:	69e5      	ldr	r5, [r4, #28]
 8005aa8:	f8d1 2088 	ldr.w	r2, [r1, #136]	; 0x88
 8005aac:	f422 4240 	bic.w	r2, r2, #49152	; 0xc000
 8005ab0:	432a      	orrs	r2, r5
 8005ab2:	f8c1 2088 	str.w	r2, [r1, #136]	; 0x88
 8005ab6:	05d9      	lsls	r1, r3, #23
 8005ab8:	d508      	bpl.n	8005acc <HAL_RCCEx_PeriphCLKConfig+0x170>
 8005aba:	494c      	ldr	r1, [pc, #304]	; (8005bec <HAL_RCCEx_PeriphCLKConfig+0x290>)
 8005abc:	6a25      	ldr	r5, [r4, #32]
 8005abe:	f8d1 2088 	ldr.w	r2, [r1, #136]	; 0x88
 8005ac2:	f422 3240 	bic.w	r2, r2, #196608	; 0x30000
 8005ac6:	432a      	orrs	r2, r5
 8005ac8:	f8c1 2088 	str.w	r2, [r1, #136]	; 0x88
 8005acc:	059a      	lsls	r2, r3, #22
 8005ace:	d508      	bpl.n	8005ae2 <HAL_RCCEx_PeriphCLKConfig+0x186>
 8005ad0:	4946      	ldr	r1, [pc, #280]	; (8005bec <HAL_RCCEx_PeriphCLKConfig+0x290>)
 8005ad2:	6a65      	ldr	r5, [r4, #36]	; 0x24
 8005ad4:	f8d1 2088 	ldr.w	r2, [r1, #136]	; 0x88
 8005ad8:	f422 2240 	bic.w	r2, r2, #786432	; 0xc0000
 8005adc:	432a      	orrs	r2, r5
 8005ade:	f8c1 2088 	str.w	r2, [r1, #136]	; 0x88
 8005ae2:	055f      	lsls	r7, r3, #21
 8005ae4:	d50b      	bpl.n	8005afe <HAL_RCCEx_PeriphCLKConfig+0x1a2>
 8005ae6:	4941      	ldr	r1, [pc, #260]	; (8005bec <HAL_RCCEx_PeriphCLKConfig+0x290>)
 8005ae8:	6aa5      	ldr	r5, [r4, #40]	; 0x28
 8005aea:	f8d1 2088 	ldr.w	r2, [r1, #136]	; 0x88
 8005aee:	f422 1240 	bic.w	r2, r2, #3145728	; 0x300000
 8005af2:	432a      	orrs	r2, r5
 8005af4:	f5b5 1f80 	cmp.w	r5, #1048576	; 0x100000
 8005af8:	f8c1 2088 	str.w	r2, [r1, #136]	; 0x88
 8005afc:	d05c      	beq.n	8005bb8 <HAL_RCCEx_PeriphCLKConfig+0x25c>
 8005afe:	051e      	lsls	r6, r3, #20
 8005b00:	d50b      	bpl.n	8005b1a <HAL_RCCEx_PeriphCLKConfig+0x1be>
 8005b02:	493a      	ldr	r1, [pc, #232]	; (8005bec <HAL_RCCEx_PeriphCLKConfig+0x290>)
 8005b04:	6ae5      	ldr	r5, [r4, #44]	; 0x2c
 8005b06:	f8d1 2088 	ldr.w	r2, [r1, #136]	; 0x88
 8005b0a:	f422 0240 	bic.w	r2, r2, #12582912	; 0xc00000
 8005b0e:	432a      	orrs	r2, r5
 8005b10:	f5b5 0f80 	cmp.w	r5, #4194304	; 0x400000
 8005b14:	f8c1 2088 	str.w	r2, [r1, #136]	; 0x88
 8005b18:	d053      	beq.n	8005bc2 <HAL_RCCEx_PeriphCLKConfig+0x266>
 8005b1a:	04dd      	lsls	r5, r3, #19
 8005b1c:	d50b      	bpl.n	8005b36 <HAL_RCCEx_PeriphCLKConfig+0x1da>
 8005b1e:	4933      	ldr	r1, [pc, #204]	; (8005bec <HAL_RCCEx_PeriphCLKConfig+0x290>)
 8005b20:	6b25      	ldr	r5, [r4, #48]	; 0x30
 8005b22:	f8d1 2088 	ldr.w	r2, [r1, #136]	; 0x88
 8005b26:	f022 7240 	bic.w	r2, r2, #50331648	; 0x3000000
 8005b2a:	432a      	orrs	r2, r5
 8005b2c:	f1b5 7f80 	cmp.w	r5, #16777216	; 0x1000000
 8005b30:	f8c1 2088 	str.w	r2, [r1, #136]	; 0x88
 8005b34:	d04a      	beq.n	8005bcc <HAL_RCCEx_PeriphCLKConfig+0x270>
 8005b36:	0499      	lsls	r1, r3, #18
 8005b38:	d50b      	bpl.n	8005b52 <HAL_RCCEx_PeriphCLKConfig+0x1f6>
 8005b3a:	492c      	ldr	r1, [pc, #176]	; (8005bec <HAL_RCCEx_PeriphCLKConfig+0x290>)
 8005b3c:	6b65      	ldr	r5, [r4, #52]	; 0x34
 8005b3e:	f8d1 2088 	ldr.w	r2, [r1, #136]	; 0x88
 8005b42:	f022 6240 	bic.w	r2, r2, #201326592	; 0xc000000
 8005b46:	432a      	orrs	r2, r5
 8005b48:	f1b5 6f00 	cmp.w	r5, #134217728	; 0x8000000
 8005b4c:	f8c1 2088 	str.w	r2, [r1, #136]	; 0x88
 8005b50:	d041      	beq.n	8005bd6 <HAL_RCCEx_PeriphCLKConfig+0x27a>
 8005b52:	045a      	lsls	r2, r3, #17
 8005b54:	d50b      	bpl.n	8005b6e <HAL_RCCEx_PeriphCLKConfig+0x212>
 8005b56:	4925      	ldr	r1, [pc, #148]	; (8005bec <HAL_RCCEx_PeriphCLKConfig+0x290>)
 8005b58:	6ba5      	ldr	r5, [r4, #56]	; 0x38
 8005b5a:	f8d1 2088 	ldr.w	r2, [r1, #136]	; 0x88
 8005b5e:	f022 6240 	bic.w	r2, r2, #201326592	; 0xc000000
 8005b62:	432a      	orrs	r2, r5
 8005b64:	f1b5 6f00 	cmp.w	r5, #134217728	; 0x8000000
 8005b68:	f8c1 2088 	str.w	r2, [r1, #136]	; 0x88
 8005b6c:	d038      	beq.n	8005be0 <HAL_RCCEx_PeriphCLKConfig+0x284>
 8005b6e:	041b      	lsls	r3, r3, #16
 8005b70:	d50b      	bpl.n	8005b8a <HAL_RCCEx_PeriphCLKConfig+0x22e>
 8005b72:	4a1e      	ldr	r2, [pc, #120]	; (8005bec <HAL_RCCEx_PeriphCLKConfig+0x290>)
 8005b74:	6be1      	ldr	r1, [r4, #60]	; 0x3c
 8005b76:	f8d2 3088 	ldr.w	r3, [r2, #136]	; 0x88
 8005b7a:	f023 5340 	bic.w	r3, r3, #805306368	; 0x30000000
 8005b7e:	430b      	orrs	r3, r1
 8005b80:	f1b1 5f80 	cmp.w	r1, #268435456	; 0x10000000
 8005b84:	f8c2 3088 	str.w	r3, [r2, #136]	; 0x88
 8005b88:	d00d      	beq.n	8005ba6 <HAL_RCCEx_PeriphCLKConfig+0x24a>
 8005b8a:	b002      	add	sp, #8
 8005b8c:	e8bd 81f0 	ldmia.w	sp!, {r4, r5, r6, r7, r8, pc}
 8005b90:	6d9a      	ldr	r2, [r3, #88]	; 0x58
 8005b92:	f042 5280 	orr.w	r2, r2, #268435456	; 0x10000000
 8005b96:	659a      	str	r2, [r3, #88]	; 0x58
 8005b98:	6d9b      	ldr	r3, [r3, #88]	; 0x58
 8005b9a:	f003 5380 	and.w	r3, r3, #268435456	; 0x10000000
 8005b9e:	9301      	str	r3, [sp, #4]
 8005ba0:	9b01      	ldr	r3, [sp, #4]
 8005ba2:	2701      	movs	r7, #1
 8005ba4:	e6e8      	b.n	8005978 <HAL_RCCEx_PeriphCLKConfig+0x1c>
 8005ba6:	68d3      	ldr	r3, [r2, #12]
 8005ba8:	f443 3380 	orr.w	r3, r3, #65536	; 0x10000
 8005bac:	60d3      	str	r3, [r2, #12]
 8005bae:	b002      	add	sp, #8
 8005bb0:	e8bd 81f0 	ldmia.w	sp!, {r4, r5, r6, r7, r8, pc}
 8005bb4:	2003      	movs	r0, #3
 8005bb6:	e72a      	b.n	8005a0e <HAL_RCCEx_PeriphCLKConfig+0xb2>
 8005bb8:	68ca      	ldr	r2, [r1, #12]
 8005bba:	f442 1280 	orr.w	r2, r2, #1048576	; 0x100000
 8005bbe:	60ca      	str	r2, [r1, #12]
 8005bc0:	e79d      	b.n	8005afe <HAL_RCCEx_PeriphCLKConfig+0x1a2>
 8005bc2:	68ca      	ldr	r2, [r1, #12]
 8005bc4:	f442 1280 	orr.w	r2, r2, #1048576	; 0x100000
 8005bc8:	60ca      	str	r2, [r1, #12]
 8005bca:	e7a6      	b.n	8005b1a <HAL_RCCEx_PeriphCLKConfig+0x1be>
 8005bcc:	68ca      	ldr	r2, [r1, #12]
 8005bce:	f442 1280 	orr.w	r2, r2, #1048576	; 0x100000
 8005bd2:	60ca      	str	r2, [r1, #12]
 8005bd4:	e7af      	b.n	8005b36 <HAL_RCCEx_PeriphCLKConfig+0x1da>
 8005bd6:	68ca      	ldr	r2, [r1, #12]
 8005bd8:	f442 1280 	orr.w	r2, r2, #1048576	; 0x100000
 8005bdc:	60ca      	str	r2, [r1, #12]
 8005bde:	e7b8      	b.n	8005b52 <HAL_RCCEx_PeriphCLKConfig+0x1f6>
 8005be0:	68ca      	ldr	r2, [r1, #12]
 8005be2:	f442 1280 	orr.w	r2, r2, #1048576	; 0x100000
 8005be6:	60ca      	str	r2, [r1, #12]
 8005be8:	e7c1      	b.n	8005b6e <HAL_RCCEx_PeriphCLKConfig+0x212>
 8005bea:	bf00      	nop
 8005bec:	40021000 	.word	0x40021000
 8005bf0:	40007000 	.word	0x40007000

08005bf4 <HAL_TIM_Base_Init>:
 8005bf4:	2800      	cmp	r0, #0
 8005bf6:	d06b      	beq.n	8005cd0 <HAL_TIM_Base_Init+0xdc>
 8005bf8:	b5f8      	push	{r3, r4, r5, r6, r7, lr}
 8005bfa:	f890 303d 	ldrb.w	r3, [r0, #61]	; 0x3d
 8005bfe:	4604      	mov	r4, r0
 8005c00:	f003 02ff 	and.w	r2, r3, #255	; 0xff
 8005c04:	b363      	cbz	r3, 8005c60 <HAL_TIM_Base_Init+0x6c>
 8005c06:	6822      	ldr	r2, [r4, #0]
 8005c08:	4e3b      	ldr	r6, [pc, #236]	; (8005cf8 <HAL_TIM_Base_Init+0x104>)
 8005c0a:	69a5      	ldr	r5, [r4, #24]
 8005c0c:	68e0      	ldr	r0, [r4, #12]
 8005c0e:	6861      	ldr	r1, [r4, #4]
 8005c10:	2302      	movs	r3, #2
 8005c12:	f884 303d 	strb.w	r3, [r4, #61]	; 0x3d
 8005c16:	42b2      	cmp	r2, r6
 8005c18:	6813      	ldr	r3, [r2, #0]
 8005c1a:	d05b      	beq.n	8005cd4 <HAL_TIM_Base_Init+0xe0>
 8005c1c:	f1b2 4f80 	cmp.w	r2, #1073741824	; 0x40000000
 8005c20:	d03c      	beq.n	8005c9c <HAL_TIM_Base_Init+0xa8>
 8005c22:	f5a6 3694 	sub.w	r6, r6, #75776	; 0x12800
 8005c26:	42b2      	cmp	r2, r6
 8005c28:	d01f      	beq.n	8005c6a <HAL_TIM_Base_Init+0x76>
 8005c2a:	f506 6680 	add.w	r6, r6, #1024	; 0x400
 8005c2e:	42b2      	cmp	r2, r6
 8005c30:	d01b      	beq.n	8005c6a <HAL_TIM_Base_Init+0x76>
 8005c32:	f506 3696 	add.w	r6, r6, #76800	; 0x12c00
 8005c36:	42b2      	cmp	r2, r6
 8005c38:	d017      	beq.n	8005c6a <HAL_TIM_Base_Init+0x76>
 8005c3a:	f506 6640 	add.w	r6, r6, #3072	; 0xc00
 8005c3e:	42b2      	cmp	r2, r6
 8005c40:	d057      	beq.n	8005cf2 <HAL_TIM_Base_Init+0xfe>
 8005c42:	f506 6680 	add.w	r6, r6, #1024	; 0x400
 8005c46:	42b2      	cmp	r2, r6
 8005c48:	d053      	beq.n	8005cf2 <HAL_TIM_Base_Init+0xfe>
 8005c4a:	f506 6680 	add.w	r6, r6, #1024	; 0x400
 8005c4e:	42b2      	cmp	r2, r6
 8005c50:	d04f      	beq.n	8005cf2 <HAL_TIM_Base_Init+0xfe>
 8005c52:	f023 0380 	bic.w	r3, r3, #128	; 0x80
 8005c56:	432b      	orrs	r3, r5
 8005c58:	6013      	str	r3, [r2, #0]
 8005c5a:	62d0      	str	r0, [r2, #44]	; 0x2c
 8005c5c:	6291      	str	r1, [r2, #40]	; 0x28
 8005c5e:	e017      	b.n	8005c90 <HAL_TIM_Base_Init+0x9c>
 8005c60:	f880 203c 	strb.w	r2, [r0, #60]	; 0x3c
 8005c64:	f7fc ffdc 	bl	8002c20 <HAL_TIM_Base_MspInit>
 8005c68:	e7cd      	b.n	8005c06 <HAL_TIM_Base_Init+0x12>
 8005c6a:	68a6      	ldr	r6, [r4, #8]
 8005c6c:	4f23      	ldr	r7, [pc, #140]	; (8005cfc <HAL_TIM_Base_Init+0x108>)
 8005c6e:	f023 0370 	bic.w	r3, r3, #112	; 0x70
 8005c72:	4333      	orrs	r3, r6
 8005c74:	6926      	ldr	r6, [r4, #16]
 8005c76:	f423 7340 	bic.w	r3, r3, #768	; 0x300
 8005c7a:	4333      	orrs	r3, r6
 8005c7c:	f023 0380 	bic.w	r3, r3, #128	; 0x80
 8005c80:	432b      	orrs	r3, r5
 8005c82:	42ba      	cmp	r2, r7
 8005c84:	6013      	str	r3, [r2, #0]
 8005c86:	62d0      	str	r0, [r2, #44]	; 0x2c
 8005c88:	6291      	str	r1, [r2, #40]	; 0x28
 8005c8a:	d115      	bne.n	8005cb8 <HAL_TIM_Base_Init+0xc4>
 8005c8c:	6963      	ldr	r3, [r4, #20]
 8005c8e:	6313      	str	r3, [r2, #48]	; 0x30
 8005c90:	2301      	movs	r3, #1
 8005c92:	6153      	str	r3, [r2, #20]
 8005c94:	2000      	movs	r0, #0
 8005c96:	f884 303d 	strb.w	r3, [r4, #61]	; 0x3d
 8005c9a:	bdf8      	pop	{r3, r4, r5, r6, r7, pc}
 8005c9c:	68a7      	ldr	r7, [r4, #8]
 8005c9e:	6926      	ldr	r6, [r4, #16]
 8005ca0:	f023 0370 	bic.w	r3, r3, #112	; 0x70
 8005ca4:	433b      	orrs	r3, r7
 8005ca6:	f423 7340 	bic.w	r3, r3, #768	; 0x300
 8005caa:	4333      	orrs	r3, r6
 8005cac:	f023 0380 	bic.w	r3, r3, #128	; 0x80
 8005cb0:	432b      	orrs	r3, r5
 8005cb2:	6013      	str	r3, [r2, #0]
 8005cb4:	62d0      	str	r0, [r2, #44]	; 0x2c
 8005cb6:	6291      	str	r1, [r2, #40]	; 0x28
 8005cb8:	4b11      	ldr	r3, [pc, #68]	; (8005d00 <HAL_TIM_Base_Init+0x10c>)
 8005cba:	429a      	cmp	r2, r3
 8005cbc:	d0e6      	beq.n	8005c8c <HAL_TIM_Base_Init+0x98>
 8005cbe:	f503 6380 	add.w	r3, r3, #1024	; 0x400
 8005cc2:	429a      	cmp	r2, r3
 8005cc4:	d0e2      	beq.n	8005c8c <HAL_TIM_Base_Init+0x98>
 8005cc6:	f503 6380 	add.w	r3, r3, #1024	; 0x400
 8005cca:	429a      	cmp	r2, r3
 8005ccc:	d1e0      	bne.n	8005c90 <HAL_TIM_Base_Init+0x9c>
 8005cce:	e7dd      	b.n	8005c8c <HAL_TIM_Base_Init+0x98>
 8005cd0:	2001      	movs	r0, #1
 8005cd2:	4770      	bx	lr
 8005cd4:	68a7      	ldr	r7, [r4, #8]
 8005cd6:	6926      	ldr	r6, [r4, #16]
 8005cd8:	f023 0370 	bic.w	r3, r3, #112	; 0x70
 8005cdc:	433b      	orrs	r3, r7
 8005cde:	f423 7340 	bic.w	r3, r3, #768	; 0x300
 8005ce2:	4333      	orrs	r3, r6
 8005ce4:	f023 0380 	bic.w	r3, r3, #128	; 0x80
 8005ce8:	432b      	orrs	r3, r5
 8005cea:	6013      	str	r3, [r2, #0]
 8005cec:	62d0      	str	r0, [r2, #44]	; 0x2c
 8005cee:	6291      	str	r1, [r2, #40]	; 0x28
 8005cf0:	e7cc      	b.n	8005c8c <HAL_TIM_Base_Init+0x98>
 8005cf2:	6926      	ldr	r6, [r4, #16]
 8005cf4:	e7f3      	b.n	8005cde <HAL_TIM_Base_Init+0xea>
 8005cf6:	bf00      	nop
 8005cf8:	40012c00 	.word	0x40012c00
 8005cfc:	40013400 	.word	0x40013400
 8005d00:	40014000 	.word	0x40014000

08005d04 <HAL_TIM_PWM_MspInit>:
 8005d04:	4770      	bx	lr
 8005d06:	bf00      	nop

08005d08 <HAL_TIM_PWM_Init>:
 8005d08:	2800      	cmp	r0, #0
 8005d0a:	d06b      	beq.n	8005de4 <HAL_TIM_PWM_Init+0xdc>
 8005d0c:	b5f8      	push	{r3, r4, r5, r6, r7, lr}
 8005d0e:	f890 303d 	ldrb.w	r3, [r0, #61]	; 0x3d
 8005d12:	4604      	mov	r4, r0
 8005d14:	f003 02ff 	and.w	r2, r3, #255	; 0xff
 8005d18:	b363      	cbz	r3, 8005d74 <HAL_TIM_PWM_Init+0x6c>
 8005d1a:	6822      	ldr	r2, [r4, #0]
 8005d1c:	4e3b      	ldr	r6, [pc, #236]	; (8005e0c <HAL_TIM_PWM_Init+0x104>)
 8005d1e:	69a5      	ldr	r5, [r4, #24]
 8005d20:	68e0      	ldr	r0, [r4, #12]
 8005d22:	6861      	ldr	r1, [r4, #4]
 8005d24:	2302      	movs	r3, #2
 8005d26:	f884 303d 	strb.w	r3, [r4, #61]	; 0x3d
 8005d2a:	42b2      	cmp	r2, r6
 8005d2c:	6813      	ldr	r3, [r2, #0]
 8005d2e:	d05b      	beq.n	8005de8 <HAL_TIM_PWM_Init+0xe0>
 8005d30:	f1b2 4f80 	cmp.w	r2, #1073741824	; 0x40000000
 8005d34:	d03c      	beq.n	8005db0 <HAL_TIM_PWM_Init+0xa8>
 8005d36:	f5a6 3694 	sub.w	r6, r6, #75776	; 0x12800
 8005d3a:	42b2      	cmp	r2, r6
 8005d3c:	d01f      	beq.n	8005d7e <HAL_TIM_PWM_Init+0x76>
 8005d3e:	f506 6680 	add.w	r6, r6, #1024	; 0x400
 8005d42:	42b2      	cmp	r2, r6
 8005d44:	d01b      	beq.n	8005d7e <HAL_TIM_PWM_Init+0x76>
 8005d46:	f506 3696 	add.w	r6, r6, #76800	; 0x12c00
 8005d4a:	42b2      	cmp	r2, r6
 8005d4c:	d017      	beq.n	8005d7e <HAL_TIM_PWM_Init+0x76>
 8005d4e:	f506 6640 	add.w	r6, r6, #3072	; 0xc00
 8005d52:	42b2      	cmp	r2, r6
 8005d54:	d057      	beq.n	8005e06 <HAL_TIM_PWM_Init+0xfe>
 8005d56:	f506 6680 	add.w	r6, r6, #1024	; 0x400
 8005d5a:	42b2      	cmp	r2, r6
 8005d5c:	d053      	beq.n	8005e06 <HAL_TIM_PWM_Init+0xfe>
 8005d5e:	f506 6680 	add.w	r6, r6, #1024	; 0x400
 8005d62:	42b2      	cmp	r2, r6
 8005d64:	d04f      	beq.n	8005e06 <HAL_TIM_PWM_Init+0xfe>
 8005d66:	f023 0380 	bic.w	r3, r3, #128	; 0x80
 8005d6a:	432b      	orrs	r3, r5
 8005d6c:	6013      	str	r3, [r2, #0]
 8005d6e:	62d0      	str	r0, [r2, #44]	; 0x2c
 8005d70:	6291      	str	r1, [r2, #40]	; 0x28
 8005d72:	e017      	b.n	8005da4 <HAL_TIM_PWM_Init+0x9c>
 8005d74:	f880 203c 	strb.w	r2, [r0, #60]	; 0x3c
 8005d78:	f7ff ffc4 	bl	8005d04 <HAL_TIM_PWM_MspInit>
 8005d7c:	e7cd      	b.n	8005d1a <HAL_TIM_PWM_Init+0x12>
 8005d7e:	68a6      	ldr	r6, [r4, #8]
 8005d80:	4f23      	ldr	r7, [pc, #140]	; (8005e10 <HAL_TIM_PWM_Init+0x108>)
 8005d82:	f023 0370 	bic.w	r3, r3, #112	; 0x70
 8005d86:	4333      	orrs	r3, r6
 8005d88:	6926      	ldr	r6, [r4, #16]
 8005d8a:	f423 7340 	bic.w	r3, r3, #768	; 0x300
 8005d8e:	4333      	orrs	r3, r6
 8005d90:	f023 0380 	bic.w	r3, r3, #128	; 0x80
 8005d94:	432b      	orrs	r3, r5
 8005d96:	42ba      	cmp	r2, r7
 8005d98:	6013      	str	r3, [r2, #0]
 8005d9a:	62d0      	str	r0, [r2, #44]	; 0x2c
 8005d9c:	6291      	str	r1, [r2, #40]	; 0x28
 8005d9e:	d115      	bne.n	8005dcc <HAL_TIM_PWM_Init+0xc4>
 8005da0:	6963      	ldr	r3, [r4, #20]
 8005da2:	6313      	str	r3, [r2, #48]	; 0x30
 8005da4:	2301      	movs	r3, #1
 8005da6:	6153      	str	r3, [r2, #20]
 8005da8:	2000      	movs	r0, #0
 8005daa:	f884 303d 	strb.w	r3, [r4, #61]	; 0x3d
 8005dae:	bdf8      	pop	{r3, r4, r5, r6, r7, pc}
 8005db0:	68a7      	ldr	r7, [r4, #8]
 8005db2:	6926      	ldr	r6, [r4, #16]
 8005db4:	f023 0370 	bic.w	r3, r3, #112	; 0x70
 8005db8:	433b      	orrs	r3, r7
 8005dba:	f423 7340 	bic.w	r3, r3, #768	; 0x300
 8005dbe:	4333      	orrs	r3, r6
 8005dc0:	f023 0380 	bic.w	r3, r3, #128	; 0x80
 8005dc4:	432b      	orrs	r3, r5
 8005dc6:	6013      	str	r3, [r2, #0]
 8005dc8:	62d0      	str	r0, [r2, #44]	; 0x2c
 8005dca:	6291      	str	r1, [r2, #40]	; 0x28
 8005dcc:	4b11      	ldr	r3, [pc, #68]	; (8005e14 <HAL_TIM_PWM_Init+0x10c>)
 8005dce:	429a      	cmp	r2, r3
 8005dd0:	d0e6      	beq.n	8005da0 <HAL_TIM_PWM_Init+0x98>
 8005dd2:	f503 6380 	add.w	r3, r3, #1024	; 0x400
 8005dd6:	429a      	cmp	r2, r3
 8005dd8:	d0e2      	beq.n	8005da0 <HAL_TIM_PWM_Init+0x98>
 8005dda:	f503 6380 	add.w	r3, r3, #1024	; 0x400
 8005dde:	429a      	cmp	r2, r3
 8005de0:	d1e0      	bne.n	8005da4 <HAL_TIM_PWM_Init+0x9c>
 8005de2:	e7dd      	b.n	8005da0 <HAL_TIM_PWM_Init+0x98>
 8005de4:	2001      	movs	r0, #1
 8005de6:	4770      	bx	lr
 8005de8:	68a7      	ldr	r7, [r4, #8]
 8005dea:	6926      	ldr	r6, [r4, #16]
 8005dec:	f023 0370 	bic.w	r3, r3, #112	; 0x70
 8005df0:	433b      	orrs	r3, r7
 8005df2:	f423 7340 	bic.w	r3, r3, #768	; 0x300
 8005df6:	4333      	orrs	r3, r6
 8005df8:	f023 0380 	bic.w	r3, r3, #128	; 0x80
 8005dfc:	432b      	orrs	r3, r5
 8005dfe:	6013      	str	r3, [r2, #0]
 8005e00:	62d0      	str	r0, [r2, #44]	; 0x2c
 8005e02:	6291      	str	r1, [r2, #40]	; 0x28
 8005e04:	e7cc      	b.n	8005da0 <HAL_TIM_PWM_Init+0x98>
 8005e06:	6926      	ldr	r6, [r4, #16]
 8005e08:	e7f3      	b.n	8005df2 <HAL_TIM_PWM_Init+0xea>
 8005e0a:	bf00      	nop
 8005e0c:	40012c00 	.word	0x40012c00
 8005e10:	40013400 	.word	0x40013400
 8005e14:	40014000 	.word	0x40014000

08005e18 <HAL_TIM_IC_MspInit>:
 8005e18:	4770      	bx	lr
 8005e1a:	bf00      	nop

08005e1c <HAL_TIM_IC_Init>:
 8005e1c:	2800      	cmp	r0, #0
 8005e1e:	d06b      	beq.n	8005ef8 <HAL_TIM_IC_Init+0xdc>
 8005e20:	b5f8      	push	{r3, r4, r5, r6, r7, lr}
 8005e22:	f890 303d 	ldrb.w	r3, [r0, #61]	; 0x3d
 8005e26:	4604      	mov	r4, r0
 8005e28:	f003 02ff 	and.w	r2, r3, #255	; 0xff
 8005e2c:	b363      	cbz	r3, 8005e88 <HAL_TIM_IC_Init+0x6c>
 8005e2e:	6822      	ldr	r2, [r4, #0]
 8005e30:	4e3b      	ldr	r6, [pc, #236]	; (8005f20 <HAL_TIM_IC_Init+0x104>)
 8005e32:	69a5      	ldr	r5, [r4, #24]
 8005e34:	68e0      	ldr	r0, [r4, #12]
 8005e36:	6861      	ldr	r1, [r4, #4]
 8005e38:	2302      	movs	r3, #2
 8005e3a:	f884 303d 	strb.w	r3, [r4, #61]	; 0x3d
 8005e3e:	42b2      	cmp	r2, r6
 8005e40:	6813      	ldr	r3, [r2, #0]
 8005e42:	d05b      	beq.n	8005efc <HAL_TIM_IC_Init+0xe0>
 8005e44:	f1b2 4f80 	cmp.w	r2, #1073741824	; 0x40000000
 8005e48:	d03c      	beq.n	8005ec4 <HAL_TIM_IC_Init+0xa8>
 8005e4a:	f5a6 3694 	sub.w	r6, r6, #75776	; 0x12800
 8005e4e:	42b2      	cmp	r2, r6
 8005e50:	d01f      	beq.n	8005e92 <HAL_TIM_IC_Init+0x76>
 8005e52:	f506 6680 	add.w	r6, r6, #1024	; 0x400
 8005e56:	42b2      	cmp	r2, r6
 8005e58:	d01b      	beq.n	8005e92 <HAL_TIM_IC_Init+0x76>
 8005e5a:	f506 3696 	add.w	r6, r6, #76800	; 0x12c00
 8005e5e:	42b2      	cmp	r2, r6
 8005e60:	d017      	beq.n	8005e92 <HAL_TIM_IC_Init+0x76>
 8005e62:	f506 6640 	add.w	r6, r6, #3072	; 0xc00
 8005e66:	42b2      	cmp	r2, r6
 8005e68:	d057      	beq.n	8005f1a <HAL_TIM_IC_Init+0xfe>
 8005e6a:	f506 6680 	add.w	r6, r6, #1024	; 0x400
 8005e6e:	42b2      	cmp	r2, r6
 8005e70:	d053      	beq.n	8005f1a <HAL_TIM_IC_Init+0xfe>
 8005e72:	f506 6680 	add.w	r6, r6, #1024	; 0x400
 8005e76:	42b2      	cmp	r2, r6
 8005e78:	d04f      	beq.n	8005f1a <HAL_TIM_IC_Init+0xfe>
 8005e7a:	f023 0380 	bic.w	r3, r3, #128	; 0x80
 8005e7e:	432b      	orrs	r3, r5
 8005e80:	6013      	str	r3, [r2, #0]
 8005e82:	62d0      	str	r0, [r2, #44]	; 0x2c
 8005e84:	6291      	str	r1, [r2, #40]	; 0x28
 8005e86:	e017      	b.n	8005eb8 <HAL_TIM_IC_Init+0x9c>
 8005e88:	f880 203c 	strb.w	r2, [r0, #60]	; 0x3c
 8005e8c:	f7ff ffc4 	bl	8005e18 <HAL_TIM_IC_MspInit>
 8005e90:	e7cd      	b.n	8005e2e <HAL_TIM_IC_Init+0x12>
 8005e92:	68a6      	ldr	r6, [r4, #8]
 8005e94:	4f23      	ldr	r7, [pc, #140]	; (8005f24 <HAL_TIM_IC_Init+0x108>)
 8005e96:	f023 0370 	bic.w	r3, r3, #112	; 0x70
 8005e9a:	4333      	orrs	r3, r6
 8005e9c:	6926      	ldr	r6, [r4, #16]
 8005e9e:	f423 7340 	bic.w	r3, r3, #768	; 0x300
 8005ea2:	4333      	orrs	r3, r6
 8005ea4:	f023 0380 	bic.w	r3, r3, #128	; 0x80
 8005ea8:	432b      	orrs	r3, r5
 8005eaa:	42ba      	cmp	r2, r7
 8005eac:	6013      	str	r3, [r2, #0]
 8005eae:	62d0      	str	r0, [r2, #44]	; 0x2c
 8005eb0:	6291      	str	r1, [r2, #40]	; 0x28
 8005eb2:	d115      	bne.n	8005ee0 <HAL_TIM_IC_Init+0xc4>
 8005eb4:	6963      	ldr	r3, [r4, #20]
 8005eb6:	6313      	str	r3, [r2, #48]	; 0x30
 8005eb8:	2301      	movs	r3, #1
 8005eba:	6153      	str	r3, [r2, #20]
 8005ebc:	2000      	movs	r0, #0
 8005ebe:	f884 303d 	strb.w	r3, [r4, #61]	; 0x3d
 8005ec2:	bdf8      	pop	{r3, r4, r5, r6, r7, pc}
 8005ec4:	68a7      	ldr	r7, [r4, #8]
 8005ec6:	6926      	ldr	r6, [r4, #16]
 8005ec8:	f023 0370 	bic.w	r3, r3, #112	; 0x70
 8005ecc:	433b      	orrs	r3, r7
 8005ece:	f423 7340 	bic.w	r3, r3, #768	; 0x300
 8005ed2:	4333      	orrs	r3, r6
 8005ed4:	f023 0380 	bic.w	r3, r3, #128	; 0x80
 8005ed8:	432b      	orrs	r3, r5
 8005eda:	6013      	str	r3, [r2, #0]
 8005edc:	62d0      	str	r0, [r2, #44]	; 0x2c
 8005ede:	6291      	str	r1, [r2, #40]	; 0x28
 8005ee0:	4b11      	ldr	r3, [pc, #68]	; (8005f28 <HAL_TIM_IC_Init+0x10c>)
 8005ee2:	429a      	cmp	r2, r3
 8005ee4:	d0e6      	beq.n	8005eb4 <HAL_TIM_IC_Init+0x98>
 8005ee6:	f503 6380 	add.w	r3, r3, #1024	; 0x400
 8005eea:	429a      	cmp	r2, r3
 8005eec:	d0e2      	beq.n	8005eb4 <HAL_TIM_IC_Init+0x98>
 8005eee:	f503 6380 	add.w	r3, r3, #1024	; 0x400
 8005ef2:	429a      	cmp	r2, r3
 8005ef4:	d1e0      	bne.n	8005eb8 <HAL_TIM_IC_Init+0x9c>
 8005ef6:	e7dd      	b.n	8005eb4 <HAL_TIM_IC_Init+0x98>
 8005ef8:	2001      	movs	r0, #1
 8005efa:	4770      	bx	lr
 8005efc:	68a7      	ldr	r7, [r4, #8]
 8005efe:	6926      	ldr	r6, [r4, #16]
 8005f00:	f023 0370 	bic.w	r3, r3, #112	; 0x70
 8005f04:	433b      	orrs	r3, r7
 8005f06:	f423 7340 	bic.w	r3, r3, #768	; 0x300
 8005f0a:	4333      	orrs	r3, r6
 8005f0c:	f023 0380 	bic.w	r3, r3, #128	; 0x80
 8005f10:	432b      	orrs	r3, r5
 8005f12:	6013      	str	r3, [r2, #0]
 8005f14:	62d0      	str	r0, [r2, #44]	; 0x2c
 8005f16:	6291      	str	r1, [r2, #40]	; 0x28
 8005f18:	e7cc      	b.n	8005eb4 <HAL_TIM_IC_Init+0x98>
 8005f1a:	6926      	ldr	r6, [r4, #16]
 8005f1c:	e7f3      	b.n	8005f06 <HAL_TIM_IC_Init+0xea>
 8005f1e:	bf00      	nop
 8005f20:	40012c00 	.word	0x40012c00
 8005f24:	40013400 	.word	0x40013400
 8005f28:	40014000 	.word	0x40014000

08005f2c <HAL_TIM_IC_ConfigChannel>:
 8005f2c:	f890 303c 	ldrb.w	r3, [r0, #60]	; 0x3c
 8005f30:	2b01      	cmp	r3, #1
 8005f32:	f000 8095 	beq.w	8006060 <HAL_TIM_IC_ConfigChannel+0x134>
 8005f36:	b4f0      	push	{r4, r5, r6, r7}
 8005f38:	2302      	movs	r3, #2
 8005f3a:	2401      	movs	r4, #1
 8005f3c:	f880 403c 	strb.w	r4, [r0, #60]	; 0x3c
 8005f40:	f880 303d 	strb.w	r3, [r0, #61]	; 0x3d
 8005f44:	e9d1 5700 	ldrd	r5, r7, [r1]
 8005f48:	6803      	ldr	r3, [r0, #0]
 8005f4a:	e9d1 6402 	ldrd	r6, r4, [r1, #8]
 8005f4e:	b372      	cbz	r2, 8005fae <HAL_TIM_IC_ConfigChannel+0x82>
 8005f50:	2a04      	cmp	r2, #4
 8005f52:	d063      	beq.n	800601c <HAL_TIM_IC_ConfigChannel+0xf0>
 8005f54:	2a08      	cmp	r2, #8
 8005f56:	6a1a      	ldr	r2, [r3, #32]
 8005f58:	f000 8084 	beq.w	8006064 <HAL_TIM_IC_ConfigChannel+0x138>
 8005f5c:	f422 5280 	bic.w	r2, r2, #4096	; 0x1000
 8005f60:	621a      	str	r2, [r3, #32]
 8005f62:	69d9      	ldr	r1, [r3, #28]
 8005f64:	f8d3 c020 	ldr.w	ip, [r3, #32]
 8005f68:	f421 7140 	bic.w	r1, r1, #768	; 0x300
 8005f6c:	0324      	lsls	r4, r4, #12
 8005f6e:	032a      	lsls	r2, r5, #12
 8005f70:	ea41 2107 	orr.w	r1, r1, r7, lsl #8
 8005f74:	b2a4      	uxth	r4, r4
 8005f76:	f402 4220 	and.w	r2, r2, #40960	; 0xa000
 8005f7a:	f421 4170 	bic.w	r1, r1, #61440	; 0xf000
 8005f7e:	f42c 4c20 	bic.w	ip, ip, #40960	; 0xa000
 8005f82:	ea42 020c 	orr.w	r2, r2, ip
 8005f86:	430c      	orrs	r4, r1
 8005f88:	61dc      	str	r4, [r3, #28]
 8005f8a:	621a      	str	r2, [r3, #32]
 8005f8c:	69da      	ldr	r2, [r3, #28]
 8005f8e:	f422 6240 	bic.w	r2, r2, #3072	; 0xc00
 8005f92:	61da      	str	r2, [r3, #28]
 8005f94:	69da      	ldr	r2, [r3, #28]
 8005f96:	ea42 2606 	orr.w	r6, r2, r6, lsl #8
 8005f9a:	61de      	str	r6, [r3, #28]
 8005f9c:	2300      	movs	r3, #0
 8005f9e:	2201      	movs	r2, #1
 8005fa0:	f880 203d 	strb.w	r2, [r0, #61]	; 0x3d
 8005fa4:	f880 303c 	strb.w	r3, [r0, #60]	; 0x3c
 8005fa8:	bcf0      	pop	{r4, r5, r6, r7}
 8005faa:	4618      	mov	r0, r3
 8005fac:	4770      	bx	lr
 8005fae:	6a1a      	ldr	r2, [r3, #32]
 8005fb0:	f8df c0f0 	ldr.w	ip, [pc, #240]	; 80060a4 <HAL_TIM_IC_ConfigChannel+0x178>
 8005fb4:	f022 0201 	bic.w	r2, r2, #1
 8005fb8:	621a      	str	r2, [r3, #32]
 8005fba:	4563      	cmp	r3, ip
 8005fbc:	6999      	ldr	r1, [r3, #24]
 8005fbe:	6a1a      	ldr	r2, [r3, #32]
 8005fc0:	d015      	beq.n	8005fee <HAL_TIM_IC_ConfigChannel+0xc2>
 8005fc2:	f1b3 4f80 	cmp.w	r3, #1073741824	; 0x40000000
 8005fc6:	d012      	beq.n	8005fee <HAL_TIM_IC_ConfigChannel+0xc2>
 8005fc8:	f5ac 3c94 	sub.w	ip, ip, #75776	; 0x12800
 8005fcc:	4563      	cmp	r3, ip
 8005fce:	d00e      	beq.n	8005fee <HAL_TIM_IC_ConfigChannel+0xc2>
 8005fd0:	f50c 6c80 	add.w	ip, ip, #1024	; 0x400
 8005fd4:	4563      	cmp	r3, ip
 8005fd6:	d00a      	beq.n	8005fee <HAL_TIM_IC_ConfigChannel+0xc2>
 8005fd8:	f50c 3c96 	add.w	ip, ip, #76800	; 0x12c00
 8005fdc:	4563      	cmp	r3, ip
 8005fde:	d006      	beq.n	8005fee <HAL_TIM_IC_ConfigChannel+0xc2>
 8005fe0:	f50c 6c40 	add.w	ip, ip, #3072	; 0xc00
 8005fe4:	4563      	cmp	r3, ip
 8005fe6:	d002      	beq.n	8005fee <HAL_TIM_IC_ConfigChannel+0xc2>
 8005fe8:	f041 0101 	orr.w	r1, r1, #1
 8005fec:	e002      	b.n	8005ff4 <HAL_TIM_IC_ConfigChannel+0xc8>
 8005fee:	f021 0103 	bic.w	r1, r1, #3
 8005ff2:	4339      	orrs	r1, r7
 8005ff4:	0124      	lsls	r4, r4, #4
 8005ff6:	f022 070a 	bic.w	r7, r2, #10
 8005ffa:	b2e4      	uxtb	r4, r4
 8005ffc:	f021 01f0 	bic.w	r1, r1, #240	; 0xf0
 8006000:	f005 020a 	and.w	r2, r5, #10
 8006004:	433a      	orrs	r2, r7
 8006006:	4321      	orrs	r1, r4
 8006008:	6199      	str	r1, [r3, #24]
 800600a:	621a      	str	r2, [r3, #32]
 800600c:	699a      	ldr	r2, [r3, #24]
 800600e:	f022 020c 	bic.w	r2, r2, #12
 8006012:	619a      	str	r2, [r3, #24]
 8006014:	699a      	ldr	r2, [r3, #24]
 8006016:	4316      	orrs	r6, r2
 8006018:	619e      	str	r6, [r3, #24]
 800601a:	e7bf      	b.n	8005f9c <HAL_TIM_IC_ConfigChannel+0x70>
 800601c:	6a1a      	ldr	r2, [r3, #32]
 800601e:	f022 0210 	bic.w	r2, r2, #16
 8006022:	621a      	str	r2, [r3, #32]
 8006024:	6999      	ldr	r1, [r3, #24]
 8006026:	f8d3 c020 	ldr.w	ip, [r3, #32]
 800602a:	f421 7140 	bic.w	r1, r1, #768	; 0x300
 800602e:	0324      	lsls	r4, r4, #12
 8006030:	012a      	lsls	r2, r5, #4
 8006032:	ea41 2107 	orr.w	r1, r1, r7, lsl #8
 8006036:	b2a4      	uxth	r4, r4
 8006038:	f002 02a0 	and.w	r2, r2, #160	; 0xa0
 800603c:	f421 4170 	bic.w	r1, r1, #61440	; 0xf000
 8006040:	f02c 0ca0 	bic.w	ip, ip, #160	; 0xa0
 8006044:	ea42 020c 	orr.w	r2, r2, ip
 8006048:	4321      	orrs	r1, r4
 800604a:	6199      	str	r1, [r3, #24]
 800604c:	621a      	str	r2, [r3, #32]
 800604e:	699a      	ldr	r2, [r3, #24]
 8006050:	f422 6240 	bic.w	r2, r2, #3072	; 0xc00
 8006054:	619a      	str	r2, [r3, #24]
 8006056:	699a      	ldr	r2, [r3, #24]
 8006058:	ea42 2606 	orr.w	r6, r2, r6, lsl #8
 800605c:	619e      	str	r6, [r3, #24]
 800605e:	e79d      	b.n	8005f9c <HAL_TIM_IC_ConfigChannel+0x70>
 8006060:	2002      	movs	r0, #2
 8006062:	4770      	bx	lr
 8006064:	f422 7280 	bic.w	r2, r2, #256	; 0x100
 8006068:	621a      	str	r2, [r3, #32]
 800606a:	69d9      	ldr	r1, [r3, #28]
 800606c:	f8d3 c020 	ldr.w	ip, [r3, #32]
 8006070:	f021 0103 	bic.w	r1, r1, #3
 8006074:	0124      	lsls	r4, r4, #4
 8006076:	022a      	lsls	r2, r5, #8
 8006078:	4339      	orrs	r1, r7
 800607a:	b2e4      	uxtb	r4, r4
 800607c:	f402 6220 	and.w	r2, r2, #2560	; 0xa00
 8006080:	f021 01f0 	bic.w	r1, r1, #240	; 0xf0
 8006084:	f42c 6c20 	bic.w	ip, ip, #2560	; 0xa00
 8006088:	ea42 020c 	orr.w	r2, r2, ip
 800608c:	4321      	orrs	r1, r4
 800608e:	61d9      	str	r1, [r3, #28]
 8006090:	621a      	str	r2, [r3, #32]
 8006092:	69da      	ldr	r2, [r3, #28]
 8006094:	f022 020c 	bic.w	r2, r2, #12
 8006098:	61da      	str	r2, [r3, #28]
 800609a:	69da      	ldr	r2, [r3, #28]
 800609c:	4316      	orrs	r6, r2
 800609e:	61de      	str	r6, [r3, #28]
 80060a0:	e77c      	b.n	8005f9c <HAL_TIM_IC_ConfigChannel+0x70>
 80060a2:	bf00      	nop
 80060a4:	40012c00 	.word	0x40012c00

080060a8 <HAL_TIM_PWM_ConfigChannel>:
 80060a8:	f890 303c 	ldrb.w	r3, [r0, #60]	; 0x3c
 80060ac:	2b01      	cmp	r3, #1
 80060ae:	f000 81b2 	beq.w	8006416 <HAL_TIM_PWM_ConfigChannel+0x36e>
 80060b2:	b4f0      	push	{r4, r5, r6, r7}
 80060b4:	2302      	movs	r3, #2
 80060b6:	2401      	movs	r4, #1
 80060b8:	f880 403c 	strb.w	r4, [r0, #60]	; 0x3c
 80060bc:	f880 303d 	strb.w	r3, [r0, #61]	; 0x3d
 80060c0:	2a14      	cmp	r2, #20
 80060c2:	d854      	bhi.n	800616e <HAL_TIM_PWM_ConfigChannel+0xc6>
 80060c4:	e8df f012 	tbh	[pc, r2, lsl #1]
 80060c8:	00530015 	.word	0x00530015
 80060cc:	00530053 	.word	0x00530053
 80060d0:	0053009c 	.word	0x0053009c
 80060d4:	00530053 	.word	0x00530053
 80060d8:	00530166 	.word	0x00530166
 80060dc:	00530053 	.word	0x00530053
 80060e0:	005300e0 	.word	0x005300e0
 80060e4:	00530053 	.word	0x00530053
 80060e8:	00530124 	.word	0x00530124
 80060ec:	00530053 	.word	0x00530053
 80060f0:	005c      	.short	0x005c
 80060f2:	6803      	ldr	r3, [r0, #0]
 80060f4:	f8d1 c008 	ldr.w	ip, [r1, #8]
 80060f8:	6a1d      	ldr	r5, [r3, #32]
 80060fa:	680f      	ldr	r7, [r1, #0]
 80060fc:	4ea4      	ldr	r6, [pc, #656]	; (8006390 <HAL_TIM_PWM_ConfigChannel+0x2e8>)
 80060fe:	f025 0501 	bic.w	r5, r5, #1
 8006102:	621d      	str	r5, [r3, #32]
 8006104:	6a1a      	ldr	r2, [r3, #32]
 8006106:	685d      	ldr	r5, [r3, #4]
 8006108:	699c      	ldr	r4, [r3, #24]
 800610a:	f424 3480 	bic.w	r4, r4, #65536	; 0x10000
 800610e:	f022 0202 	bic.w	r2, r2, #2
 8006112:	f024 0473 	bic.w	r4, r4, #115	; 0x73
 8006116:	42b3      	cmp	r3, r6
 8006118:	ea42 020c 	orr.w	r2, r2, ip
 800611c:	ea44 0407 	orr.w	r4, r4, r7
 8006120:	d008      	beq.n	8006134 <HAL_TIM_PWM_ConfigChannel+0x8c>
 8006122:	f506 6600 	add.w	r6, r6, #2048	; 0x800
 8006126:	42b3      	cmp	r3, r6
 8006128:	d004      	beq.n	8006134 <HAL_TIM_PWM_ConfigChannel+0x8c>
 800612a:	f506 6640 	add.w	r6, r6, #3072	; 0xc00
 800612e:	42b3      	cmp	r3, r6
 8006130:	f040 818b 	bne.w	800644a <HAL_TIM_PWM_ConfigChannel+0x3a2>
 8006134:	68ce      	ldr	r6, [r1, #12]
 8006136:	f022 0208 	bic.w	r2, r2, #8
 800613a:	4332      	orrs	r2, r6
 800613c:	e9d1 6705 	ldrd	r6, r7, [r1, #20]
 8006140:	f425 7540 	bic.w	r5, r5, #768	; 0x300
 8006144:	433e      	orrs	r6, r7
 8006146:	f022 0204 	bic.w	r2, r2, #4
 800614a:	4335      	orrs	r5, r6
 800614c:	684e      	ldr	r6, [r1, #4]
 800614e:	605d      	str	r5, [r3, #4]
 8006150:	619c      	str	r4, [r3, #24]
 8006152:	635e      	str	r6, [r3, #52]	; 0x34
 8006154:	621a      	str	r2, [r3, #32]
 8006156:	699c      	ldr	r4, [r3, #24]
 8006158:	690d      	ldr	r5, [r1, #16]
 800615a:	f044 0408 	orr.w	r4, r4, #8
 800615e:	619c      	str	r4, [r3, #24]
 8006160:	6999      	ldr	r1, [r3, #24]
 8006162:	f021 0104 	bic.w	r1, r1, #4
 8006166:	6199      	str	r1, [r3, #24]
 8006168:	699a      	ldr	r2, [r3, #24]
 800616a:	432a      	orrs	r2, r5
 800616c:	619a      	str	r2, [r3, #24]
 800616e:	2300      	movs	r3, #0
 8006170:	2201      	movs	r2, #1
 8006172:	f880 203d 	strb.w	r2, [r0, #61]	; 0x3d
 8006176:	f880 303c 	strb.w	r3, [r0, #60]	; 0x3c
 800617a:	bcf0      	pop	{r4, r5, r6, r7}
 800617c:	4618      	mov	r0, r3
 800617e:	4770      	bx	lr
 8006180:	6803      	ldr	r3, [r0, #0]
 8006182:	f8d1 c008 	ldr.w	ip, [r1, #8]
 8006186:	6a1d      	ldr	r5, [r3, #32]
 8006188:	680f      	ldr	r7, [r1, #0]
 800618a:	4e81      	ldr	r6, [pc, #516]	; (8006390 <HAL_TIM_PWM_ConfigChannel+0x2e8>)
 800618c:	f425 1580 	bic.w	r5, r5, #1048576	; 0x100000
 8006190:	621d      	str	r5, [r3, #32]
 8006192:	6a1c      	ldr	r4, [r3, #32]
 8006194:	685d      	ldr	r5, [r3, #4]
 8006196:	6d1a      	ldr	r2, [r3, #80]	; 0x50
 8006198:	f022 7280 	bic.w	r2, r2, #16777216	; 0x1000000
 800619c:	f424 1400 	bic.w	r4, r4, #2097152	; 0x200000
 80061a0:	f422 42e0 	bic.w	r2, r2, #28672	; 0x7000
 80061a4:	42b3      	cmp	r3, r6
 80061a6:	ea44 540c 	orr.w	r4, r4, ip, lsl #20
 80061aa:	ea42 2207 	orr.w	r2, r2, r7, lsl #8
 80061ae:	d00f      	beq.n	80061d0 <HAL_TIM_PWM_ConfigChannel+0x128>
 80061b0:	f506 6600 	add.w	r6, r6, #2048	; 0x800
 80061b4:	42b3      	cmp	r3, r6
 80061b6:	d00b      	beq.n	80061d0 <HAL_TIM_PWM_ConfigChannel+0x128>
 80061b8:	f506 6640 	add.w	r6, r6, #3072	; 0xc00
 80061bc:	42b3      	cmp	r3, r6
 80061be:	d007      	beq.n	80061d0 <HAL_TIM_PWM_ConfigChannel+0x128>
 80061c0:	f506 6680 	add.w	r6, r6, #1024	; 0x400
 80061c4:	42b3      	cmp	r3, r6
 80061c6:	d003      	beq.n	80061d0 <HAL_TIM_PWM_ConfigChannel+0x128>
 80061c8:	f506 6680 	add.w	r6, r6, #1024	; 0x400
 80061cc:	42b3      	cmp	r3, r6
 80061ce:	d104      	bne.n	80061da <HAL_TIM_PWM_ConfigChannel+0x132>
 80061d0:	694e      	ldr	r6, [r1, #20]
 80061d2:	f425 2580 	bic.w	r5, r5, #262144	; 0x40000
 80061d6:	ea45 2586 	orr.w	r5, r5, r6, lsl #10
 80061da:	684e      	ldr	r6, [r1, #4]
 80061dc:	605d      	str	r5, [r3, #4]
 80061de:	651a      	str	r2, [r3, #80]	; 0x50
 80061e0:	64de      	str	r6, [r3, #76]	; 0x4c
 80061e2:	621c      	str	r4, [r3, #32]
 80061e4:	6d1c      	ldr	r4, [r3, #80]	; 0x50
 80061e6:	690d      	ldr	r5, [r1, #16]
 80061e8:	f444 6400 	orr.w	r4, r4, #2048	; 0x800
 80061ec:	651c      	str	r4, [r3, #80]	; 0x50
 80061ee:	6d19      	ldr	r1, [r3, #80]	; 0x50
 80061f0:	f421 6180 	bic.w	r1, r1, #1024	; 0x400
 80061f4:	6519      	str	r1, [r3, #80]	; 0x50
 80061f6:	6d1a      	ldr	r2, [r3, #80]	; 0x50
 80061f8:	ea42 2205 	orr.w	r2, r2, r5, lsl #8
 80061fc:	651a      	str	r2, [r3, #80]	; 0x50
 80061fe:	e7b6      	b.n	800616e <HAL_TIM_PWM_ConfigChannel+0xc6>
 8006200:	6803      	ldr	r3, [r0, #0]
 8006202:	f8d1 c008 	ldr.w	ip, [r1, #8]
 8006206:	6a1d      	ldr	r5, [r3, #32]
 8006208:	680f      	ldr	r7, [r1, #0]
 800620a:	4e61      	ldr	r6, [pc, #388]	; (8006390 <HAL_TIM_PWM_ConfigChannel+0x2e8>)
 800620c:	f025 0510 	bic.w	r5, r5, #16
 8006210:	621d      	str	r5, [r3, #32]
 8006212:	6a1c      	ldr	r4, [r3, #32]
 8006214:	685d      	ldr	r5, [r3, #4]
 8006216:	699a      	ldr	r2, [r3, #24]
 8006218:	f022 7280 	bic.w	r2, r2, #16777216	; 0x1000000
 800621c:	f024 0420 	bic.w	r4, r4, #32
 8006220:	f422 42e6 	bic.w	r2, r2, #29440	; 0x7300
 8006224:	42b3      	cmp	r3, r6
 8006226:	ea44 140c 	orr.w	r4, r4, ip, lsl #4
 800622a:	ea42 2207 	orr.w	r2, r2, r7, lsl #8
 800622e:	f000 80f4 	beq.w	800641a <HAL_TIM_PWM_ConfigChannel+0x372>
 8006232:	f506 6600 	add.w	r6, r6, #2048	; 0x800
 8006236:	42b3      	cmp	r3, r6
 8006238:	f000 80ef 	beq.w	800641a <HAL_TIM_PWM_ConfigChannel+0x372>
 800623c:	f506 6640 	add.w	r6, r6, #3072	; 0xc00
 8006240:	42b3      	cmp	r3, r6
 8006242:	d007      	beq.n	8006254 <HAL_TIM_PWM_ConfigChannel+0x1ac>
 8006244:	f506 6680 	add.w	r6, r6, #1024	; 0x400
 8006248:	42b3      	cmp	r3, r6
 800624a:	d003      	beq.n	8006254 <HAL_TIM_PWM_ConfigChannel+0x1ac>
 800624c:	f506 6680 	add.w	r6, r6, #1024	; 0x400
 8006250:	42b3      	cmp	r3, r6
 8006252:	d106      	bne.n	8006262 <HAL_TIM_PWM_ConfigChannel+0x1ba>
 8006254:	e9d1 6705 	ldrd	r6, r7, [r1, #20]
 8006258:	f425 6540 	bic.w	r5, r5, #3072	; 0xc00
 800625c:	433e      	orrs	r6, r7
 800625e:	ea45 0586 	orr.w	r5, r5, r6, lsl #2
 8006262:	684e      	ldr	r6, [r1, #4]
 8006264:	605d      	str	r5, [r3, #4]
 8006266:	619a      	str	r2, [r3, #24]
 8006268:	639e      	str	r6, [r3, #56]	; 0x38
 800626a:	621c      	str	r4, [r3, #32]
 800626c:	699c      	ldr	r4, [r3, #24]
 800626e:	690d      	ldr	r5, [r1, #16]
 8006270:	f444 6400 	orr.w	r4, r4, #2048	; 0x800
 8006274:	619c      	str	r4, [r3, #24]
 8006276:	6999      	ldr	r1, [r3, #24]
 8006278:	f421 6180 	bic.w	r1, r1, #1024	; 0x400
 800627c:	6199      	str	r1, [r3, #24]
 800627e:	699a      	ldr	r2, [r3, #24]
 8006280:	ea42 2205 	orr.w	r2, r2, r5, lsl #8
 8006284:	619a      	str	r2, [r3, #24]
 8006286:	e772      	b.n	800616e <HAL_TIM_PWM_ConfigChannel+0xc6>
 8006288:	6803      	ldr	r3, [r0, #0]
 800628a:	f8d1 c008 	ldr.w	ip, [r1, #8]
 800628e:	6a1d      	ldr	r5, [r3, #32]
 8006290:	680f      	ldr	r7, [r1, #0]
 8006292:	4e3f      	ldr	r6, [pc, #252]	; (8006390 <HAL_TIM_PWM_ConfigChannel+0x2e8>)
 8006294:	f425 5580 	bic.w	r5, r5, #4096	; 0x1000
 8006298:	621d      	str	r5, [r3, #32]
 800629a:	6a1c      	ldr	r4, [r3, #32]
 800629c:	685d      	ldr	r5, [r3, #4]
 800629e:	69da      	ldr	r2, [r3, #28]
 80062a0:	f022 7280 	bic.w	r2, r2, #16777216	; 0x1000000
 80062a4:	f424 5400 	bic.w	r4, r4, #8192	; 0x2000
 80062a8:	f422 42e6 	bic.w	r2, r2, #29440	; 0x7300
 80062ac:	42b3      	cmp	r3, r6
 80062ae:	ea44 340c 	orr.w	r4, r4, ip, lsl #12
 80062b2:	ea42 2207 	orr.w	r2, r2, r7, lsl #8
 80062b6:	f000 80c0 	beq.w	800643a <HAL_TIM_PWM_ConfigChannel+0x392>
 80062ba:	f506 6600 	add.w	r6, r6, #2048	; 0x800
 80062be:	42b3      	cmp	r3, r6
 80062c0:	f000 80bb 	beq.w	800643a <HAL_TIM_PWM_ConfigChannel+0x392>
 80062c4:	f506 6640 	add.w	r6, r6, #3072	; 0xc00
 80062c8:	42b3      	cmp	r3, r6
 80062ca:	d007      	beq.n	80062dc <HAL_TIM_PWM_ConfigChannel+0x234>
 80062cc:	f506 6680 	add.w	r6, r6, #1024	; 0x400
 80062d0:	42b3      	cmp	r3, r6
 80062d2:	d003      	beq.n	80062dc <HAL_TIM_PWM_ConfigChannel+0x234>
 80062d4:	f506 6680 	add.w	r6, r6, #1024	; 0x400
 80062d8:	42b3      	cmp	r3, r6
 80062da:	d106      	bne.n	80062ea <HAL_TIM_PWM_ConfigChannel+0x242>
 80062dc:	e9d1 6705 	ldrd	r6, r7, [r1, #20]
 80062e0:	f425 4540 	bic.w	r5, r5, #49152	; 0xc000
 80062e4:	433e      	orrs	r6, r7
 80062e6:	ea45 1586 	orr.w	r5, r5, r6, lsl #6
 80062ea:	684e      	ldr	r6, [r1, #4]
 80062ec:	605d      	str	r5, [r3, #4]
 80062ee:	61da      	str	r2, [r3, #28]
 80062f0:	641e      	str	r6, [r3, #64]	; 0x40
 80062f2:	621c      	str	r4, [r3, #32]
 80062f4:	69dc      	ldr	r4, [r3, #28]
 80062f6:	690d      	ldr	r5, [r1, #16]
 80062f8:	f444 6400 	orr.w	r4, r4, #2048	; 0x800
 80062fc:	61dc      	str	r4, [r3, #28]
 80062fe:	69d9      	ldr	r1, [r3, #28]
 8006300:	f421 6180 	bic.w	r1, r1, #1024	; 0x400
 8006304:	61d9      	str	r1, [r3, #28]
 8006306:	69da      	ldr	r2, [r3, #28]
 8006308:	ea42 2205 	orr.w	r2, r2, r5, lsl #8
 800630c:	61da      	str	r2, [r3, #28]
 800630e:	e72e      	b.n	800616e <HAL_TIM_PWM_ConfigChannel+0xc6>
 8006310:	6803      	ldr	r3, [r0, #0]
 8006312:	f8d1 c008 	ldr.w	ip, [r1, #8]
 8006316:	6a1d      	ldr	r5, [r3, #32]
 8006318:	680f      	ldr	r7, [r1, #0]
 800631a:	4e1d      	ldr	r6, [pc, #116]	; (8006390 <HAL_TIM_PWM_ConfigChannel+0x2e8>)
 800631c:	f425 3580 	bic.w	r5, r5, #65536	; 0x10000
 8006320:	621d      	str	r5, [r3, #32]
 8006322:	6a1c      	ldr	r4, [r3, #32]
 8006324:	685d      	ldr	r5, [r3, #4]
 8006326:	6d1a      	ldr	r2, [r3, #80]	; 0x50
 8006328:	f422 3280 	bic.w	r2, r2, #65536	; 0x10000
 800632c:	f424 3400 	bic.w	r4, r4, #131072	; 0x20000
 8006330:	f022 0270 	bic.w	r2, r2, #112	; 0x70
 8006334:	42b3      	cmp	r3, r6
 8006336:	ea44 440c 	orr.w	r4, r4, ip, lsl #16
 800633a:	ea42 0207 	orr.w	r2, r2, r7
 800633e:	d00f      	beq.n	8006360 <HAL_TIM_PWM_ConfigChannel+0x2b8>
 8006340:	f506 6600 	add.w	r6, r6, #2048	; 0x800
 8006344:	42b3      	cmp	r3, r6
 8006346:	d00b      	beq.n	8006360 <HAL_TIM_PWM_ConfigChannel+0x2b8>
 8006348:	f506 6640 	add.w	r6, r6, #3072	; 0xc00
 800634c:	42b3      	cmp	r3, r6
 800634e:	d007      	beq.n	8006360 <HAL_TIM_PWM_ConfigChannel+0x2b8>
 8006350:	f506 6680 	add.w	r6, r6, #1024	; 0x400
 8006354:	42b3      	cmp	r3, r6
 8006356:	d003      	beq.n	8006360 <HAL_TIM_PWM_ConfigChannel+0x2b8>
 8006358:	f506 6680 	add.w	r6, r6, #1024	; 0x400
 800635c:	42b3      	cmp	r3, r6
 800635e:	d104      	bne.n	800636a <HAL_TIM_PWM_ConfigChannel+0x2c2>
 8006360:	694e      	ldr	r6, [r1, #20]
 8006362:	f425 3580 	bic.w	r5, r5, #65536	; 0x10000
 8006366:	ea45 2506 	orr.w	r5, r5, r6, lsl #8
 800636a:	684e      	ldr	r6, [r1, #4]
 800636c:	605d      	str	r5, [r3, #4]
 800636e:	651a      	str	r2, [r3, #80]	; 0x50
 8006370:	649e      	str	r6, [r3, #72]	; 0x48
 8006372:	621c      	str	r4, [r3, #32]
 8006374:	6d1c      	ldr	r4, [r3, #80]	; 0x50
 8006376:	690d      	ldr	r5, [r1, #16]
 8006378:	f044 0408 	orr.w	r4, r4, #8
 800637c:	651c      	str	r4, [r3, #80]	; 0x50
 800637e:	6d19      	ldr	r1, [r3, #80]	; 0x50
 8006380:	f021 0104 	bic.w	r1, r1, #4
 8006384:	6519      	str	r1, [r3, #80]	; 0x50
 8006386:	6d1a      	ldr	r2, [r3, #80]	; 0x50
 8006388:	432a      	orrs	r2, r5
 800638a:	651a      	str	r2, [r3, #80]	; 0x50
 800638c:	e6ef      	b.n	800616e <HAL_TIM_PWM_ConfigChannel+0xc6>
 800638e:	bf00      	nop
 8006390:	40012c00 	.word	0x40012c00
 8006394:	6803      	ldr	r3, [r0, #0]
 8006396:	f8d1 c008 	ldr.w	ip, [r1, #8]
 800639a:	6a1d      	ldr	r5, [r3, #32]
 800639c:	680f      	ldr	r7, [r1, #0]
 800639e:	4e30      	ldr	r6, [pc, #192]	; (8006460 <HAL_TIM_PWM_ConfigChannel+0x3b8>)
 80063a0:	f425 7580 	bic.w	r5, r5, #256	; 0x100
 80063a4:	621d      	str	r5, [r3, #32]
 80063a6:	6a1c      	ldr	r4, [r3, #32]
 80063a8:	685d      	ldr	r5, [r3, #4]
 80063aa:	69da      	ldr	r2, [r3, #28]
 80063ac:	f422 3280 	bic.w	r2, r2, #65536	; 0x10000
 80063b0:	f424 7400 	bic.w	r4, r4, #512	; 0x200
 80063b4:	f022 0273 	bic.w	r2, r2, #115	; 0x73
 80063b8:	42b3      	cmp	r3, r6
 80063ba:	ea44 240c 	orr.w	r4, r4, ip, lsl #8
 80063be:	ea42 0207 	orr.w	r2, r2, r7
 80063c2:	d032      	beq.n	800642a <HAL_TIM_PWM_ConfigChannel+0x382>
 80063c4:	f506 6600 	add.w	r6, r6, #2048	; 0x800
 80063c8:	42b3      	cmp	r3, r6
 80063ca:	d02e      	beq.n	800642a <HAL_TIM_PWM_ConfigChannel+0x382>
 80063cc:	f506 6640 	add.w	r6, r6, #3072	; 0xc00
 80063d0:	42b3      	cmp	r3, r6
 80063d2:	d007      	beq.n	80063e4 <HAL_TIM_PWM_ConfigChannel+0x33c>
 80063d4:	f506 6680 	add.w	r6, r6, #1024	; 0x400
 80063d8:	42b3      	cmp	r3, r6
 80063da:	d003      	beq.n	80063e4 <HAL_TIM_PWM_ConfigChannel+0x33c>
 80063dc:	f506 6680 	add.w	r6, r6, #1024	; 0x400
 80063e0:	42b3      	cmp	r3, r6
 80063e2:	d106      	bne.n	80063f2 <HAL_TIM_PWM_ConfigChannel+0x34a>
 80063e4:	e9d1 6705 	ldrd	r6, r7, [r1, #20]
 80063e8:	f425 5540 	bic.w	r5, r5, #12288	; 0x3000
 80063ec:	433e      	orrs	r6, r7
 80063ee:	ea45 1506 	orr.w	r5, r5, r6, lsl #4
 80063f2:	684e      	ldr	r6, [r1, #4]
 80063f4:	605d      	str	r5, [r3, #4]
 80063f6:	61da      	str	r2, [r3, #28]
 80063f8:	63de      	str	r6, [r3, #60]	; 0x3c
 80063fa:	621c      	str	r4, [r3, #32]
 80063fc:	69dc      	ldr	r4, [r3, #28]
 80063fe:	690d      	ldr	r5, [r1, #16]
 8006400:	f044 0408 	orr.w	r4, r4, #8
 8006404:	61dc      	str	r4, [r3, #28]
 8006406:	69d9      	ldr	r1, [r3, #28]
 8006408:	f021 0104 	bic.w	r1, r1, #4
 800640c:	61d9      	str	r1, [r3, #28]
 800640e:	69da      	ldr	r2, [r3, #28]
 8006410:	432a      	orrs	r2, r5
 8006412:	61da      	str	r2, [r3, #28]
 8006414:	e6ab      	b.n	800616e <HAL_TIM_PWM_ConfigChannel+0xc6>
 8006416:	2002      	movs	r0, #2
 8006418:	4770      	bx	lr
 800641a:	68ce      	ldr	r6, [r1, #12]
 800641c:	f024 0480 	bic.w	r4, r4, #128	; 0x80
 8006420:	ea44 1406 	orr.w	r4, r4, r6, lsl #4
 8006424:	f024 0440 	bic.w	r4, r4, #64	; 0x40
 8006428:	e714      	b.n	8006254 <HAL_TIM_PWM_ConfigChannel+0x1ac>
 800642a:	68ce      	ldr	r6, [r1, #12]
 800642c:	f424 6400 	bic.w	r4, r4, #2048	; 0x800
 8006430:	ea44 2406 	orr.w	r4, r4, r6, lsl #8
 8006434:	f424 6480 	bic.w	r4, r4, #1024	; 0x400
 8006438:	e7d4      	b.n	80063e4 <HAL_TIM_PWM_ConfigChannel+0x33c>
 800643a:	68ce      	ldr	r6, [r1, #12]
 800643c:	f424 4400 	bic.w	r4, r4, #32768	; 0x8000
 8006440:	ea44 3406 	orr.w	r4, r4, r6, lsl #12
 8006444:	f424 4480 	bic.w	r4, r4, #16384	; 0x4000
 8006448:	e748      	b.n	80062dc <HAL_TIM_PWM_ConfigChannel+0x234>
 800644a:	f506 6680 	add.w	r6, r6, #1024	; 0x400
 800644e:	42b3      	cmp	r3, r6
 8006450:	f43f ae70 	beq.w	8006134 <HAL_TIM_PWM_ConfigChannel+0x8c>
 8006454:	f506 6680 	add.w	r6, r6, #1024	; 0x400
 8006458:	42b3      	cmp	r3, r6
 800645a:	f47f ae77 	bne.w	800614c <HAL_TIM_PWM_ConfigChannel+0xa4>
 800645e:	e669      	b.n	8006134 <HAL_TIM_PWM_ConfigChannel+0x8c>
 8006460:	40012c00 	.word	0x40012c00

08006464 <HAL_TIM_SlaveConfigSynchro>:
 8006464:	f890 303c 	ldrb.w	r3, [r0, #60]	; 0x3c
 8006468:	2b01      	cmp	r3, #1
 800646a:	d04e      	beq.n	800650a <HAL_TIM_SlaveConfigSynchro+0xa6>
 800646c:	6802      	ldr	r2, [r0, #0]
 800646e:	2302      	movs	r3, #2
 8006470:	b4f0      	push	{r4, r5, r6, r7}
 8006472:	f880 303d 	strb.w	r3, [r0, #61]	; 0x3d
 8006476:	6893      	ldr	r3, [r2, #8]
 8006478:	4604      	mov	r4, r0
 800647a:	e9d1 5000 	ldrd	r5, r0, [r1]
 800647e:	f423 1340 	bic.w	r3, r3, #3145728	; 0x300000
 8006482:	f023 0370 	bic.w	r3, r3, #112	; 0x70
 8006486:	4303      	orrs	r3, r0
 8006488:	f423 3380 	bic.w	r3, r3, #65536	; 0x10000
 800648c:	f023 0307 	bic.w	r3, r3, #7
 8006490:	432b      	orrs	r3, r5
 8006492:	2601      	movs	r6, #1
 8006494:	2850      	cmp	r0, #80	; 0x50
 8006496:	f884 603c 	strb.w	r6, [r4, #60]	; 0x3c
 800649a:	6093      	str	r3, [r2, #8]
 800649c:	d052      	beq.n	8006544 <HAL_TIM_SlaveConfigSynchro+0xe0>
 800649e:	d91f      	bls.n	80064e0 <HAL_TIM_SlaveConfigSynchro+0x7c>
 80064a0:	2860      	cmp	r0, #96	; 0x60
 80064a2:	d03c      	beq.n	800651e <HAL_TIM_SlaveConfigSynchro+0xba>
 80064a4:	2870      	cmp	r0, #112	; 0x70
 80064a6:	d10a      	bne.n	80064be <HAL_TIM_SlaveConfigSynchro+0x5a>
 80064a8:	e9d1 5302 	ldrd	r5, r3, [r1, #8]
 80064ac:	6908      	ldr	r0, [r1, #16]
 80064ae:	6891      	ldr	r1, [r2, #8]
 80064b0:	432b      	orrs	r3, r5
 80064b2:	ea43 2300 	orr.w	r3, r3, r0, lsl #8
 80064b6:	f421 417f 	bic.w	r1, r1, #65280	; 0xff00
 80064ba:	430b      	orrs	r3, r1
 80064bc:	6093      	str	r3, [r2, #8]
 80064be:	68d3      	ldr	r3, [r2, #12]
 80064c0:	f023 0340 	bic.w	r3, r3, #64	; 0x40
 80064c4:	60d3      	str	r3, [r2, #12]
 80064c6:	68d3      	ldr	r3, [r2, #12]
 80064c8:	2501      	movs	r5, #1
 80064ca:	2100      	movs	r1, #0
 80064cc:	f423 4380 	bic.w	r3, r3, #16384	; 0x4000
 80064d0:	60d3      	str	r3, [r2, #12]
 80064d2:	4608      	mov	r0, r1
 80064d4:	f884 503d 	strb.w	r5, [r4, #61]	; 0x3d
 80064d8:	f884 103c 	strb.w	r1, [r4, #60]	; 0x3c
 80064dc:	bcf0      	pop	{r4, r5, r6, r7}
 80064de:	4770      	bx	lr
 80064e0:	2840      	cmp	r0, #64	; 0x40
 80064e2:	d1ec      	bne.n	80064be <HAL_TIM_SlaveConfigSynchro+0x5a>
 80064e4:	2d05      	cmp	r5, #5
 80064e6:	d012      	beq.n	800650e <HAL_TIM_SlaveConfigSynchro+0xaa>
 80064e8:	f1b5 1f01 	cmp.w	r5, #65537	; 0x10001
 80064ec:	d00f      	beq.n	800650e <HAL_TIM_SlaveConfigSynchro+0xaa>
 80064ee:	6a15      	ldr	r5, [r2, #32]
 80064f0:	6a10      	ldr	r0, [r2, #32]
 80064f2:	690e      	ldr	r6, [r1, #16]
 80064f4:	f020 0001 	bic.w	r0, r0, #1
 80064f8:	6210      	str	r0, [r2, #32]
 80064fa:	6993      	ldr	r3, [r2, #24]
 80064fc:	f023 03f0 	bic.w	r3, r3, #240	; 0xf0
 8006500:	ea43 1306 	orr.w	r3, r3, r6, lsl #4
 8006504:	6193      	str	r3, [r2, #24]
 8006506:	6215      	str	r5, [r2, #32]
 8006508:	e7d9      	b.n	80064be <HAL_TIM_SlaveConfigSynchro+0x5a>
 800650a:	2002      	movs	r0, #2
 800650c:	4770      	bx	lr
 800650e:	2001      	movs	r0, #1
 8006510:	2300      	movs	r3, #0
 8006512:	f884 003d 	strb.w	r0, [r4, #61]	; 0x3d
 8006516:	f884 303c 	strb.w	r3, [r4, #60]	; 0x3c
 800651a:	bcf0      	pop	{r4, r5, r6, r7}
 800651c:	4770      	bx	lr
 800651e:	6a10      	ldr	r0, [r2, #32]
 8006520:	688d      	ldr	r5, [r1, #8]
 8006522:	690e      	ldr	r6, [r1, #16]
 8006524:	f020 0010 	bic.w	r0, r0, #16
 8006528:	6210      	str	r0, [r2, #32]
 800652a:	6991      	ldr	r1, [r2, #24]
 800652c:	6a13      	ldr	r3, [r2, #32]
 800652e:	f421 4170 	bic.w	r1, r1, #61440	; 0xf000
 8006532:	f023 03a0 	bic.w	r3, r3, #160	; 0xa0
 8006536:	ea41 3106 	orr.w	r1, r1, r6, lsl #12
 800653a:	ea43 1305 	orr.w	r3, r3, r5, lsl #4
 800653e:	6191      	str	r1, [r2, #24]
 8006540:	6213      	str	r3, [r2, #32]
 8006542:	e7bc      	b.n	80064be <HAL_TIM_SlaveConfigSynchro+0x5a>
 8006544:	6a15      	ldr	r5, [r2, #32]
 8006546:	6a16      	ldr	r6, [r2, #32]
 8006548:	6888      	ldr	r0, [r1, #8]
 800654a:	690f      	ldr	r7, [r1, #16]
 800654c:	f026 0601 	bic.w	r6, r6, #1
 8006550:	6216      	str	r6, [r2, #32]
 8006552:	6993      	ldr	r3, [r2, #24]
 8006554:	f025 010a 	bic.w	r1, r5, #10
 8006558:	f023 03f0 	bic.w	r3, r3, #240	; 0xf0
 800655c:	4301      	orrs	r1, r0
 800655e:	ea43 1307 	orr.w	r3, r3, r7, lsl #4
 8006562:	6193      	str	r3, [r2, #24]
 8006564:	6211      	str	r1, [r2, #32]
 8006566:	e7aa      	b.n	80064be <HAL_TIM_SlaveConfigSynchro+0x5a>

08006568 <HAL_TIMEx_MasterConfigSynchronization>:
 8006568:	f890 303c 	ldrb.w	r3, [r0, #60]	; 0x3c
 800656c:	2b01      	cmp	r3, #1
 800656e:	d027      	beq.n	80065c0 <HAL_TIMEx_MasterConfigSynchronization+0x58>
 8006570:	b470      	push	{r4, r5, r6}
 8006572:	6802      	ldr	r2, [r0, #0]
 8006574:	4d14      	ldr	r5, [pc, #80]	; (80065c8 <HAL_TIMEx_MasterConfigSynchronization+0x60>)
 8006576:	2302      	movs	r3, #2
 8006578:	f880 303d 	strb.w	r3, [r0, #61]	; 0x3d
 800657c:	42aa      	cmp	r2, r5
 800657e:	6853      	ldr	r3, [r2, #4]
 8006580:	6894      	ldr	r4, [r2, #8]
 8006582:	d018      	beq.n	80065b6 <HAL_TIMEx_MasterConfigSynchronization+0x4e>
 8006584:	f505 6500 	add.w	r5, r5, #2048	; 0x800
 8006588:	42aa      	cmp	r2, r5
 800658a:	d014      	beq.n	80065b6 <HAL_TIMEx_MasterConfigSynchronization+0x4e>
 800658c:	680e      	ldr	r6, [r1, #0]
 800658e:	688d      	ldr	r5, [r1, #8]
 8006590:	f023 7300 	bic.w	r3, r3, #33554432	; 0x2000000
 8006594:	f024 0180 	bic.w	r1, r4, #128	; 0x80
 8006598:	f023 0370 	bic.w	r3, r3, #112	; 0x70
 800659c:	2400      	movs	r4, #0
 800659e:	4333      	orrs	r3, r6
 80065a0:	4329      	orrs	r1, r5
 80065a2:	2501      	movs	r5, #1
 80065a4:	6053      	str	r3, [r2, #4]
 80065a6:	6091      	str	r1, [r2, #8]
 80065a8:	f880 503d 	strb.w	r5, [r0, #61]	; 0x3d
 80065ac:	f880 403c 	strb.w	r4, [r0, #60]	; 0x3c
 80065b0:	4620      	mov	r0, r4
 80065b2:	bc70      	pop	{r4, r5, r6}
 80065b4:	4770      	bx	lr
 80065b6:	684d      	ldr	r5, [r1, #4]
 80065b8:	f423 0370 	bic.w	r3, r3, #15728640	; 0xf00000
 80065bc:	432b      	orrs	r3, r5
 80065be:	e7e5      	b.n	800658c <HAL_TIMEx_MasterConfigSynchronization+0x24>
 80065c0:	2302      	movs	r3, #2
 80065c2:	4618      	mov	r0, r3
 80065c4:	4770      	bx	lr
 80065c6:	bf00      	nop
 80065c8:	40012c00 	.word	0x40012c00

080065cc <HAL_TIMEx_ConfigBreakDeadTime>:
 80065cc:	f890 303c 	ldrb.w	r3, [r0, #60]	; 0x3c
 80065d0:	2b01      	cmp	r3, #1
 80065d2:	d044      	beq.n	800665e <HAL_TIMEx_ConfigBreakDeadTime+0x92>
 80065d4:	b430      	push	{r4, r5}
 80065d6:	e9d1 5302 	ldrd	r5, r3, [r1, #8]
 80065da:	4602      	mov	r2, r0
 80065dc:	f423 7340 	bic.w	r3, r3, #768	; 0x300
 80065e0:	e9d1 0400 	ldrd	r0, r4, [r1]
 80065e4:	432b      	orrs	r3, r5
 80065e6:	f423 6380 	bic.w	r3, r3, #1024	; 0x400
 80065ea:	4323      	orrs	r3, r4
 80065ec:	f423 6300 	bic.w	r3, r3, #2048	; 0x800
 80065f0:	e9d1 5404 	ldrd	r5, r4, [r1, #16]
 80065f4:	4303      	orrs	r3, r0
 80065f6:	f423 5380 	bic.w	r3, r3, #4096	; 0x1000
 80065fa:	432b      	orrs	r3, r5
 80065fc:	f423 5300 	bic.w	r3, r3, #8192	; 0x2000
 8006600:	6b08      	ldr	r0, [r1, #48]	; 0x30
 8006602:	698d      	ldr	r5, [r1, #24]
 8006604:	4323      	orrs	r3, r4
 8006606:	f423 4380 	bic.w	r3, r3, #16384	; 0x4000
 800660a:	4303      	orrs	r3, r0
 800660c:	4c15      	ldr	r4, [pc, #84]	; (8006664 <HAL_TIMEx_ConfigBreakDeadTime+0x98>)
 800660e:	6810      	ldr	r0, [r2, #0]
 8006610:	f423 2370 	bic.w	r3, r3, #983040	; 0xf0000
 8006614:	42a0      	cmp	r0, r4
 8006616:	ea43 4305 	orr.w	r3, r3, r5, lsl #16
 800661a:	d00a      	beq.n	8006632 <HAL_TIMEx_ConfigBreakDeadTime+0x66>
 800661c:	f504 6400 	add.w	r4, r4, #2048	; 0x800
 8006620:	42a0      	cmp	r0, r4
 8006622:	d006      	beq.n	8006632 <HAL_TIMEx_ConfigBreakDeadTime+0x66>
 8006624:	2100      	movs	r1, #0
 8006626:	6443      	str	r3, [r0, #68]	; 0x44
 8006628:	bc30      	pop	{r4, r5}
 800662a:	4608      	mov	r0, r1
 800662c:	f882 103c 	strb.w	r1, [r2, #60]	; 0x3c
 8006630:	4770      	bx	lr
 8006632:	69cd      	ldr	r5, [r1, #28]
 8006634:	6a8c      	ldr	r4, [r1, #40]	; 0x28
 8006636:	f023 5380 	bic.w	r3, r3, #268435456	; 0x10000000
 800663a:	432b      	orrs	r3, r5
 800663c:	f423 0370 	bic.w	r3, r3, #15728640	; 0xf00000
 8006640:	ea43 5304 	orr.w	r3, r3, r4, lsl #20
 8006644:	e9d1 5408 	ldrd	r5, r4, [r1, #32]
 8006648:	f023 7380 	bic.w	r3, r3, #16777216	; 0x1000000
 800664c:	432b      	orrs	r3, r5
 800664e:	f023 7300 	bic.w	r3, r3, #33554432	; 0x2000000
 8006652:	4323      	orrs	r3, r4
 8006654:	6ac9      	ldr	r1, [r1, #44]	; 0x2c
 8006656:	f023 5300 	bic.w	r3, r3, #536870912	; 0x20000000
 800665a:	430b      	orrs	r3, r1
 800665c:	e7e2      	b.n	8006624 <HAL_TIMEx_ConfigBreakDeadTime+0x58>
 800665e:	2002      	movs	r0, #2
 8006660:	4770      	bx	lr
 8006662:	bf00      	nop
 8006664:	40012c00 	.word	0x40012c00

08006668 <HAL_TIMEx_ConfigBreakInput>:
 8006668:	f890 303c 	ldrb.w	r3, [r0, #60]	; 0x3c
 800666c:	2b01      	cmp	r3, #1
 800666e:	d04a      	beq.n	8006706 <HAL_TIMEx_ConfigBreakInput+0x9e>
 8006670:	6813      	ldr	r3, [r2, #0]
 8006672:	3b01      	subs	r3, #1
 8006674:	b4f0      	push	{r4, r5, r6, r7}
 8006676:	2b0f      	cmp	r3, #15
 8006678:	f04f 0401 	mov.w	r4, #1
 800667c:	f880 403c 	strb.w	r4, [r0, #60]	; 0x3c
 8006680:	d91d      	bls.n	80066be <HAL_TIMEx_ConfigBreakInput+0x56>
 8006682:	2500      	movs	r5, #0
 8006684:	2901      	cmp	r1, #1
 8006686:	462f      	mov	r7, r5
 8006688:	462c      	mov	r4, r5
 800668a:	462e      	mov	r6, r5
 800668c:	d025      	beq.n	80066da <HAL_TIMEx_ConfigBreakInput+0x72>
 800668e:	2902      	cmp	r1, #2
 8006690:	d10f      	bne.n	80066b2 <HAL_TIMEx_ConfigBreakInput+0x4a>
 8006692:	6801      	ldr	r1, [r0, #0]
 8006694:	6853      	ldr	r3, [r2, #4]
 8006696:	f8d1 c064 	ldr.w	ip, [r1, #100]	; 0x64
 800669a:	6892      	ldr	r2, [r2, #8]
 800669c:	40bb      	lsls	r3, r7
 800669e:	ea83 030c 	eor.w	r3, r3, ip
 80066a2:	4033      	ands	r3, r6
 80066a4:	ea83 030c 	eor.w	r3, r3, ip
 80066a8:	40aa      	lsls	r2, r5
 80066aa:	405a      	eors	r2, r3
 80066ac:	4022      	ands	r2, r4
 80066ae:	4053      	eors	r3, r2
 80066b0:	664b      	str	r3, [r1, #100]	; 0x64
 80066b2:	2300      	movs	r3, #0
 80066b4:	f880 303c 	strb.w	r3, [r0, #60]	; 0x3c
 80066b8:	bcf0      	pop	{r4, r5, r6, r7}
 80066ba:	4618      	mov	r0, r3
 80066bc:	4770      	bx	lr
 80066be:	4e13      	ldr	r6, [pc, #76]	; (800670c <HAL_TIMEx_ConfigBreakInput+0xa4>)
 80066c0:	4c13      	ldr	r4, [pc, #76]	; (8006710 <HAL_TIMEx_ConfigBreakInput+0xa8>)
 80066c2:	4f14      	ldr	r7, [pc, #80]	; (8006714 <HAL_TIMEx_ConfigBreakInput+0xac>)
 80066c4:	4d14      	ldr	r5, [pc, #80]	; (8006718 <HAL_TIMEx_ConfigBreakInput+0xb0>)
 80066c6:	f856 6023 	ldr.w	r6, [r6, r3, lsl #2]
 80066ca:	f854 4023 	ldr.w	r4, [r4, r3, lsl #2]
 80066ce:	f857 7023 	ldr.w	r7, [r7, r3, lsl #2]
 80066d2:	f855 5023 	ldr.w	r5, [r5, r3, lsl #2]
 80066d6:	2901      	cmp	r1, #1
 80066d8:	d1d9      	bne.n	800668e <HAL_TIMEx_ConfigBreakInput+0x26>
 80066da:	6801      	ldr	r1, [r0, #0]
 80066dc:	6853      	ldr	r3, [r2, #4]
 80066de:	f8d1 c060 	ldr.w	ip, [r1, #96]	; 0x60
 80066e2:	6892      	ldr	r2, [r2, #8]
 80066e4:	40bb      	lsls	r3, r7
 80066e6:	ea83 030c 	eor.w	r3, r3, ip
 80066ea:	4033      	ands	r3, r6
 80066ec:	ea83 030c 	eor.w	r3, r3, ip
 80066f0:	40aa      	lsls	r2, r5
 80066f2:	405a      	eors	r2, r3
 80066f4:	4022      	ands	r2, r4
 80066f6:	4053      	eors	r3, r2
 80066f8:	660b      	str	r3, [r1, #96]	; 0x60
 80066fa:	2300      	movs	r3, #0
 80066fc:	f880 303c 	strb.w	r3, [r0, #60]	; 0x3c
 8006700:	bcf0      	pop	{r4, r5, r6, r7}
 8006702:	4618      	mov	r0, r3
 8006704:	4770      	bx	lr
 8006706:	2002      	movs	r0, #2
 8006708:	4770      	bx	lr
 800670a:	bf00      	nop
 800670c:	08009dc8 	.word	0x08009dc8
 8006710:	08009e08 	.word	0x08009e08
 8006714:	08009e48 	.word	0x08009e48
 8006718:	08009e88 	.word	0x08009e88

0800671c <UART_AdvFeatureConfig>:
 800671c:	6a83      	ldr	r3, [r0, #40]	; 0x28
 800671e:	07da      	lsls	r2, r3, #31
 8006720:	b410      	push	{r4}
 8006722:	d506      	bpl.n	8006732 <UART_AdvFeatureConfig+0x16>
 8006724:	6801      	ldr	r1, [r0, #0]
 8006726:	6ac4      	ldr	r4, [r0, #44]	; 0x2c
 8006728:	684a      	ldr	r2, [r1, #4]
 800672a:	f422 3200 	bic.w	r2, r2, #131072	; 0x20000
 800672e:	4322      	orrs	r2, r4
 8006730:	604a      	str	r2, [r1, #4]
 8006732:	079c      	lsls	r4, r3, #30
 8006734:	d506      	bpl.n	8006744 <UART_AdvFeatureConfig+0x28>
 8006736:	6801      	ldr	r1, [r0, #0]
 8006738:	6b04      	ldr	r4, [r0, #48]	; 0x30
 800673a:	684a      	ldr	r2, [r1, #4]
 800673c:	f422 3280 	bic.w	r2, r2, #65536	; 0x10000
 8006740:	4322      	orrs	r2, r4
 8006742:	604a      	str	r2, [r1, #4]
 8006744:	0759      	lsls	r1, r3, #29
 8006746:	d506      	bpl.n	8006756 <UART_AdvFeatureConfig+0x3a>
 8006748:	6801      	ldr	r1, [r0, #0]
 800674a:	6b44      	ldr	r4, [r0, #52]	; 0x34
 800674c:	684a      	ldr	r2, [r1, #4]
 800674e:	f422 2280 	bic.w	r2, r2, #262144	; 0x40000
 8006752:	4322      	orrs	r2, r4
 8006754:	604a      	str	r2, [r1, #4]
 8006756:	071a      	lsls	r2, r3, #28
 8006758:	d506      	bpl.n	8006768 <UART_AdvFeatureConfig+0x4c>
 800675a:	6801      	ldr	r1, [r0, #0]
 800675c:	6b84      	ldr	r4, [r0, #56]	; 0x38
 800675e:	684a      	ldr	r2, [r1, #4]
 8006760:	f422 4200 	bic.w	r2, r2, #32768	; 0x8000
 8006764:	4322      	orrs	r2, r4
 8006766:	604a      	str	r2, [r1, #4]
 8006768:	06dc      	lsls	r4, r3, #27
 800676a:	d506      	bpl.n	800677a <UART_AdvFeatureConfig+0x5e>
 800676c:	6801      	ldr	r1, [r0, #0]
 800676e:	6bc4      	ldr	r4, [r0, #60]	; 0x3c
 8006770:	688a      	ldr	r2, [r1, #8]
 8006772:	f422 5280 	bic.w	r2, r2, #4096	; 0x1000
 8006776:	4322      	orrs	r2, r4
 8006778:	608a      	str	r2, [r1, #8]
 800677a:	0699      	lsls	r1, r3, #26
 800677c:	d506      	bpl.n	800678c <UART_AdvFeatureConfig+0x70>
 800677e:	6801      	ldr	r1, [r0, #0]
 8006780:	6c04      	ldr	r4, [r0, #64]	; 0x40
 8006782:	688a      	ldr	r2, [r1, #8]
 8006784:	f422 5200 	bic.w	r2, r2, #8192	; 0x2000
 8006788:	4322      	orrs	r2, r4
 800678a:	608a      	str	r2, [r1, #8]
 800678c:	065a      	lsls	r2, r3, #25
 800678e:	d509      	bpl.n	80067a4 <UART_AdvFeatureConfig+0x88>
 8006790:	6801      	ldr	r1, [r0, #0]
 8006792:	6c44      	ldr	r4, [r0, #68]	; 0x44
 8006794:	684a      	ldr	r2, [r1, #4]
 8006796:	f422 1280 	bic.w	r2, r2, #1048576	; 0x100000
 800679a:	4322      	orrs	r2, r4
 800679c:	f5b4 1f80 	cmp.w	r4, #1048576	; 0x100000
 80067a0:	604a      	str	r2, [r1, #4]
 80067a2:	d00b      	beq.n	80067bc <UART_AdvFeatureConfig+0xa0>
 80067a4:	061b      	lsls	r3, r3, #24
 80067a6:	d506      	bpl.n	80067b6 <UART_AdvFeatureConfig+0x9a>
 80067a8:	6802      	ldr	r2, [r0, #0]
 80067aa:	6cc1      	ldr	r1, [r0, #76]	; 0x4c
 80067ac:	6853      	ldr	r3, [r2, #4]
 80067ae:	f423 2300 	bic.w	r3, r3, #524288	; 0x80000
 80067b2:	430b      	orrs	r3, r1
 80067b4:	6053      	str	r3, [r2, #4]
 80067b6:	f85d 4b04 	ldr.w	r4, [sp], #4
 80067ba:	4770      	bx	lr
 80067bc:	684a      	ldr	r2, [r1, #4]
 80067be:	6c84      	ldr	r4, [r0, #72]	; 0x48
 80067c0:	f422 02c0 	bic.w	r2, r2, #6291456	; 0x600000
 80067c4:	4322      	orrs	r2, r4
 80067c6:	604a      	str	r2, [r1, #4]
 80067c8:	e7ec      	b.n	80067a4 <UART_AdvFeatureConfig+0x88>
 80067ca:	bf00      	nop
 80067cc:	0000      	movs	r0, r0
	...

080067d0 <HAL_UART_Init>:
 80067d0:	2800      	cmp	r0, #0
 80067d2:	f000 8267 	beq.w	8006ca4 <HAL_UART_Init+0x4d4>
 80067d6:	f8d0 3080 	ldr.w	r3, [r0, #128]	; 0x80
 80067da:	e92d 48f0 	stmdb	sp!, {r4, r5, r6, r7, fp, lr}
 80067de:	4604      	mov	r4, r0
 80067e0:	2b00      	cmp	r3, #0
 80067e2:	d046      	beq.n	8006872 <HAL_UART_Init+0xa2>
 80067e4:	6823      	ldr	r3, [r4, #0]
 80067e6:	48b8      	ldr	r0, [pc, #736]	; (8006ac8 <HAL_UART_Init+0x2f8>)
 80067e8:	2224      	movs	r2, #36	; 0x24
 80067ea:	f8c4 2080 	str.w	r2, [r4, #128]	; 0x80
 80067ee:	e9d4 6504 	ldrd	r6, r5, [r4, #16]
 80067f2:	6819      	ldr	r1, [r3, #0]
 80067f4:	68a2      	ldr	r2, [r4, #8]
 80067f6:	f021 0101 	bic.w	r1, r1, #1
 80067fa:	6019      	str	r1, [r3, #0]
 80067fc:	4332      	orrs	r2, r6
 80067fe:	69e1      	ldr	r1, [r4, #28]
 8006800:	681e      	ldr	r6, [r3, #0]
 8006802:	432a      	orrs	r2, r5
 8006804:	6e65      	ldr	r5, [r4, #100]	; 0x64
 8006806:	430a      	orrs	r2, r1
 8006808:	4030      	ands	r0, r6
 800680a:	432a      	orrs	r2, r5
 800680c:	4302      	orrs	r2, r0
 800680e:	601a      	str	r2, [r3, #0]
 8006810:	685a      	ldr	r2, [r3, #4]
 8006812:	68e5      	ldr	r5, [r4, #12]
 8006814:	48ad      	ldr	r0, [pc, #692]	; (8006acc <HAL_UART_Init+0x2fc>)
 8006816:	69a6      	ldr	r6, [r4, #24]
 8006818:	f422 5240 	bic.w	r2, r2, #12288	; 0x3000
 800681c:	432a      	orrs	r2, r5
 800681e:	4283      	cmp	r3, r0
 8006820:	605a      	str	r2, [r3, #4]
 8006822:	6a65      	ldr	r5, [r4, #36]	; 0x24
 8006824:	d02a      	beq.n	800687c <HAL_UART_Init+0xac>
 8006826:	6898      	ldr	r0, [r3, #8]
 8006828:	6a22      	ldr	r2, [r4, #32]
 800682a:	4fa9      	ldr	r7, [pc, #676]	; (8006ad0 <HAL_UART_Init+0x300>)
 800682c:	f020 406e 	bic.w	r0, r0, #3992977408	; 0xee000000
 8006830:	f420 6030 	bic.w	r0, r0, #2816	; 0xb00
 8006834:	4332      	orrs	r2, r6
 8006836:	4302      	orrs	r2, r0
 8006838:	609a      	str	r2, [r3, #8]
 800683a:	6ada      	ldr	r2, [r3, #44]	; 0x2c
 800683c:	f022 020f 	bic.w	r2, r2, #15
 8006840:	432a      	orrs	r2, r5
 8006842:	42bb      	cmp	r3, r7
 8006844:	62da      	str	r2, [r3, #44]	; 0x2c
 8006846:	d07d      	beq.n	8006944 <HAL_UART_Init+0x174>
 8006848:	4aa2      	ldr	r2, [pc, #648]	; (8006ad4 <HAL_UART_Init+0x304>)
 800684a:	4293      	cmp	r3, r2
 800684c:	f000 8093 	beq.w	8006976 <HAL_UART_Init+0x1a6>
 8006850:	4aa1      	ldr	r2, [pc, #644]	; (8006ad8 <HAL_UART_Init+0x308>)
 8006852:	4293      	cmp	r3, r2
 8006854:	f000 814a 	beq.w	8006aec <HAL_UART_Init+0x31c>
 8006858:	4aa0      	ldr	r2, [pc, #640]	; (8006adc <HAL_UART_Init+0x30c>)
 800685a:	4293      	cmp	r3, r2
 800685c:	f000 8184 	beq.w	8006b68 <HAL_UART_Init+0x398>
 8006860:	2300      	movs	r3, #0
 8006862:	f04f 1201 	mov.w	r2, #65537	; 0x10001
 8006866:	e9c4 231a 	strd	r2, r3, [r4, #104]	; 0x68
 800686a:	6723      	str	r3, [r4, #112]	; 0x70
 800686c:	2001      	movs	r0, #1
 800686e:	e8bd 88f0 	ldmia.w	sp!, {r4, r5, r6, r7, fp, pc}
 8006872:	f880 307c 	strb.w	r3, [r0, #124]	; 0x7c
 8006876:	f7fc fa73 	bl	8002d60 <HAL_UART_MspInit>
 800687a:	e7b3      	b.n	80067e4 <HAL_UART_Init+0x14>
 800687c:	6899      	ldr	r1, [r3, #8]
 800687e:	4898      	ldr	r0, [pc, #608]	; (8006ae0 <HAL_UART_Init+0x310>)
 8006880:	f021 416e 	bic.w	r1, r1, #3992977408	; 0xee000000
 8006884:	f421 6130 	bic.w	r1, r1, #2816	; 0xb00
 8006888:	4331      	orrs	r1, r6
 800688a:	6099      	str	r1, [r3, #8]
 800688c:	6ada      	ldr	r2, [r3, #44]	; 0x2c
 800688e:	f022 020f 	bic.w	r2, r2, #15
 8006892:	432a      	orrs	r2, r5
 8006894:	62da      	str	r2, [r3, #44]	; 0x2c
 8006896:	f8d0 3088 	ldr.w	r3, [r0, #136]	; 0x88
 800689a:	f403 6340 	and.w	r3, r3, #3072	; 0xc00
 800689e:	f5b3 6f80 	cmp.w	r3, #1024	; 0x400
 80068a2:	f000 8233 	beq.w	8006d0c <HAL_UART_Init+0x53c>
 80068a6:	f240 81ff 	bls.w	8006ca8 <HAL_UART_Init+0x4d8>
 80068aa:	f5b3 6f00 	cmp.w	r3, #2048	; 0x800
 80068ae:	f000 8370 	beq.w	8006f92 <HAL_UART_Init+0x7c2>
 80068b2:	f5b3 6f40 	cmp.w	r3, #3072	; 0xc00
 80068b6:	d1d3      	bne.n	8006860 <HAL_UART_Init+0x90>
 80068b8:	2d00      	cmp	r5, #0
 80068ba:	f000 8394 	beq.w	8006fe6 <HAL_UART_Init+0x816>
 80068be:	2d01      	cmp	r5, #1
 80068c0:	f000 83b5 	beq.w	800702e <HAL_UART_Init+0x85e>
 80068c4:	2d02      	cmp	r5, #2
 80068c6:	f000 83c4 	beq.w	8007052 <HAL_UART_Init+0x882>
 80068ca:	2d03      	cmp	r5, #3
 80068cc:	f000 83e6 	beq.w	800709c <HAL_UART_Init+0x8cc>
 80068d0:	2d04      	cmp	r5, #4
 80068d2:	f000 83fa 	beq.w	80070ca <HAL_UART_Init+0x8fa>
 80068d6:	2d05      	cmp	r5, #5
 80068d8:	f000 8412 	beq.w	8007100 <HAL_UART_Init+0x930>
 80068dc:	2d06      	cmp	r5, #6
 80068de:	f000 843b 	beq.w	8007158 <HAL_UART_Init+0x988>
 80068e2:	2d07      	cmp	r5, #7
 80068e4:	f000 8484 	beq.w	80071f0 <HAL_UART_Init+0xa20>
 80068e8:	2d08      	cmp	r5, #8
 80068ea:	f000 84a8 	beq.w	800723e <HAL_UART_Init+0xa6e>
 80068ee:	2d09      	cmp	r5, #9
 80068f0:	f000 84ae 	beq.w	8007250 <HAL_UART_Init+0xa80>
 80068f4:	2d0a      	cmp	r5, #10
 80068f6:	f000 84ef 	beq.w	80072d8 <HAL_UART_Init+0xb08>
 80068fa:	2d0b      	cmp	r5, #11
 80068fc:	bf0c      	ite	eq
 80068fe:	2080      	moveq	r0, #128	; 0x80
 8006900:	f44f 4000 	movne.w	r0, #32768	; 0x8000
 8006904:	2308      	movs	r3, #8
 8006906:	6862      	ldr	r2, [r4, #4]
 8006908:	eb02 0142 	add.w	r1, r2, r2, lsl #1
 800690c:	4281      	cmp	r1, r0
 800690e:	d8a7      	bhi.n	8006860 <HAL_UART_Init+0x90>
 8006910:	ebb0 3f02 	cmp.w	r0, r2, lsl #12
 8006914:	d8a4      	bhi.n	8006860 <HAL_UART_Init+0x90>
 8006916:	2b08      	cmp	r3, #8
 8006918:	d8a2      	bhi.n	8006860 <HAL_UART_Init+0x90>
 800691a:	a101      	add	r1, pc, #4	; (adr r1, 8006920 <HAL_UART_Init+0x150>)
 800691c:	f851 f023 	ldr.w	pc, [r1, r3, lsl #2]
 8006920:	08006f15 	.word	0x08006f15
 8006924:	08006861 	.word	0x08006861
 8006928:	08006ec9 	.word	0x08006ec9
 800692c:	08006861 	.word	0x08006861
 8006930:	08006f87 	.word	0x08006f87
 8006934:	08006861 	.word	0x08006861
 8006938:	08006861 	.word	0x08006861
 800693c:	08006861 	.word	0x08006861
 8006940:	08006e51 	.word	0x08006e51
 8006944:	4b66      	ldr	r3, [pc, #408]	; (8006ae0 <HAL_UART_Init+0x310>)
 8006946:	4a67      	ldr	r2, [pc, #412]	; (8006ae4 <HAL_UART_Init+0x314>)
 8006948:	f8d3 3088 	ldr.w	r3, [r3, #136]	; 0x88
 800694c:	f003 0303 	and.w	r3, r3, #3
 8006950:	5cd3      	ldrb	r3, [r2, r3]
 8006952:	f5b1 4f00 	cmp.w	r1, #32768	; 0x8000
 8006956:	f000 818c 	beq.w	8006c72 <HAL_UART_Init+0x4a2>
 800695a:	2b08      	cmp	r3, #8
 800695c:	f200 8316 	bhi.w	8006f8c <HAL_UART_Init+0x7bc>
 8006960:	e8df f013 	tbh	[pc, r3, lsl #1]
 8006964:	001100ab 	.word	0x001100ab
 8006968:	031400d3 	.word	0x031400d3
 800696c:	03140084 	.word	0x03140084
 8006970:	03140314 	.word	0x03140314
 8006974:	0114      	.short	0x0114
 8006976:	4b5a      	ldr	r3, [pc, #360]	; (8006ae0 <HAL_UART_Init+0x310>)
 8006978:	4a5b      	ldr	r2, [pc, #364]	; (8006ae8 <HAL_UART_Init+0x318>)
 800697a:	f8d3 3088 	ldr.w	r3, [r3, #136]	; 0x88
 800697e:	f003 030c 	and.w	r3, r3, #12
 8006982:	5cd3      	ldrb	r3, [r2, r3]
 8006984:	e7e5      	b.n	8006952 <HAL_UART_Init+0x182>
 8006986:	f7fe ffcf 	bl	8005928 <HAL_RCC_GetPCLK2Freq>
 800698a:	6a63      	ldr	r3, [r4, #36]	; 0x24
 800698c:	2b00      	cmp	r3, #0
 800698e:	d172      	bne.n	8006a76 <HAL_UART_Init+0x2a6>
 8006990:	6861      	ldr	r1, [r4, #4]
 8006992:	2200      	movs	r2, #0
 8006994:	eb00 0351 	add.w	r3, r0, r1, lsr #1
 8006998:	fbb3 f3f1 	udiv	r3, r3, r1
 800699c:	b29b      	uxth	r3, r3
 800699e:	f1a3 0010 	sub.w	r0, r3, #16
 80069a2:	f64f 71ef 	movw	r1, #65519	; 0xffef
 80069a6:	4288      	cmp	r0, r1
 80069a8:	f63f af5a 	bhi.w	8006860 <HAL_UART_Init+0x90>
 80069ac:	6825      	ldr	r5, [r4, #0]
 80069ae:	2100      	movs	r1, #0
 80069b0:	f04f 1001 	mov.w	r0, #65537	; 0x10001
 80069b4:	60eb      	str	r3, [r5, #12]
 80069b6:	e9c4 011a 	strd	r0, r1, [r4, #104]	; 0x68
 80069ba:	6721      	str	r1, [r4, #112]	; 0x70
 80069bc:	2a00      	cmp	r2, #0
 80069be:	f47f af55 	bne.w	800686c <HAL_UART_Init+0x9c>
 80069c2:	6aa3      	ldr	r3, [r4, #40]	; 0x28
 80069c4:	2b00      	cmp	r3, #0
 80069c6:	f040 8150 	bne.w	8006c6a <HAL_UART_Init+0x49a>
 80069ca:	6823      	ldr	r3, [r4, #0]
 80069cc:	685a      	ldr	r2, [r3, #4]
 80069ce:	f422 4290 	bic.w	r2, r2, #18432	; 0x4800
 80069d2:	605a      	str	r2, [r3, #4]
 80069d4:	689a      	ldr	r2, [r3, #8]
 80069d6:	f022 022a 	bic.w	r2, r2, #42	; 0x2a
 80069da:	609a      	str	r2, [r3, #8]
 80069dc:	681a      	ldr	r2, [r3, #0]
 80069de:	2100      	movs	r1, #0
 80069e0:	f042 0201 	orr.w	r2, r2, #1
 80069e4:	601a      	str	r2, [r3, #0]
 80069e6:	f8c4 1088 	str.w	r1, [r4, #136]	; 0x88
 80069ea:	f7fd f927 	bl	8003c3c <HAL_GetTick>
 80069ee:	6823      	ldr	r3, [r4, #0]
 80069f0:	681a      	ldr	r2, [r3, #0]
 80069f2:	0711      	lsls	r1, r2, #28
 80069f4:	4606      	mov	r6, r0
 80069f6:	d40c      	bmi.n	8006a12 <HAL_UART_Init+0x242>
 80069f8:	681a      	ldr	r2, [r3, #0]
 80069fa:	0752      	lsls	r2, r2, #29
 80069fc:	d426      	bmi.n	8006a4c <HAL_UART_Init+0x27c>
 80069fe:	2320      	movs	r3, #32
 8006a00:	2000      	movs	r0, #0
 8006a02:	f8c4 3080 	str.w	r3, [r4, #128]	; 0x80
 8006a06:	f884 007c 	strb.w	r0, [r4, #124]	; 0x7c
 8006a0a:	f8c4 3084 	str.w	r3, [r4, #132]	; 0x84
 8006a0e:	e8bd 88f0 	ldmia.w	sp!, {r4, r5, r6, r7, fp, pc}
 8006a12:	69dd      	ldr	r5, [r3, #28]
 8006a14:	f415 1500 	ands.w	r5, r5, #2097152	; 0x200000
 8006a18:	d1ee      	bne.n	80069f8 <HAL_UART_Init+0x228>
 8006a1a:	f7fd f90f 	bl	8003c3c <HAL_GetTick>
 8006a1e:	1b80      	subs	r0, r0, r6
 8006a20:	f1b0 7f00 	cmp.w	r0, #33554432	; 0x2000000
 8006a24:	6823      	ldr	r3, [r4, #0]
 8006a26:	d3f4      	bcc.n	8006a12 <HAL_UART_Init+0x242>
 8006a28:	681a      	ldr	r2, [r3, #0]
 8006a2a:	f422 72d0 	bic.w	r2, r2, #416	; 0x1a0
 8006a2e:	601a      	str	r2, [r3, #0]
 8006a30:	689a      	ldr	r2, [r3, #8]
 8006a32:	2120      	movs	r1, #32
 8006a34:	f022 0201 	bic.w	r2, r2, #1
 8006a38:	609a      	str	r2, [r3, #8]
 8006a3a:	2003      	movs	r0, #3
 8006a3c:	f8c4 1080 	str.w	r1, [r4, #128]	; 0x80
 8006a40:	f884 507c 	strb.w	r5, [r4, #124]	; 0x7c
 8006a44:	f8c4 1084 	str.w	r1, [r4, #132]	; 0x84
 8006a48:	e8bd 88f0 	ldmia.w	sp!, {r4, r5, r6, r7, fp, pc}
 8006a4c:	69dd      	ldr	r5, [r3, #28]
 8006a4e:	f415 0580 	ands.w	r5, r5, #4194304	; 0x400000
 8006a52:	d1d4      	bne.n	80069fe <HAL_UART_Init+0x22e>
 8006a54:	f7fd f8f2 	bl	8003c3c <HAL_GetTick>
 8006a58:	1b80      	subs	r0, r0, r6
 8006a5a:	f1b0 7f00 	cmp.w	r0, #33554432	; 0x2000000
 8006a5e:	6823      	ldr	r3, [r4, #0]
 8006a60:	d3f4      	bcc.n	8006a4c <HAL_UART_Init+0x27c>
 8006a62:	e7e1      	b.n	8006a28 <HAL_UART_Init+0x258>
 8006a64:	f5b1 4f00 	cmp.w	r1, #32768	; 0x8000
 8006a68:	f000 818c 	beq.w	8006d84 <HAL_UART_Init+0x5b4>
 8006a6c:	f7fe ff0c 	bl	8005888 <HAL_RCC_GetSysClockFreq>
 8006a70:	6a63      	ldr	r3, [r4, #36]	; 0x24
 8006a72:	2b00      	cmp	r3, #0
 8006a74:	d08c      	beq.n	8006990 <HAL_UART_Init+0x1c0>
 8006a76:	2b01      	cmp	r3, #1
 8006a78:	f000 82b0 	beq.w	8006fdc <HAL_UART_Init+0x80c>
 8006a7c:	2b02      	cmp	r3, #2
 8006a7e:	f000 817f 	beq.w	8006d80 <HAL_UART_Init+0x5b0>
 8006a82:	2b03      	cmp	r3, #3
 8006a84:	f000 8179 	beq.w	8006d7a <HAL_UART_Init+0x5aa>
 8006a88:	2b04      	cmp	r3, #4
 8006a8a:	f000 82ba 	beq.w	8007002 <HAL_UART_Init+0x832>
 8006a8e:	2b05      	cmp	r3, #5
 8006a90:	f000 82b4 	beq.w	8006ffc <HAL_UART_Init+0x82c>
 8006a94:	2b06      	cmp	r3, #6
 8006a96:	f000 82ef 	beq.w	8007078 <HAL_UART_Init+0x8a8>
 8006a9a:	2b07      	cmp	r3, #7
 8006a9c:	f000 8310 	beq.w	80070c0 <HAL_UART_Init+0x8f0>
 8006aa0:	2b08      	cmp	r3, #8
 8006aa2:	f000 8328 	beq.w	80070f6 <HAL_UART_Init+0x926>
 8006aa6:	2b09      	cmp	r3, #9
 8006aa8:	f000 8360 	beq.w	800716c <HAL_UART_Init+0x99c>
 8006aac:	2b0a      	cmp	r3, #10
 8006aae:	f000 835b 	beq.w	8007168 <HAL_UART_Init+0x998>
 8006ab2:	2b0b      	cmp	r3, #11
 8006ab4:	bf08      	it	eq
 8006ab6:	0a00      	lsreq	r0, r0, #8
 8006ab8:	e76a      	b.n	8006990 <HAL_UART_Init+0x1c0>
 8006aba:	f7fe ff23 	bl	8005904 <HAL_RCC_GetPCLK1Freq>
 8006abe:	6a63      	ldr	r3, [r4, #36]	; 0x24
 8006ac0:	2b00      	cmp	r3, #0
 8006ac2:	f43f af65 	beq.w	8006990 <HAL_UART_Init+0x1c0>
 8006ac6:	e7d6      	b.n	8006a76 <HAL_UART_Init+0x2a6>
 8006ac8:	cfff69f3 	.word	0xcfff69f3
 8006acc:	40008000 	.word	0x40008000
 8006ad0:	40013800 	.word	0x40013800
 8006ad4:	40004400 	.word	0x40004400
 8006ad8:	40004800 	.word	0x40004800
 8006adc:	40004c00 	.word	0x40004c00
 8006ae0:	40021000 	.word	0x40021000
 8006ae4:	08009ec8 	.word	0x08009ec8
 8006ae8:	08009ecc 	.word	0x08009ecc
 8006aec:	4bd3      	ldr	r3, [pc, #844]	; (8006e3c <HAL_UART_Init+0x66c>)
 8006aee:	f8d3 3088 	ldr.w	r3, [r3, #136]	; 0x88
 8006af2:	f003 0330 	and.w	r3, r3, #48	; 0x30
 8006af6:	2b10      	cmp	r3, #16
 8006af8:	d0b4      	beq.n	8006a64 <HAL_UART_Init+0x294>
 8006afa:	d96e      	bls.n	8006bda <HAL_UART_Init+0x40a>
 8006afc:	2b20      	cmp	r3, #32
 8006afe:	f040 812c 	bne.w	8006d5a <HAL_UART_Init+0x58a>
 8006b02:	f5b1 4f00 	cmp.w	r1, #32768	; 0x8000
 8006b06:	f000 8144 	beq.w	8006d92 <HAL_UART_Init+0x5c2>
 8006b0a:	2d00      	cmp	r5, #0
 8006b0c:	f000 812c 	beq.w	8006d68 <HAL_UART_Init+0x598>
 8006b10:	2d01      	cmp	r5, #1
 8006b12:	f000 827a 	beq.w	800700a <HAL_UART_Init+0x83a>
 8006b16:	2d02      	cmp	r5, #2
 8006b18:	f000 8296 	beq.w	8007048 <HAL_UART_Init+0x878>
 8006b1c:	2d03      	cmp	r5, #3
 8006b1e:	f000 82a6 	beq.w	800706e <HAL_UART_Init+0x89e>
 8006b22:	2d04      	cmp	r5, #4
 8006b24:	f000 82ca 	beq.w	80070bc <HAL_UART_Init+0x8ec>
 8006b28:	2d05      	cmp	r5, #5
 8006b2a:	f000 82db 	beq.w	80070e4 <HAL_UART_Init+0x914>
 8006b2e:	2d06      	cmp	r5, #6
 8006b30:	f000 82f0 	beq.w	8007114 <HAL_UART_Init+0x944>
 8006b34:	2d07      	cmp	r5, #7
 8006b36:	f000 831b 	beq.w	8007170 <HAL_UART_Init+0x9a0>
 8006b3a:	2d08      	cmp	r5, #8
 8006b3c:	f000 832b 	beq.w	8007196 <HAL_UART_Init+0x9c6>
 8006b40:	2d09      	cmp	r5, #9
 8006b42:	f000 83a9 	beq.w	8007298 <HAL_UART_Init+0xac8>
 8006b46:	2d0a      	cmp	r5, #10
 8006b48:	f000 83a4 	beq.w	8007294 <HAL_UART_Init+0xac4>
 8006b4c:	4bbc      	ldr	r3, [pc, #752]	; (8006e40 <HAL_UART_Init+0x670>)
 8006b4e:	f24f 4224 	movw	r2, #62500	; 0xf424
 8006b52:	2d0b      	cmp	r5, #11
 8006b54:	bf08      	it	eq
 8006b56:	4613      	moveq	r3, r2
 8006b58:	6861      	ldr	r1, [r4, #4]
 8006b5a:	2200      	movs	r2, #0
 8006b5c:	eb03 0351 	add.w	r3, r3, r1, lsr #1
 8006b60:	fbb3 f3f1 	udiv	r3, r3, r1
 8006b64:	b29b      	uxth	r3, r3
 8006b66:	e71a      	b.n	800699e <HAL_UART_Init+0x1ce>
 8006b68:	4bb4      	ldr	r3, [pc, #720]	; (8006e3c <HAL_UART_Init+0x66c>)
 8006b6a:	f8d3 3088 	ldr.w	r3, [r3, #136]	; 0x88
 8006b6e:	f003 03c0 	and.w	r3, r3, #192	; 0xc0
 8006b72:	2b40      	cmp	r3, #64	; 0x40
 8006b74:	f43f af76 	beq.w	8006a64 <HAL_UART_Init+0x294>
 8006b78:	d92f      	bls.n	8006bda <HAL_UART_Init+0x40a>
 8006b7a:	2b80      	cmp	r3, #128	; 0x80
 8006b7c:	d0c1      	beq.n	8006b02 <HAL_UART_Init+0x332>
 8006b7e:	2bc0      	cmp	r3, #192	; 0xc0
 8006b80:	f47f ae6e 	bne.w	8006860 <HAL_UART_Init+0x90>
 8006b84:	f5b1 4f00 	cmp.w	r1, #32768	; 0x8000
 8006b88:	f000 8130 	beq.w	8006dec <HAL_UART_Init+0x61c>
 8006b8c:	2d00      	cmp	r5, #0
 8006b8e:	f000 80e8 	beq.w	8006d62 <HAL_UART_Init+0x592>
 8006b92:	2d01      	cmp	r5, #1
 8006b94:	f000 823b 	beq.w	800700e <HAL_UART_Init+0x83e>
 8006b98:	2d02      	cmp	r5, #2
 8006b9a:	f000 8257 	beq.w	800704c <HAL_UART_Init+0x87c>
 8006b9e:	2d03      	cmp	r5, #3
 8006ba0:	f000 8267 	beq.w	8007072 <HAL_UART_Init+0x8a2>
 8006ba4:	2d04      	cmp	r5, #4
 8006ba6:	f000 8286 	beq.w	80070b6 <HAL_UART_Init+0x8e6>
 8006baa:	2d05      	cmp	r5, #5
 8006bac:	f000 829c 	beq.w	80070e8 <HAL_UART_Init+0x918>
 8006bb0:	2d06      	cmp	r5, #6
 8006bb2:	f000 82b1 	beq.w	8007118 <HAL_UART_Init+0x948>
 8006bb6:	2d07      	cmp	r5, #7
 8006bb8:	f000 82d3 	beq.w	8007162 <HAL_UART_Init+0x992>
 8006bbc:	2d08      	cmp	r5, #8
 8006bbe:	f000 831c 	beq.w	80071fa <HAL_UART_Init+0xa2a>
 8006bc2:	2d09      	cmp	r5, #9
 8006bc4:	f000 836d 	beq.w	80072a2 <HAL_UART_Init+0xad2>
 8006bc8:	2d0a      	cmp	r5, #10
 8006bca:	f000 8367 	beq.w	800729c <HAL_UART_Init+0xacc>
 8006bce:	2d0b      	cmp	r5, #11
 8006bd0:	bf14      	ite	ne
 8006bd2:	f44f 4300 	movne.w	r3, #32768	; 0x8000
 8006bd6:	2380      	moveq	r3, #128	; 0x80
 8006bd8:	e7be      	b.n	8006b58 <HAL_UART_Init+0x388>
 8006bda:	2b00      	cmp	r3, #0
 8006bdc:	f47f ae40 	bne.w	8006860 <HAL_UART_Init+0x90>
 8006be0:	f5b1 4f00 	cmp.w	r1, #32768	; 0x8000
 8006be4:	f47f af69 	bne.w	8006aba <HAL_UART_Init+0x2ea>
 8006be8:	f7fe fe8c 	bl	8005904 <HAL_RCC_GetPCLK1Freq>
 8006bec:	6a62      	ldr	r2, [r4, #36]	; 0x24
 8006bee:	b302      	cbz	r2, 8006c32 <HAL_UART_Init+0x462>
 8006bf0:	2a01      	cmp	r2, #1
 8006bf2:	f000 81fc 	beq.w	8006fee <HAL_UART_Init+0x81e>
 8006bf6:	2a02      	cmp	r2, #2
 8006bf8:	f000 8205 	beq.w	8007006 <HAL_UART_Init+0x836>
 8006bfc:	2a03      	cmp	r2, #3
 8006bfe:	f000 821e 	beq.w	800703e <HAL_UART_Init+0x86e>
 8006c02:	2a04      	cmp	r2, #4
 8006c04:	f000 8231 	beq.w	800706a <HAL_UART_Init+0x89a>
 8006c08:	2a05      	cmp	r2, #5
 8006c0a:	f000 8250 	beq.w	80070ae <HAL_UART_Init+0x8de>
 8006c0e:	2a06      	cmp	r2, #6
 8006c10:	f000 826d 	beq.w	80070ee <HAL_UART_Init+0x91e>
 8006c14:	2a07      	cmp	r2, #7
 8006c16:	f000 8282 	beq.w	800711e <HAL_UART_Init+0x94e>
 8006c1a:	2a08      	cmp	r2, #8
 8006c1c:	f000 82aa 	beq.w	8007174 <HAL_UART_Init+0x9a4>
 8006c20:	2a09      	cmp	r2, #9
 8006c22:	f000 82fe 	beq.w	8007222 <HAL_UART_Init+0xa52>
 8006c26:	2a0a      	cmp	r2, #10
 8006c28:	f000 82f9 	beq.w	800721e <HAL_UART_Init+0xa4e>
 8006c2c:	2a0b      	cmp	r2, #11
 8006c2e:	bf08      	it	eq
 8006c30:	0a00      	lsreq	r0, r0, #8
 8006c32:	6862      	ldr	r2, [r4, #4]
 8006c34:	0853      	lsrs	r3, r2, #1
 8006c36:	eb03 0340 	add.w	r3, r3, r0, lsl #1
 8006c3a:	fbb3 f3f2 	udiv	r3, r3, r2
 8006c3e:	b29b      	uxth	r3, r3
 8006c40:	f1a3 0110 	sub.w	r1, r3, #16
 8006c44:	f64f 72ef 	movw	r2, #65519	; 0xffef
 8006c48:	4291      	cmp	r1, r2
 8006c4a:	f63f ae09 	bhi.w	8006860 <HAL_UART_Init+0x90>
 8006c4e:	f023 020f 	bic.w	r2, r3, #15
 8006c52:	6820      	ldr	r0, [r4, #0]
 8006c54:	f3c3 0342 	ubfx	r3, r3, #1, #3
 8006c58:	4313      	orrs	r3, r2
 8006c5a:	f04f 1101 	mov.w	r1, #65537	; 0x10001
 8006c5e:	2200      	movs	r2, #0
 8006c60:	60c3      	str	r3, [r0, #12]
 8006c62:	e9c4 121a 	strd	r1, r2, [r4, #104]	; 0x68
 8006c66:	6722      	str	r2, [r4, #112]	; 0x70
 8006c68:	e6ab      	b.n	80069c2 <HAL_UART_Init+0x1f2>
 8006c6a:	4620      	mov	r0, r4
 8006c6c:	f7ff fd56 	bl	800671c <UART_AdvFeatureConfig>
 8006c70:	e6ab      	b.n	80069ca <HAL_UART_Init+0x1fa>
 8006c72:	2b08      	cmp	r3, #8
 8006c74:	f63f adf4 	bhi.w	8006860 <HAL_UART_Init+0x90>
 8006c78:	a201      	add	r2, pc, #4	; (adr r2, 8006c80 <HAL_UART_Init+0x4b0>)
 8006c7a:	f852 f023 	ldr.w	pc, [r2, r3, lsl #2]
 8006c7e:	bf00      	nop
 8006c80:	08006be9 	.word	0x08006be9
 8006c84:	08006d6d 	.word	0x08006d6d
 8006c88:	08006d93 	.word	0x08006d93
 8006c8c:	08006861 	.word	0x08006861
 8006c90:	08006d85 	.word	0x08006d85
 8006c94:	08006861 	.word	0x08006861
 8006c98:	08006861 	.word	0x08006861
 8006c9c:	08006861 	.word	0x08006861
 8006ca0:	08006ded 	.word	0x08006ded
 8006ca4:	2001      	movs	r0, #1
 8006ca6:	4770      	bx	lr
 8006ca8:	2b00      	cmp	r3, #0
 8006caa:	f47f add9 	bne.w	8006860 <HAL_UART_Init+0x90>
 8006cae:	f7fe fe29 	bl	8005904 <HAL_RCC_GetPCLK1Freq>
 8006cb2:	6a63      	ldr	r3, [r4, #36]	; 0x24
 8006cb4:	b303      	cbz	r3, 8006cf8 <HAL_UART_Init+0x528>
 8006cb6:	2b01      	cmp	r3, #1
 8006cb8:	f000 81bd 	beq.w	8007036 <HAL_UART_Init+0x866>
 8006cbc:	2b02      	cmp	r3, #2
 8006cbe:	f000 81ac 	beq.w	800701a <HAL_UART_Init+0x84a>
 8006cc2:	2b03      	cmp	r3, #3
 8006cc4:	f000 81a6 	beq.w	8007014 <HAL_UART_Init+0x844>
 8006cc8:	2b04      	cmp	r3, #4
 8006cca:	f000 81dd 	beq.w	8007088 <HAL_UART_Init+0x8b8>
 8006cce:	2b05      	cmp	r3, #5
 8006cd0:	f000 81d7 	beq.w	8007082 <HAL_UART_Init+0x8b2>
 8006cd4:	2b06      	cmp	r3, #6
 8006cd6:	f000 8238 	beq.w	800714a <HAL_UART_Init+0x97a>
 8006cda:	2b07      	cmp	r3, #7
 8006cdc:	f000 8286 	beq.w	80071ec <HAL_UART_Init+0xa1c>
 8006ce0:	2b08      	cmp	r3, #8
 8006ce2:	f000 8294 	beq.w	800720e <HAL_UART_Init+0xa3e>
 8006ce6:	2b09      	cmp	r3, #9
 8006ce8:	f000 82c3 	beq.w	8007272 <HAL_UART_Init+0xaa2>
 8006cec:	2b0a      	cmp	r3, #10
 8006cee:	f000 82ef 	beq.w	80072d0 <HAL_UART_Init+0xb00>
 8006cf2:	2b0b      	cmp	r3, #11
 8006cf4:	bf08      	it	eq
 8006cf6:	0a00      	lsreq	r0, r0, #8
 8006cf8:	2300      	movs	r3, #0
 8006cfa:	2800      	cmp	r0, #0
 8006cfc:	f47f ae03 	bne.w	8006906 <HAL_UART_Init+0x136>
 8006d00:	f04f 1301 	mov.w	r3, #65537	; 0x10001
 8006d04:	e9c4 001b 	strd	r0, r0, [r4, #108]	; 0x6c
 8006d08:	66a3      	str	r3, [r4, #104]	; 0x68
 8006d0a:	e65a      	b.n	80069c2 <HAL_UART_Init+0x1f2>
 8006d0c:	f7fe fdbc 	bl	8005888 <HAL_RCC_GetSysClockFreq>
 8006d10:	6a63      	ldr	r3, [r4, #36]	; 0x24
 8006d12:	b303      	cbz	r3, 8006d56 <HAL_UART_Init+0x586>
 8006d14:	2b01      	cmp	r3, #1
 8006d16:	f000 8190 	beq.w	800703a <HAL_UART_Init+0x86a>
 8006d1a:	2b02      	cmp	r3, #2
 8006d1c:	f000 8182 	beq.w	8007024 <HAL_UART_Init+0x854>
 8006d20:	2b03      	cmp	r3, #3
 8006d22:	f000 817c 	beq.w	800701e <HAL_UART_Init+0x84e>
 8006d26:	2b04      	cmp	r3, #4
 8006d28:	f000 81b3 	beq.w	8007092 <HAL_UART_Init+0x8c2>
 8006d2c:	2b05      	cmp	r3, #5
 8006d2e:	f000 81ad 	beq.w	800708c <HAL_UART_Init+0x8bc>
 8006d32:	2b06      	cmp	r3, #6
 8006d34:	f000 81fe 	beq.w	8007134 <HAL_UART_Init+0x964>
 8006d38:	2b07      	cmp	r3, #7
 8006d3a:	f000 8263 	beq.w	8007204 <HAL_UART_Init+0xa34>
 8006d3e:	2b08      	cmp	r3, #8
 8006d40:	f000 8271 	beq.w	8007226 <HAL_UART_Init+0xa56>
 8006d44:	2b09      	cmp	r3, #9
 8006d46:	f000 8296 	beq.w	8007276 <HAL_UART_Init+0xaa6>
 8006d4a:	2b0a      	cmp	r3, #10
 8006d4c:	f000 82c2 	beq.w	80072d4 <HAL_UART_Init+0xb04>
 8006d50:	2b0b      	cmp	r3, #11
 8006d52:	bf08      	it	eq
 8006d54:	0a00      	lsreq	r0, r0, #8
 8006d56:	2304      	movs	r3, #4
 8006d58:	e7cf      	b.n	8006cfa <HAL_UART_Init+0x52a>
 8006d5a:	2b30      	cmp	r3, #48	; 0x30
 8006d5c:	f43f af12 	beq.w	8006b84 <HAL_UART_Init+0x3b4>
 8006d60:	e57e      	b.n	8006860 <HAL_UART_Init+0x90>
 8006d62:	f44f 4300 	mov.w	r3, #32768	; 0x8000
 8006d66:	e6f7      	b.n	8006b58 <HAL_UART_Init+0x388>
 8006d68:	4b35      	ldr	r3, [pc, #212]	; (8006e40 <HAL_UART_Init+0x670>)
 8006d6a:	e6f5      	b.n	8006b58 <HAL_UART_Init+0x388>
 8006d6c:	f7fe fddc 	bl	8005928 <HAL_RCC_GetPCLK2Freq>
 8006d70:	6a62      	ldr	r2, [r4, #36]	; 0x24
 8006d72:	2a00      	cmp	r2, #0
 8006d74:	f43f af5d 	beq.w	8006c32 <HAL_UART_Init+0x462>
 8006d78:	e73a      	b.n	8006bf0 <HAL_UART_Init+0x420>
 8006d7a:	4b32      	ldr	r3, [pc, #200]	; (8006e44 <HAL_UART_Init+0x674>)
 8006d7c:	fba3 3000 	umull	r3, r0, r3, r0
 8006d80:	0880      	lsrs	r0, r0, #2
 8006d82:	e605      	b.n	8006990 <HAL_UART_Init+0x1c0>
 8006d84:	f7fe fd80 	bl	8005888 <HAL_RCC_GetSysClockFreq>
 8006d88:	6a62      	ldr	r2, [r4, #36]	; 0x24
 8006d8a:	2a00      	cmp	r2, #0
 8006d8c:	f43f af51 	beq.w	8006c32 <HAL_UART_Init+0x462>
 8006d90:	e72e      	b.n	8006bf0 <HAL_UART_Init+0x420>
 8006d92:	2d00      	cmp	r5, #0
 8006d94:	f000 8130 	beq.w	8006ff8 <HAL_UART_Init+0x828>
 8006d98:	2d01      	cmp	r5, #1
 8006d9a:	f000 815e 	beq.w	800705a <HAL_UART_Init+0x88a>
 8006d9e:	2d02      	cmp	r5, #2
 8006da0:	f000 8183 	beq.w	80070aa <HAL_UART_Init+0x8da>
 8006da4:	2d03      	cmp	r5, #3
 8006da6:	f000 8197 	beq.w	80070d8 <HAL_UART_Init+0x908>
 8006daa:	2d04      	cmp	r5, #4
 8006dac:	f000 81b0 	beq.w	8007110 <HAL_UART_Init+0x940>
 8006db0:	2d05      	cmp	r5, #5
 8006db2:	f000 81b9 	beq.w	8007128 <HAL_UART_Init+0x958>
 8006db6:	2d06      	cmp	r5, #6
 8006db8:	f000 8222 	beq.w	8007200 <HAL_UART_Init+0xa30>
 8006dbc:	2d07      	cmp	r5, #7
 8006dbe:	f000 8228 	beq.w	8007212 <HAL_UART_Init+0xa42>
 8006dc2:	2d08      	cmp	r5, #8
 8006dc4:	f000 824c 	beq.w	8007260 <HAL_UART_Init+0xa90>
 8006dc8:	2d09      	cmp	r5, #9
 8006dca:	f000 8291 	beq.w	80072f0 <HAL_UART_Init+0xb20>
 8006dce:	2d0a      	cmp	r5, #10
 8006dd0:	f000 8290 	beq.w	80072f4 <HAL_UART_Init+0xb24>
 8006dd4:	4b1c      	ldr	r3, [pc, #112]	; (8006e48 <HAL_UART_Init+0x678>)
 8006dd6:	4a1d      	ldr	r2, [pc, #116]	; (8006e4c <HAL_UART_Init+0x67c>)
 8006dd8:	2d0b      	cmp	r5, #11
 8006dda:	bf08      	it	eq
 8006ddc:	4613      	moveq	r3, r2
 8006dde:	6862      	ldr	r2, [r4, #4]
 8006de0:	eb03 0352 	add.w	r3, r3, r2, lsr #1
 8006de4:	fbb3 f3f2 	udiv	r3, r3, r2
 8006de8:	b29b      	uxth	r3, r3
 8006dea:	e729      	b.n	8006c40 <HAL_UART_Init+0x470>
 8006dec:	2d00      	cmp	r5, #0
 8006dee:	f000 8100 	beq.w	8006ff2 <HAL_UART_Init+0x822>
 8006df2:	2d01      	cmp	r5, #1
 8006df4:	f000 8133 	beq.w	800705e <HAL_UART_Init+0x88e>
 8006df8:	2d02      	cmp	r5, #2
 8006dfa:	f000 814c 	beq.w	8007096 <HAL_UART_Init+0x8c6>
 8006dfe:	2d03      	cmp	r5, #3
 8006e00:	f000 8167 	beq.w	80070d2 <HAL_UART_Init+0x902>
 8006e04:	2d04      	cmp	r5, #4
 8006e06:	f000 8180 	beq.w	800710a <HAL_UART_Init+0x93a>
 8006e0a:	2d05      	cmp	r5, #5
 8006e0c:	f000 81a1 	beq.w	8007152 <HAL_UART_Init+0x982>
 8006e10:	2d06      	cmp	r5, #6
 8006e12:	f000 81f9 	beq.w	8007208 <HAL_UART_Init+0xa38>
 8006e16:	2d07      	cmp	r5, #7
 8006e18:	f000 8207 	beq.w	800722a <HAL_UART_Init+0xa5a>
 8006e1c:	2d08      	cmp	r5, #8
 8006e1e:	f000 821c 	beq.w	800725a <HAL_UART_Init+0xa8a>
 8006e22:	2d09      	cmp	r5, #9
 8006e24:	f000 8261 	beq.w	80072ea <HAL_UART_Init+0xb1a>
 8006e28:	2d0a      	cmp	r5, #10
 8006e2a:	f000 8265 	beq.w	80072f8 <HAL_UART_Init+0xb28>
 8006e2e:	2d0b      	cmp	r5, #11
 8006e30:	bf14      	ite	ne
 8006e32:	f44f 3380 	movne.w	r3, #65536	; 0x10000
 8006e36:	f44f 7380 	moveq.w	r3, #256	; 0x100
 8006e3a:	e7d0      	b.n	8006dde <HAL_UART_Init+0x60e>
 8006e3c:	40021000 	.word	0x40021000
 8006e40:	00f42400 	.word	0x00f42400
 8006e44:	aaaaaaab 	.word	0xaaaaaaab
 8006e48:	01e84800 	.word	0x01e84800
 8006e4c:	0001e848 	.word	0x0001e848
 8006e50:	6a63      	ldr	r3, [r4, #36]	; 0x24
 8006e52:	b303      	cbz	r3, 8006e96 <HAL_UART_Init+0x6c6>
 8006e54:	2b01      	cmp	r3, #1
 8006e56:	f000 8171 	beq.w	800713c <HAL_UART_Init+0x96c>
 8006e5a:	2b02      	cmp	r3, #2
 8006e5c:	f000 8194 	beq.w	8007188 <HAL_UART_Init+0x9b8>
 8006e60:	2b03      	cmp	r3, #3
 8006e62:	f000 81e5 	beq.w	8007230 <HAL_UART_Init+0xa60>
 8006e66:	2b04      	cmp	r3, #4
 8006e68:	f000 81ff 	beq.w	800726a <HAL_UART_Init+0xa9a>
 8006e6c:	2b05      	cmp	r3, #5
 8006e6e:	f000 8222 	beq.w	80072b6 <HAL_UART_Init+0xae6>
 8006e72:	2b06      	cmp	r3, #6
 8006e74:	f000 821c 	beq.w	80072b0 <HAL_UART_Init+0xae0>
 8006e78:	2b07      	cmp	r3, #7
 8006e7a:	f000 8215 	beq.w	80072a8 <HAL_UART_Init+0xad8>
 8006e7e:	2b08      	cmp	r3, #8
 8006e80:	f000 8243 	beq.w	800730a <HAL_UART_Init+0xb3a>
 8006e84:	2b09      	cmp	r3, #9
 8006e86:	f000 824f 	beq.w	8007328 <HAL_UART_Init+0xb58>
 8006e8a:	2b0a      	cmp	r3, #10
 8006e8c:	f000 8248 	beq.w	8007320 <HAL_UART_Init+0xb50>
 8006e90:	2b0b      	cmp	r3, #11
 8006e92:	f000 8241 	beq.w	8007318 <HAL_UART_Init+0xb48>
 8006e96:	f44f 0500 	mov.w	r5, #8388608	; 0x800000
 8006e9a:	2600      	movs	r6, #0
 8006e9c:	0853      	lsrs	r3, r2, #1
 8006e9e:	18e8      	adds	r0, r5, r3
 8006ea0:	f146 0100 	adc.w	r1, r6, #0
 8006ea4:	2300      	movs	r3, #0
 8006ea6:	f7f9 f9b7 	bl	8000218 <__aeabi_uldivmod>
 8006eaa:	f5a0 7240 	sub.w	r2, r0, #768	; 0x300
 8006eae:	4bbb      	ldr	r3, [pc, #748]	; (800719c <HAL_UART_Init+0x9cc>)
 8006eb0:	429a      	cmp	r2, r3
 8006eb2:	f63f acd5 	bhi.w	8006860 <HAL_UART_Init+0x90>
 8006eb6:	6821      	ldr	r1, [r4, #0]
 8006eb8:	2300      	movs	r3, #0
 8006eba:	f04f 1201 	mov.w	r2, #65537	; 0x10001
 8006ebe:	60c8      	str	r0, [r1, #12]
 8006ec0:	e9c4 231a 	strd	r2, r3, [r4, #104]	; 0x68
 8006ec4:	6723      	str	r3, [r4, #112]	; 0x70
 8006ec6:	e57c      	b.n	80069c2 <HAL_UART_Init+0x1f2>
 8006ec8:	6a63      	ldr	r3, [r4, #36]	; 0x24
 8006eca:	b303      	cbz	r3, 8006f0e <HAL_UART_Init+0x73e>
 8006ecc:	2b01      	cmp	r3, #1
 8006ece:	f000 8139 	beq.w	8007144 <HAL_UART_Init+0x974>
 8006ed2:	2b02      	cmp	r3, #2
 8006ed4:	f000 815c 	beq.w	8007190 <HAL_UART_Init+0x9c0>
 8006ed8:	2b03      	cmp	r3, #3
 8006eda:	f000 819c 	beq.w	8007216 <HAL_UART_Init+0xa46>
 8006ede:	2b04      	cmp	r3, #4
 8006ee0:	f000 81c0 	beq.w	8007264 <HAL_UART_Init+0xa94>
 8006ee4:	2b05      	cmp	r3, #5
 8006ee6:	f000 81f0 	beq.w	80072ca <HAL_UART_Init+0xafa>
 8006eea:	2b06      	cmp	r3, #6
 8006eec:	f000 81e9 	beq.w	80072c2 <HAL_UART_Init+0xaf2>
 8006ef0:	2b07      	cmp	r3, #7
 8006ef2:	f000 81e3 	beq.w	80072bc <HAL_UART_Init+0xaec>
 8006ef6:	2b08      	cmp	r3, #8
 8006ef8:	f000 8201 	beq.w	80072fe <HAL_UART_Init+0xb2e>
 8006efc:	2b09      	cmp	r3, #9
 8006efe:	f000 821a 	beq.w	8007336 <HAL_UART_Init+0xb66>
 8006f02:	2b0a      	cmp	r3, #10
 8006f04:	f000 8214 	beq.w	8007330 <HAL_UART_Init+0xb60>
 8006f08:	2b0b      	cmp	r3, #11
 8006f0a:	f000 8202 	beq.w	8007312 <HAL_UART_Init+0xb42>
 8006f0e:	4da4      	ldr	r5, [pc, #656]	; (80071a0 <HAL_UART_Init+0x9d0>)
 8006f10:	2600      	movs	r6, #0
 8006f12:	e7c3      	b.n	8006e9c <HAL_UART_Init+0x6cc>
 8006f14:	f7fe fcf6 	bl	8005904 <HAL_RCC_GetPCLK1Freq>
 8006f18:	6a63      	ldr	r3, [r4, #36]	; 0x24
 8006f1a:	2100      	movs	r1, #0
 8006f1c:	b30b      	cbz	r3, 8006f62 <HAL_UART_Init+0x792>
 8006f1e:	2b01      	cmp	r3, #1
 8006f20:	f000 80dc 	beq.w	80070dc <HAL_UART_Init+0x90c>
 8006f24:	2b02      	cmp	r3, #2
 8006f26:	f000 80fc 	beq.w	8007122 <HAL_UART_Init+0x952>
 8006f2a:	2b03      	cmp	r3, #3
 8006f2c:	f000 8124 	beq.w	8007178 <HAL_UART_Init+0x9a8>
 8006f30:	2b04      	cmp	r3, #4
 8006f32:	f000 8126 	beq.w	8007182 <HAL_UART_Init+0x9b2>
 8006f36:	2b05      	cmp	r3, #5
 8006f38:	f000 81a7 	beq.w	800728a <HAL_UART_Init+0xaba>
 8006f3c:	2b06      	cmp	r3, #6
 8006f3e:	f000 819f 	beq.w	8007280 <HAL_UART_Init+0xab0>
 8006f42:	2b07      	cmp	r3, #7
 8006f44:	f000 8199 	beq.w	800727a <HAL_UART_Init+0xaaa>
 8006f48:	2b08      	cmp	r3, #8
 8006f4a:	f000 81db 	beq.w	8007304 <HAL_UART_Init+0xb34>
 8006f4e:	2b09      	cmp	r3, #9
 8006f50:	f000 81f7 	beq.w	8007342 <HAL_UART_Init+0xb72>
 8006f54:	2b0a      	cmp	r3, #10
 8006f56:	f000 81f1 	beq.w	800733c <HAL_UART_Init+0xb6c>
 8006f5a:	2b0b      	cmp	r3, #11
 8006f5c:	bf04      	itt	eq
 8006f5e:	0a00      	lsreq	r0, r0, #8
 8006f60:	2100      	moveq	r1, #0
 8006f62:	6862      	ldr	r2, [r4, #4]
 8006f64:	020f      	lsls	r7, r1, #8
 8006f66:	ea47 6710 	orr.w	r7, r7, r0, lsr #24
 8006f6a:	0206      	lsls	r6, r0, #8
 8006f6c:	0850      	lsrs	r0, r2, #1
 8006f6e:	eb16 0b00 	adds.w	fp, r6, r0
 8006f72:	f147 0c00 	adc.w	ip, r7, #0
 8006f76:	4658      	mov	r0, fp
 8006f78:	4661      	mov	r1, ip
 8006f7a:	2300      	movs	r3, #0
 8006f7c:	f7f9 f94c 	bl	8000218 <__aeabi_uldivmod>
 8006f80:	f5a0 7240 	sub.w	r2, r0, #768	; 0x300
 8006f84:	e793      	b.n	8006eae <HAL_UART_Init+0x6de>
 8006f86:	f7fe fc7f 	bl	8005888 <HAL_RCC_GetSysClockFreq>
 8006f8a:	e7c5      	b.n	8006f18 <HAL_UART_Init+0x748>
 8006f8c:	2201      	movs	r2, #1
 8006f8e:	2300      	movs	r3, #0
 8006f90:	e505      	b.n	800699e <HAL_UART_Init+0x1ce>
 8006f92:	b32d      	cbz	r5, 8006fe0 <HAL_UART_Init+0x810>
 8006f94:	2d01      	cmp	r5, #1
 8006f96:	d047      	beq.n	8007028 <HAL_UART_Init+0x858>
 8006f98:	2d02      	cmp	r5, #2
 8006f9a:	d063      	beq.n	8007064 <HAL_UART_Init+0x894>
 8006f9c:	2d03      	cmp	r5, #3
 8006f9e:	f000 8081 	beq.w	80070a4 <HAL_UART_Init+0x8d4>
 8006fa2:	2d04      	cmp	r5, #4
 8006fa4:	f000 808e 	beq.w	80070c4 <HAL_UART_Init+0x8f4>
 8006fa8:	2d05      	cmp	r5, #5
 8006faa:	f000 80a6 	beq.w	80070fa <HAL_UART_Init+0x92a>
 8006fae:	2d06      	cmp	r5, #6
 8006fb0:	f000 80bc 	beq.w	800712c <HAL_UART_Init+0x95c>
 8006fb4:	2d07      	cmp	r5, #7
 8006fb6:	f000 8115 	beq.w	80071e4 <HAL_UART_Init+0xa14>
 8006fba:	2d08      	cmp	r5, #8
 8006fbc:	f000 813b 	beq.w	8007236 <HAL_UART_Init+0xa66>
 8006fc0:	2d09      	cmp	r5, #9
 8006fc2:	f000 8141 	beq.w	8007248 <HAL_UART_Init+0xa78>
 8006fc6:	2d0a      	cmp	r5, #10
 8006fc8:	f000 818b 	beq.w	80072e2 <HAL_UART_Init+0xb12>
 8006fcc:	4b75      	ldr	r3, [pc, #468]	; (80071a4 <HAL_UART_Init+0x9d4>)
 8006fce:	f24f 4024 	movw	r0, #62500	; 0xf424
 8006fd2:	2d0b      	cmp	r5, #11
 8006fd4:	bf18      	it	ne
 8006fd6:	4618      	movne	r0, r3
 8006fd8:	2302      	movs	r3, #2
 8006fda:	e494      	b.n	8006906 <HAL_UART_Init+0x136>
 8006fdc:	0840      	lsrs	r0, r0, #1
 8006fde:	e4d7      	b.n	8006990 <HAL_UART_Init+0x1c0>
 8006fe0:	2302      	movs	r3, #2
 8006fe2:	4870      	ldr	r0, [pc, #448]	; (80071a4 <HAL_UART_Init+0x9d4>)
 8006fe4:	e48f      	b.n	8006906 <HAL_UART_Init+0x136>
 8006fe6:	2308      	movs	r3, #8
 8006fe8:	f44f 4000 	mov.w	r0, #32768	; 0x8000
 8006fec:	e48b      	b.n	8006906 <HAL_UART_Init+0x136>
 8006fee:	0840      	lsrs	r0, r0, #1
 8006ff0:	e61f      	b.n	8006c32 <HAL_UART_Init+0x462>
 8006ff2:	f44f 3380 	mov.w	r3, #65536	; 0x10000
 8006ff6:	e6f2      	b.n	8006dde <HAL_UART_Init+0x60e>
 8006ff8:	4b6b      	ldr	r3, [pc, #428]	; (80071a8 <HAL_UART_Init+0x9d8>)
 8006ffa:	e6f0      	b.n	8006dde <HAL_UART_Init+0x60e>
 8006ffc:	4b6b      	ldr	r3, [pc, #428]	; (80071ac <HAL_UART_Init+0x9dc>)
 8006ffe:	fba3 3000 	umull	r3, r0, r3, r0
 8007002:	08c0      	lsrs	r0, r0, #3
 8007004:	e4c4      	b.n	8006990 <HAL_UART_Init+0x1c0>
 8007006:	0880      	lsrs	r0, r0, #2
 8007008:	e613      	b.n	8006c32 <HAL_UART_Init+0x462>
 800700a:	4b69      	ldr	r3, [pc, #420]	; (80071b0 <HAL_UART_Init+0x9e0>)
 800700c:	e5a4      	b.n	8006b58 <HAL_UART_Init+0x388>
 800700e:	f44f 4380 	mov.w	r3, #16384	; 0x4000
 8007012:	e5a1      	b.n	8006b58 <HAL_UART_Init+0x388>
 8007014:	4b67      	ldr	r3, [pc, #412]	; (80071b4 <HAL_UART_Init+0x9e4>)
 8007016:	fba3 3000 	umull	r3, r0, r3, r0
 800701a:	0880      	lsrs	r0, r0, #2
 800701c:	e66c      	b.n	8006cf8 <HAL_UART_Init+0x528>
 800701e:	4b65      	ldr	r3, [pc, #404]	; (80071b4 <HAL_UART_Init+0x9e4>)
 8007020:	fba3 3000 	umull	r3, r0, r3, r0
 8007024:	0880      	lsrs	r0, r0, #2
 8007026:	e696      	b.n	8006d56 <HAL_UART_Init+0x586>
 8007028:	2302      	movs	r3, #2
 800702a:	4861      	ldr	r0, [pc, #388]	; (80071b0 <HAL_UART_Init+0x9e0>)
 800702c:	e46b      	b.n	8006906 <HAL_UART_Init+0x136>
 800702e:	2308      	movs	r3, #8
 8007030:	f44f 4080 	mov.w	r0, #16384	; 0x4000
 8007034:	e467      	b.n	8006906 <HAL_UART_Init+0x136>
 8007036:	0840      	lsrs	r0, r0, #1
 8007038:	e65e      	b.n	8006cf8 <HAL_UART_Init+0x528>
 800703a:	0840      	lsrs	r0, r0, #1
 800703c:	e68b      	b.n	8006d56 <HAL_UART_Init+0x586>
 800703e:	4b5d      	ldr	r3, [pc, #372]	; (80071b4 <HAL_UART_Init+0x9e4>)
 8007040:	fba3 2300 	umull	r2, r3, r3, r0
 8007044:	0898      	lsrs	r0, r3, #2
 8007046:	e5f4      	b.n	8006c32 <HAL_UART_Init+0x462>
 8007048:	4b5b      	ldr	r3, [pc, #364]	; (80071b8 <HAL_UART_Init+0x9e8>)
 800704a:	e585      	b.n	8006b58 <HAL_UART_Init+0x388>
 800704c:	f44f 5300 	mov.w	r3, #8192	; 0x2000
 8007050:	e582      	b.n	8006b58 <HAL_UART_Init+0x388>
 8007052:	2308      	movs	r3, #8
 8007054:	f44f 5000 	mov.w	r0, #8192	; 0x2000
 8007058:	e455      	b.n	8006906 <HAL_UART_Init+0x136>
 800705a:	4b52      	ldr	r3, [pc, #328]	; (80071a4 <HAL_UART_Init+0x9d4>)
 800705c:	e6bf      	b.n	8006dde <HAL_UART_Init+0x60e>
 800705e:	f44f 4300 	mov.w	r3, #32768	; 0x8000
 8007062:	e6bc      	b.n	8006dde <HAL_UART_Init+0x60e>
 8007064:	462b      	mov	r3, r5
 8007066:	4854      	ldr	r0, [pc, #336]	; (80071b8 <HAL_UART_Init+0x9e8>)
 8007068:	e44d      	b.n	8006906 <HAL_UART_Init+0x136>
 800706a:	08c0      	lsrs	r0, r0, #3
 800706c:	e5e1      	b.n	8006c32 <HAL_UART_Init+0x462>
 800706e:	4b53      	ldr	r3, [pc, #332]	; (80071bc <HAL_UART_Init+0x9ec>)
 8007070:	e572      	b.n	8006b58 <HAL_UART_Init+0x388>
 8007072:	f241 5355 	movw	r3, #5461	; 0x1555
 8007076:	e56f      	b.n	8006b58 <HAL_UART_Init+0x388>
 8007078:	4b4e      	ldr	r3, [pc, #312]	; (80071b4 <HAL_UART_Init+0x9e4>)
 800707a:	fba3 3000 	umull	r3, r0, r3, r0
 800707e:	08c0      	lsrs	r0, r0, #3
 8007080:	e486      	b.n	8006990 <HAL_UART_Init+0x1c0>
 8007082:	4b4a      	ldr	r3, [pc, #296]	; (80071ac <HAL_UART_Init+0x9dc>)
 8007084:	fba3 3000 	umull	r3, r0, r3, r0
 8007088:	08c0      	lsrs	r0, r0, #3
 800708a:	e635      	b.n	8006cf8 <HAL_UART_Init+0x528>
 800708c:	4b47      	ldr	r3, [pc, #284]	; (80071ac <HAL_UART_Init+0x9dc>)
 800708e:	fba3 3000 	umull	r3, r0, r3, r0
 8007092:	08c0      	lsrs	r0, r0, #3
 8007094:	e65f      	b.n	8006d56 <HAL_UART_Init+0x586>
 8007096:	f44f 4380 	mov.w	r3, #16384	; 0x4000
 800709a:	e6a0      	b.n	8006dde <HAL_UART_Init+0x60e>
 800709c:	2308      	movs	r3, #8
 800709e:	f241 5055 	movw	r0, #5461	; 0x1555
 80070a2:	e430      	b.n	8006906 <HAL_UART_Init+0x136>
 80070a4:	2302      	movs	r3, #2
 80070a6:	4845      	ldr	r0, [pc, #276]	; (80071bc <HAL_UART_Init+0x9ec>)
 80070a8:	e42d      	b.n	8006906 <HAL_UART_Init+0x136>
 80070aa:	4b41      	ldr	r3, [pc, #260]	; (80071b0 <HAL_UART_Init+0x9e0>)
 80070ac:	e697      	b.n	8006dde <HAL_UART_Init+0x60e>
 80070ae:	230a      	movs	r3, #10
 80070b0:	fbb0 f0f3 	udiv	r0, r0, r3
 80070b4:	e5bd      	b.n	8006c32 <HAL_UART_Init+0x462>
 80070b6:	f44f 5380 	mov.w	r3, #4096	; 0x1000
 80070ba:	e54d      	b.n	8006b58 <HAL_UART_Init+0x388>
 80070bc:	4b40      	ldr	r3, [pc, #256]	; (80071c0 <HAL_UART_Init+0x9f0>)
 80070be:	e54b      	b.n	8006b58 <HAL_UART_Init+0x388>
 80070c0:	0900      	lsrs	r0, r0, #4
 80070c2:	e465      	b.n	8006990 <HAL_UART_Init+0x1c0>
 80070c4:	2302      	movs	r3, #2
 80070c6:	483e      	ldr	r0, [pc, #248]	; (80071c0 <HAL_UART_Init+0x9f0>)
 80070c8:	e41d      	b.n	8006906 <HAL_UART_Init+0x136>
 80070ca:	2308      	movs	r3, #8
 80070cc:	f44f 5080 	mov.w	r0, #4096	; 0x1000
 80070d0:	e419      	b.n	8006906 <HAL_UART_Init+0x136>
 80070d2:	f642 23aa 	movw	r3, #10922	; 0x2aaa
 80070d6:	e682      	b.n	8006dde <HAL_UART_Init+0x60e>
 80070d8:	4b3a      	ldr	r3, [pc, #232]	; (80071c4 <HAL_UART_Init+0x9f4>)
 80070da:	e680      	b.n	8006dde <HAL_UART_Init+0x60e>
 80070dc:	0849      	lsrs	r1, r1, #1
 80070de:	ea4f 0030 	mov.w	r0, r0, rrx
 80070e2:	e73e      	b.n	8006f62 <HAL_UART_Init+0x792>
 80070e4:	4b38      	ldr	r3, [pc, #224]	; (80071c8 <HAL_UART_Init+0x9f8>)
 80070e6:	e537      	b.n	8006b58 <HAL_UART_Init+0x388>
 80070e8:	f640 43cc 	movw	r3, #3276	; 0xccc
 80070ec:	e534      	b.n	8006b58 <HAL_UART_Init+0x388>
 80070ee:	230c      	movs	r3, #12
 80070f0:	fbb0 f0f3 	udiv	r0, r0, r3
 80070f4:	e59d      	b.n	8006c32 <HAL_UART_Init+0x462>
 80070f6:	0940      	lsrs	r0, r0, #5
 80070f8:	e44a      	b.n	8006990 <HAL_UART_Init+0x1c0>
 80070fa:	2302      	movs	r3, #2
 80070fc:	4832      	ldr	r0, [pc, #200]	; (80071c8 <HAL_UART_Init+0x9f8>)
 80070fe:	e402      	b.n	8006906 <HAL_UART_Init+0x136>
 8007100:	2308      	movs	r3, #8
 8007102:	f640 40cc 	movw	r0, #3276	; 0xccc
 8007106:	f7ff bbfe 	b.w	8006906 <HAL_UART_Init+0x136>
 800710a:	f44f 5300 	mov.w	r3, #8192	; 0x2000
 800710e:	e666      	b.n	8006dde <HAL_UART_Init+0x60e>
 8007110:	4b29      	ldr	r3, [pc, #164]	; (80071b8 <HAL_UART_Init+0x9e8>)
 8007112:	e664      	b.n	8006dde <HAL_UART_Init+0x60e>
 8007114:	4b2d      	ldr	r3, [pc, #180]	; (80071cc <HAL_UART_Init+0x9fc>)
 8007116:	e51f      	b.n	8006b58 <HAL_UART_Init+0x388>
 8007118:	f640 23aa 	movw	r3, #2730	; 0xaaa
 800711c:	e51c      	b.n	8006b58 <HAL_UART_Init+0x388>
 800711e:	0900      	lsrs	r0, r0, #4
 8007120:	e587      	b.n	8006c32 <HAL_UART_Init+0x462>
 8007122:	0880      	lsrs	r0, r0, #2
 8007124:	2100      	movs	r1, #0
 8007126:	e71c      	b.n	8006f62 <HAL_UART_Init+0x792>
 8007128:	4b29      	ldr	r3, [pc, #164]	; (80071d0 <HAL_UART_Init+0xa00>)
 800712a:	e658      	b.n	8006dde <HAL_UART_Init+0x60e>
 800712c:	2302      	movs	r3, #2
 800712e:	4827      	ldr	r0, [pc, #156]	; (80071cc <HAL_UART_Init+0x9fc>)
 8007130:	f7ff bbe9 	b.w	8006906 <HAL_UART_Init+0x136>
 8007134:	230c      	movs	r3, #12
 8007136:	fbb0 f0f3 	udiv	r0, r0, r3
 800713a:	e60c      	b.n	8006d56 <HAL_UART_Init+0x586>
 800713c:	f44f 0580 	mov.w	r5, #4194304	; 0x400000
 8007140:	2600      	movs	r6, #0
 8007142:	e6ab      	b.n	8006e9c <HAL_UART_Init+0x6cc>
 8007144:	4d23      	ldr	r5, [pc, #140]	; (80071d4 <HAL_UART_Init+0xa04>)
 8007146:	2600      	movs	r6, #0
 8007148:	e6a8      	b.n	8006e9c <HAL_UART_Init+0x6cc>
 800714a:	230c      	movs	r3, #12
 800714c:	fbb0 f0f3 	udiv	r0, r0, r3
 8007150:	e5d2      	b.n	8006cf8 <HAL_UART_Init+0x528>
 8007152:	f641 1398 	movw	r3, #6552	; 0x1998
 8007156:	e642      	b.n	8006dde <HAL_UART_Init+0x60e>
 8007158:	2308      	movs	r3, #8
 800715a:	f640 20aa 	movw	r0, #2730	; 0xaaa
 800715e:	f7ff bbd2 	b.w	8006906 <HAL_UART_Init+0x136>
 8007162:	f44f 6300 	mov.w	r3, #2048	; 0x800
 8007166:	e4f7      	b.n	8006b58 <HAL_UART_Init+0x388>
 8007168:	09c0      	lsrs	r0, r0, #7
 800716a:	e411      	b.n	8006990 <HAL_UART_Init+0x1c0>
 800716c:	0980      	lsrs	r0, r0, #6
 800716e:	e40f      	b.n	8006990 <HAL_UART_Init+0x1c0>
 8007170:	4b19      	ldr	r3, [pc, #100]	; (80071d8 <HAL_UART_Init+0xa08>)
 8007172:	e4f1      	b.n	8006b58 <HAL_UART_Init+0x388>
 8007174:	0940      	lsrs	r0, r0, #5
 8007176:	e55c      	b.n	8006c32 <HAL_UART_Init+0x462>
 8007178:	2206      	movs	r2, #6
 800717a:	2300      	movs	r3, #0
 800717c:	f7f9 f84c 	bl	8000218 <__aeabi_uldivmod>
 8007180:	e6ef      	b.n	8006f62 <HAL_UART_Init+0x792>
 8007182:	08c0      	lsrs	r0, r0, #3
 8007184:	2100      	movs	r1, #0
 8007186:	e6ec      	b.n	8006f62 <HAL_UART_Init+0x792>
 8007188:	f44f 1500 	mov.w	r5, #2097152	; 0x200000
 800718c:	2600      	movs	r6, #0
 800718e:	e685      	b.n	8006e9c <HAL_UART_Init+0x6cc>
 8007190:	4d12      	ldr	r5, [pc, #72]	; (80071dc <HAL_UART_Init+0xa0c>)
 8007192:	2600      	movs	r6, #0
 8007194:	e682      	b.n	8006e9c <HAL_UART_Init+0x6cc>
 8007196:	4b12      	ldr	r3, [pc, #72]	; (80071e0 <HAL_UART_Init+0xa10>)
 8007198:	e4de      	b.n	8006b58 <HAL_UART_Init+0x388>
 800719a:	bf00      	nop
 800719c:	000ffcff 	.word	0x000ffcff
 80071a0:	f4240000 	.word	0xf4240000
 80071a4:	00f42400 	.word	0x00f42400
 80071a8:	01e84800 	.word	0x01e84800
 80071ac:	cccccccd 	.word	0xcccccccd
 80071b0:	007a1200 	.word	0x007a1200
 80071b4:	aaaaaaab 	.word	0xaaaaaaab
 80071b8:	003d0900 	.word	0x003d0900
 80071bc:	0028b0aa 	.word	0x0028b0aa
 80071c0:	001e8480 	.word	0x001e8480
 80071c4:	00516154 	.word	0x00516154
 80071c8:	00186a00 	.word	0x00186a00
 80071cc:	00145855 	.word	0x00145855
 80071d0:	0030d400 	.word	0x0030d400
 80071d4:	7a120000 	.word	0x7a120000
 80071d8:	000f4240 	.word	0x000f4240
 80071dc:	3d090000 	.word	0x3d090000
 80071e0:	0007a120 	.word	0x0007a120
 80071e4:	2302      	movs	r3, #2
 80071e6:	485c      	ldr	r0, [pc, #368]	; (8007358 <HAL_UART_Init+0xb88>)
 80071e8:	f7ff bb8d 	b.w	8006906 <HAL_UART_Init+0x136>
 80071ec:	0900      	lsrs	r0, r0, #4
 80071ee:	e583      	b.n	8006cf8 <HAL_UART_Init+0x528>
 80071f0:	2308      	movs	r3, #8
 80071f2:	f44f 6000 	mov.w	r0, #2048	; 0x800
 80071f6:	f7ff bb86 	b.w	8006906 <HAL_UART_Init+0x136>
 80071fa:	f44f 6380 	mov.w	r3, #1024	; 0x400
 80071fe:	e4ab      	b.n	8006b58 <HAL_UART_Init+0x388>
 8007200:	4b56      	ldr	r3, [pc, #344]	; (800735c <HAL_UART_Init+0xb8c>)
 8007202:	e5ec      	b.n	8006dde <HAL_UART_Init+0x60e>
 8007204:	0900      	lsrs	r0, r0, #4
 8007206:	e5a6      	b.n	8006d56 <HAL_UART_Init+0x586>
 8007208:	f241 5354 	movw	r3, #5460	; 0x1554
 800720c:	e5e7      	b.n	8006dde <HAL_UART_Init+0x60e>
 800720e:	0940      	lsrs	r0, r0, #5
 8007210:	e572      	b.n	8006cf8 <HAL_UART_Init+0x528>
 8007212:	4b53      	ldr	r3, [pc, #332]	; (8007360 <HAL_UART_Init+0xb90>)
 8007214:	e5e3      	b.n	8006dde <HAL_UART_Init+0x60e>
 8007216:	a64c      	add	r6, pc, #304	; (adr r6, 8007348 <HAL_UART_Init+0xb78>)
 8007218:	e9d6 5600 	ldrd	r5, r6, [r6]
 800721c:	e63e      	b.n	8006e9c <HAL_UART_Init+0x6cc>
 800721e:	09c0      	lsrs	r0, r0, #7
 8007220:	e507      	b.n	8006c32 <HAL_UART_Init+0x462>
 8007222:	0980      	lsrs	r0, r0, #6
 8007224:	e505      	b.n	8006c32 <HAL_UART_Init+0x462>
 8007226:	0940      	lsrs	r0, r0, #5
 8007228:	e595      	b.n	8006d56 <HAL_UART_Init+0x586>
 800722a:	f44f 5380 	mov.w	r3, #4096	; 0x1000
 800722e:	e5d6      	b.n	8006dde <HAL_UART_Init+0x60e>
 8007230:	4d4c      	ldr	r5, [pc, #304]	; (8007364 <HAL_UART_Init+0xb94>)
 8007232:	2600      	movs	r6, #0
 8007234:	e632      	b.n	8006e9c <HAL_UART_Init+0x6cc>
 8007236:	2302      	movs	r3, #2
 8007238:	484b      	ldr	r0, [pc, #300]	; (8007368 <HAL_UART_Init+0xb98>)
 800723a:	f7ff bb64 	b.w	8006906 <HAL_UART_Init+0x136>
 800723e:	462b      	mov	r3, r5
 8007240:	f44f 6080 	mov.w	r0, #1024	; 0x400
 8007244:	f7ff bb5f 	b.w	8006906 <HAL_UART_Init+0x136>
 8007248:	2302      	movs	r3, #2
 800724a:	4848      	ldr	r0, [pc, #288]	; (800736c <HAL_UART_Init+0xb9c>)
 800724c:	f7ff bb5b 	b.w	8006906 <HAL_UART_Init+0x136>
 8007250:	2308      	movs	r3, #8
 8007252:	f44f 7000 	mov.w	r0, #512	; 0x200
 8007256:	f7ff bb56 	b.w	8006906 <HAL_UART_Init+0x136>
 800725a:	f44f 6300 	mov.w	r3, #2048	; 0x800
 800725e:	e5be      	b.n	8006dde <HAL_UART_Init+0x60e>
 8007260:	4b3d      	ldr	r3, [pc, #244]	; (8007358 <HAL_UART_Init+0xb88>)
 8007262:	e5bc      	b.n	8006dde <HAL_UART_Init+0x60e>
 8007264:	4d42      	ldr	r5, [pc, #264]	; (8007370 <HAL_UART_Init+0xba0>)
 8007266:	2600      	movs	r6, #0
 8007268:	e618      	b.n	8006e9c <HAL_UART_Init+0x6cc>
 800726a:	f44f 1580 	mov.w	r5, #1048576	; 0x100000
 800726e:	2600      	movs	r6, #0
 8007270:	e614      	b.n	8006e9c <HAL_UART_Init+0x6cc>
 8007272:	0980      	lsrs	r0, r0, #6
 8007274:	e540      	b.n	8006cf8 <HAL_UART_Init+0x528>
 8007276:	0980      	lsrs	r0, r0, #6
 8007278:	e56d      	b.n	8006d56 <HAL_UART_Init+0x586>
 800727a:	0900      	lsrs	r0, r0, #4
 800727c:	2100      	movs	r1, #0
 800727e:	e670      	b.n	8006f62 <HAL_UART_Init+0x792>
 8007280:	220c      	movs	r2, #12
 8007282:	2300      	movs	r3, #0
 8007284:	f7f8 ffc8 	bl	8000218 <__aeabi_uldivmod>
 8007288:	e66b      	b.n	8006f62 <HAL_UART_Init+0x792>
 800728a:	220a      	movs	r2, #10
 800728c:	2300      	movs	r3, #0
 800728e:	f7f8 ffc3 	bl	8000218 <__aeabi_uldivmod>
 8007292:	e666      	b.n	8006f62 <HAL_UART_Init+0x792>
 8007294:	4b37      	ldr	r3, [pc, #220]	; (8007374 <HAL_UART_Init+0xba4>)
 8007296:	e45f      	b.n	8006b58 <HAL_UART_Init+0x388>
 8007298:	4b34      	ldr	r3, [pc, #208]	; (800736c <HAL_UART_Init+0xb9c>)
 800729a:	e45d      	b.n	8006b58 <HAL_UART_Init+0x388>
 800729c:	f44f 7380 	mov.w	r3, #256	; 0x100
 80072a0:	e45a      	b.n	8006b58 <HAL_UART_Init+0x388>
 80072a2:	f44f 7300 	mov.w	r3, #512	; 0x200
 80072a6:	e457      	b.n	8006b58 <HAL_UART_Init+0x388>
 80072a8:	f44f 2500 	mov.w	r5, #524288	; 0x80000
 80072ac:	2600      	movs	r6, #0
 80072ae:	e5f5      	b.n	8006e9c <HAL_UART_Init+0x6cc>
 80072b0:	4d31      	ldr	r5, [pc, #196]	; (8007378 <HAL_UART_Init+0xba8>)
 80072b2:	2600      	movs	r6, #0
 80072b4:	e5f2      	b.n	8006e9c <HAL_UART_Init+0x6cc>
 80072b6:	4d31      	ldr	r5, [pc, #196]	; (800737c <HAL_UART_Init+0xbac>)
 80072b8:	2600      	movs	r6, #0
 80072ba:	e5ef      	b.n	8006e9c <HAL_UART_Init+0x6cc>
 80072bc:	4d30      	ldr	r5, [pc, #192]	; (8007380 <HAL_UART_Init+0xbb0>)
 80072be:	2600      	movs	r6, #0
 80072c0:	e5ec      	b.n	8006e9c <HAL_UART_Init+0x6cc>
 80072c2:	a623      	add	r6, pc, #140	; (adr r6, 8007350 <HAL_UART_Init+0xb80>)
 80072c4:	e9d6 5600 	ldrd	r5, r6, [r6]
 80072c8:	e5e8      	b.n	8006e9c <HAL_UART_Init+0x6cc>
 80072ca:	4d2e      	ldr	r5, [pc, #184]	; (8007384 <HAL_UART_Init+0xbb4>)
 80072cc:	2600      	movs	r6, #0
 80072ce:	e5e5      	b.n	8006e9c <HAL_UART_Init+0x6cc>
 80072d0:	09c0      	lsrs	r0, r0, #7
 80072d2:	e511      	b.n	8006cf8 <HAL_UART_Init+0x528>
 80072d4:	09c0      	lsrs	r0, r0, #7
 80072d6:	e53e      	b.n	8006d56 <HAL_UART_Init+0x586>
 80072d8:	2308      	movs	r3, #8
 80072da:	f44f 7080 	mov.w	r0, #256	; 0x100
 80072de:	f7ff bb12 	b.w	8006906 <HAL_UART_Init+0x136>
 80072e2:	2302      	movs	r3, #2
 80072e4:	4823      	ldr	r0, [pc, #140]	; (8007374 <HAL_UART_Init+0xba4>)
 80072e6:	f7ff bb0e 	b.w	8006906 <HAL_UART_Init+0x136>
 80072ea:	f44f 6380 	mov.w	r3, #1024	; 0x400
 80072ee:	e576      	b.n	8006dde <HAL_UART_Init+0x60e>
 80072f0:	4b1d      	ldr	r3, [pc, #116]	; (8007368 <HAL_UART_Init+0xb98>)
 80072f2:	e574      	b.n	8006dde <HAL_UART_Init+0x60e>
 80072f4:	4b1d      	ldr	r3, [pc, #116]	; (800736c <HAL_UART_Init+0xb9c>)
 80072f6:	e572      	b.n	8006dde <HAL_UART_Init+0x60e>
 80072f8:	f44f 7300 	mov.w	r3, #512	; 0x200
 80072fc:	e56f      	b.n	8006dde <HAL_UART_Init+0x60e>
 80072fe:	4d22      	ldr	r5, [pc, #136]	; (8007388 <HAL_UART_Init+0xbb8>)
 8007300:	2600      	movs	r6, #0
 8007302:	e5cb      	b.n	8006e9c <HAL_UART_Init+0x6cc>
 8007304:	0940      	lsrs	r0, r0, #5
 8007306:	2100      	movs	r1, #0
 8007308:	e62b      	b.n	8006f62 <HAL_UART_Init+0x792>
 800730a:	f44f 2580 	mov.w	r5, #262144	; 0x40000
 800730e:	2600      	movs	r6, #0
 8007310:	e5c4      	b.n	8006e9c <HAL_UART_Init+0x6cc>
 8007312:	4d1e      	ldr	r5, [pc, #120]	; (800738c <HAL_UART_Init+0xbbc>)
 8007314:	2600      	movs	r6, #0
 8007316:	e5c1      	b.n	8006e9c <HAL_UART_Init+0x6cc>
 8007318:	f44f 4500 	mov.w	r5, #32768	; 0x8000
 800731c:	2600      	movs	r6, #0
 800731e:	e5bd      	b.n	8006e9c <HAL_UART_Init+0x6cc>
 8007320:	f44f 3580 	mov.w	r5, #65536	; 0x10000
 8007324:	2600      	movs	r6, #0
 8007326:	e5b9      	b.n	8006e9c <HAL_UART_Init+0x6cc>
 8007328:	f44f 3500 	mov.w	r5, #131072	; 0x20000
 800732c:	2600      	movs	r6, #0
 800732e:	e5b5      	b.n	8006e9c <HAL_UART_Init+0x6cc>
 8007330:	4d17      	ldr	r5, [pc, #92]	; (8007390 <HAL_UART_Init+0xbc0>)
 8007332:	2600      	movs	r6, #0
 8007334:	e5b2      	b.n	8006e9c <HAL_UART_Init+0x6cc>
 8007336:	4d17      	ldr	r5, [pc, #92]	; (8007394 <HAL_UART_Init+0xbc4>)
 8007338:	2600      	movs	r6, #0
 800733a:	e5af      	b.n	8006e9c <HAL_UART_Init+0x6cc>
 800733c:	09c0      	lsrs	r0, r0, #7
 800733e:	2100      	movs	r1, #0
 8007340:	e60f      	b.n	8006f62 <HAL_UART_Init+0x792>
 8007342:	0980      	lsrs	r0, r0, #6
 8007344:	2100      	movs	r1, #0
 8007346:	e60c      	b.n	8006f62 <HAL_UART_Init+0x792>
 8007348:	28b0aa00 	.word	0x28b0aa00
 800734c:	00000000 	.word	0x00000000
 8007350:	14585500 	.word	0x14585500
 8007354:	00000000 	.word	0x00000000
 8007358:	000f4240 	.word	0x000f4240
 800735c:	0028b0aa 	.word	0x0028b0aa
 8007360:	001e8480 	.word	0x001e8480
 8007364:	00155500 	.word	0x00155500
 8007368:	0007a120 	.word	0x0007a120
 800736c:	0003d090 	.word	0x0003d090
 8007370:	1e848000 	.word	0x1e848000
 8007374:	0001e848 	.word	0x0001e848
 8007378:	000aaa00 	.word	0x000aaa00
 800737c:	000ccc00 	.word	0x000ccc00
 8007380:	0f424000 	.word	0x0f424000
 8007384:	186a0000 	.word	0x186a0000
 8007388:	07a12000 	.word	0x07a12000
 800738c:	00f42400 	.word	0x00f42400
 8007390:	01e84800 	.word	0x01e84800
 8007394:	03d09000 	.word	0x03d09000

08007398 <HAL_UARTEx_DisableFifoMode>:
 8007398:	f890 207c 	ldrb.w	r2, [r0, #124]	; 0x7c
 800739c:	2a01      	cmp	r2, #1
 800739e:	d017      	beq.n	80073d0 <HAL_UARTEx_DisableFifoMode+0x38>
 80073a0:	b430      	push	{r4, r5}
 80073a2:	6802      	ldr	r2, [r0, #0]
 80073a4:	2124      	movs	r1, #36	; 0x24
 80073a6:	f8c0 1080 	str.w	r1, [r0, #128]	; 0x80
 80073aa:	4603      	mov	r3, r0
 80073ac:	6810      	ldr	r0, [r2, #0]
 80073ae:	6814      	ldr	r4, [r2, #0]
 80073b0:	2100      	movs	r1, #0
 80073b2:	f020 5000 	bic.w	r0, r0, #536870912	; 0x20000000
 80073b6:	f024 0401 	bic.w	r4, r4, #1
 80073ba:	2520      	movs	r5, #32
 80073bc:	6014      	str	r4, [r2, #0]
 80073be:	6659      	str	r1, [r3, #100]	; 0x64
 80073c0:	6010      	str	r0, [r2, #0]
 80073c2:	4608      	mov	r0, r1
 80073c4:	f8c3 5080 	str.w	r5, [r3, #128]	; 0x80
 80073c8:	f883 107c 	strb.w	r1, [r3, #124]	; 0x7c
 80073cc:	bc30      	pop	{r4, r5}
 80073ce:	4770      	bx	lr
 80073d0:	2002      	movs	r0, #2
 80073d2:	4770      	bx	lr

080073d4 <HAL_UARTEx_SetTxFifoThreshold>:
 80073d4:	f890 207c 	ldrb.w	r2, [r0, #124]	; 0x7c
 80073d8:	2a01      	cmp	r2, #1
 80073da:	d049      	beq.n	8007470 <HAL_UARTEx_SetTxFifoThreshold+0x9c>
 80073dc:	4603      	mov	r3, r0
 80073de:	2024      	movs	r0, #36	; 0x24
 80073e0:	681a      	ldr	r2, [r3, #0]
 80073e2:	b4f0      	push	{r4, r5, r6, r7}
 80073e4:	f8c3 0080 	str.w	r0, [r3, #128]	; 0x80
 80073e8:	6814      	ldr	r4, [r2, #0]
 80073ea:	6810      	ldr	r0, [r2, #0]
 80073ec:	6e5d      	ldr	r5, [r3, #100]	; 0x64
 80073ee:	f020 0001 	bic.w	r0, r0, #1
 80073f2:	6010      	str	r0, [r2, #0]
 80073f4:	6890      	ldr	r0, [r2, #8]
 80073f6:	f020 4060 	bic.w	r0, r0, #3758096384	; 0xe0000000
 80073fa:	b084      	sub	sp, #16
 80073fc:	4301      	orrs	r1, r0
 80073fe:	481d      	ldr	r0, [pc, #116]	; (8007474 <HAL_UARTEx_SetTxFifoThreshold+0xa0>)
 8007400:	6091      	str	r1, [r2, #8]
 8007402:	f240 1107 	movw	r1, #263	; 0x107
 8007406:	9000      	str	r0, [sp, #0]
 8007408:	9101      	str	r1, [sp, #4]
 800740a:	f100 3001 	add.w	r0, r0, #16843009	; 0x1010101
 800740e:	f101 7180 	add.w	r1, r1, #16777216	; 0x1000000
 8007412:	f200 2006 	addw	r0, r0, #518	; 0x206
 8007416:	f101 1101 	add.w	r1, r1, #65537	; 0x10001
 800741a:	e9cd 0102 	strd	r0, r1, [sp, #8]
 800741e:	b325      	cbz	r5, 800746a <HAL_UARTEx_SetTxFifoThreshold+0x96>
 8007420:	6895      	ldr	r5, [r2, #8]
 8007422:	6896      	ldr	r6, [r2, #8]
 8007424:	a904      	add	r1, sp, #16
 8007426:	f3c5 6542 	ubfx	r5, r5, #25, #3
 800742a:	440d      	add	r5, r1
 800742c:	eb01 7656 	add.w	r6, r1, r6, lsr #29
 8007430:	f815 1c10 	ldrb.w	r1, [r5, #-16]
 8007434:	f816 0c10 	ldrb.w	r0, [r6, #-16]
 8007438:	f815 7c08 	ldrb.w	r7, [r5, #-8]
 800743c:	f816 5c08 	ldrb.w	r5, [r6, #-8]
 8007440:	00c9      	lsls	r1, r1, #3
 8007442:	00c0      	lsls	r0, r0, #3
 8007444:	fb91 f1f7 	sdiv	r1, r1, r7
 8007448:	fb90 f0f5 	sdiv	r0, r0, r5
 800744c:	f8a3 1068 	strh.w	r1, [r3, #104]	; 0x68
 8007450:	2100      	movs	r1, #0
 8007452:	f8a3 006a 	strh.w	r0, [r3, #106]	; 0x6a
 8007456:	2520      	movs	r5, #32
 8007458:	4608      	mov	r0, r1
 800745a:	6014      	str	r4, [r2, #0]
 800745c:	f8c3 5080 	str.w	r5, [r3, #128]	; 0x80
 8007460:	f883 107c 	strb.w	r1, [r3, #124]	; 0x7c
 8007464:	b004      	add	sp, #16
 8007466:	bcf0      	pop	{r4, r5, r6, r7}
 8007468:	4770      	bx	lr
 800746a:	2101      	movs	r1, #1
 800746c:	4608      	mov	r0, r1
 800746e:	e7ed      	b.n	800744c <HAL_UARTEx_SetTxFifoThreshold+0x78>
 8007470:	2002      	movs	r0, #2
 8007472:	4770      	bx	lr
 8007474:	03010101 	.word	0x03010101

08007478 <HAL_UARTEx_SetRxFifoThreshold>:
 8007478:	f890 207c 	ldrb.w	r2, [r0, #124]	; 0x7c
 800747c:	2a01      	cmp	r2, #1
 800747e:	d049      	beq.n	8007514 <HAL_UARTEx_SetRxFifoThreshold+0x9c>
 8007480:	4603      	mov	r3, r0
 8007482:	2024      	movs	r0, #36	; 0x24
 8007484:	681a      	ldr	r2, [r3, #0]
 8007486:	b4f0      	push	{r4, r5, r6, r7}
 8007488:	f8c3 0080 	str.w	r0, [r3, #128]	; 0x80
 800748c:	6814      	ldr	r4, [r2, #0]
 800748e:	6810      	ldr	r0, [r2, #0]
 8007490:	6e5d      	ldr	r5, [r3, #100]	; 0x64
 8007492:	f020 0001 	bic.w	r0, r0, #1
 8007496:	6010      	str	r0, [r2, #0]
 8007498:	6890      	ldr	r0, [r2, #8]
 800749a:	f020 6060 	bic.w	r0, r0, #234881024	; 0xe000000
 800749e:	b084      	sub	sp, #16
 80074a0:	4301      	orrs	r1, r0
 80074a2:	481d      	ldr	r0, [pc, #116]	; (8007518 <HAL_UARTEx_SetRxFifoThreshold+0xa0>)
 80074a4:	6091      	str	r1, [r2, #8]
 80074a6:	f240 1107 	movw	r1, #263	; 0x107
 80074aa:	9000      	str	r0, [sp, #0]
 80074ac:	9101      	str	r1, [sp, #4]
 80074ae:	f100 3001 	add.w	r0, r0, #16843009	; 0x1010101
 80074b2:	f101 7180 	add.w	r1, r1, #16777216	; 0x1000000
 80074b6:	f200 2006 	addw	r0, r0, #518	; 0x206
 80074ba:	f101 1101 	add.w	r1, r1, #65537	; 0x10001
 80074be:	e9cd 0102 	strd	r0, r1, [sp, #8]
 80074c2:	b325      	cbz	r5, 800750e <HAL_UARTEx_SetRxFifoThreshold+0x96>
 80074c4:	6895      	ldr	r5, [r2, #8]
 80074c6:	6896      	ldr	r6, [r2, #8]
 80074c8:	a904      	add	r1, sp, #16
 80074ca:	f3c5 6542 	ubfx	r5, r5, #25, #3
 80074ce:	440d      	add	r5, r1
 80074d0:	eb01 7656 	add.w	r6, r1, r6, lsr #29
 80074d4:	f815 1c10 	ldrb.w	r1, [r5, #-16]
 80074d8:	f816 0c10 	ldrb.w	r0, [r6, #-16]
 80074dc:	f815 7c08 	ldrb.w	r7, [r5, #-8]
 80074e0:	f816 5c08 	ldrb.w	r5, [r6, #-8]
 80074e4:	00c9      	lsls	r1, r1, #3
 80074e6:	00c0      	lsls	r0, r0, #3
 80074e8:	fb91 f1f7 	sdiv	r1, r1, r7
 80074ec:	fb90 f0f5 	sdiv	r0, r0, r5
 80074f0:	f8a3 1068 	strh.w	r1, [r3, #104]	; 0x68
 80074f4:	2100      	movs	r1, #0
 80074f6:	f8a3 006a 	strh.w	r0, [r3, #106]	; 0x6a
 80074fa:	2520      	movs	r5, #32
 80074fc:	4608      	mov	r0, r1
 80074fe:	6014      	str	r4, [r2, #0]
 8007500:	f8c3 5080 	str.w	r5, [r3, #128]	; 0x80
 8007504:	f883 107c 	strb.w	r1, [r3, #124]	; 0x7c
 8007508:	b004      	add	sp, #16
 800750a:	bcf0      	pop	{r4, r5, r6, r7}
 800750c:	4770      	bx	lr
 800750e:	2101      	movs	r1, #1
 8007510:	4608      	mov	r0, r1
 8007512:	e7ed      	b.n	80074f0 <HAL_UARTEx_SetRxFifoThreshold+0x78>
 8007514:	2002      	movs	r0, #2
 8007516:	4770      	bx	lr
 8007518:	03010101 	.word	0x03010101

0800751c <VBS_GetAvBusVoltage_d>:
 800751c:	88c0      	ldrh	r0, [r0, #6]
 800751e:	4770      	bx	lr

08007520 <VBS_GetAvBusVoltage_V>:
 8007520:	88c3      	ldrh	r3, [r0, #6]
 8007522:	8840      	ldrh	r0, [r0, #2]
 8007524:	fb03 f000 	mul.w	r0, r3, r0
 8007528:	0c00      	lsrs	r0, r0, #16
 800752a:	4770      	bx	lr

0800752c <Circle_Limitation>:
 800752c:	b410      	push	{r4}
 800752e:	140b      	asrs	r3, r1, #16
 8007530:	8802      	ldrh	r2, [r0, #0]
 8007532:	b209      	sxth	r1, r1
 8007534:	fb03 f403 	mul.w	r4, r3, r3
 8007538:	fb02 f202 	mul.w	r2, r2, r2
 800753c:	fb01 4401 	mla	r4, r1, r1, r4
 8007540:	42a2      	cmp	r2, r4
 8007542:	b085      	sub	sp, #20
 8007544:	d219      	bcs.n	800757a <Circle_Limitation+0x4e>
 8007546:	f890 20b2 	ldrb.w	r2, [r0, #178]	; 0xb2
 800754a:	ebc2 6414 	rsb	r4, r2, r4, lsr #24
 800754e:	b2e4      	uxtb	r4, r4
 8007550:	eb00 0044 	add.w	r0, r0, r4, lsl #1
 8007554:	8882      	ldrh	r2, [r0, #4]
 8007556:	fb02 f101 	mul.w	r1, r2, r1
 800755a:	2900      	cmp	r1, #0
 800755c:	fb02 f303 	mul.w	r3, r2, r3
 8007560:	bfbc      	itt	lt
 8007562:	f501 41ff 	addlt.w	r1, r1, #32640	; 0x7f80
 8007566:	317f      	addlt	r1, #127	; 0x7f
 8007568:	2b00      	cmp	r3, #0
 800756a:	bfbc      	itt	lt
 800756c:	f503 43ff 	addlt.w	r3, r3, #32640	; 0x7f80
 8007570:	337f      	addlt	r3, #127	; 0x7f
 8007572:	f341 31cf 	sbfx	r1, r1, #15, #16
 8007576:	f343 33cf 	sbfx	r3, r3, #15, #16
 800757a:	b289      	uxth	r1, r1
 800757c:	2000      	movs	r0, #0
 800757e:	b29b      	uxth	r3, r3
 8007580:	f361 000f 	bfi	r0, r1, #0, #16
 8007584:	f363 401f 	bfi	r0, r3, #16, #16
 8007588:	b005      	add	sp, #20
 800758a:	f85d 4b04 	ldr.w	r4, [sp], #4
 800758e:	4770      	bx	lr

08007590 <DAC_SetChannelConfig>:
 8007590:	4401      	add	r1, r0
 8007592:	f881 2030 	strb.w	r2, [r1, #48]	; 0x30
 8007596:	4770      	bx	lr

08007598 <DAC_GetChannelConfig>:
 8007598:	4401      	add	r1, r0
 800759a:	f891 0030 	ldrb.w	r0, [r1, #48]	; 0x30
 800759e:	4770      	bx	lr

080075a0 <DAC_SetUserChannelValue>:
 80075a0:	eb00 0141 	add.w	r1, r0, r1, lsl #1
 80075a4:	864a      	strh	r2, [r1, #50]	; 0x32
 80075a6:	4770      	bx	lr

080075a8 <DAC_GetUserChannelValue>:
 80075a8:	eb00 0141 	add.w	r1, r0, r1, lsl #1
 80075ac:	f9b1 0032 	ldrsh.w	r0, [r1, #50]	; 0x32
 80075b0:	4770      	bx	lr
 80075b2:	bf00      	nop

080075b4 <FCP_Init>:
 80075b4:	2300      	movs	r3, #0
 80075b6:	8243      	strh	r3, [r0, #18]
 80075b8:	8283      	strh	r3, [r0, #20]
 80075ba:	f8c0 3096 	str.w	r3, [r0, #150]	; 0x96
 80075be:	f880 309a 	strb.w	r3, [r0, #154]	; 0x9a
 80075c2:	f880 311b 	strb.w	r3, [r0, #283]	; 0x11b
 80075c6:	f880 311c 	strb.w	r3, [r0, #284]	; 0x11c
 80075ca:	f880 311d 	strb.w	r3, [r0, #285]	; 0x11d
 80075ce:	4770      	bx	lr

080075d0 <FCP_SetClient>:
 80075d0:	b120      	cbz	r0, 80075dc <FCP_SetClient+0xc>
 80075d2:	e9c0 1200 	strd	r1, r2, [r0]
 80075d6:	6083      	str	r3, [r0, #8]
 80075d8:	9b00      	ldr	r3, [sp, #0]
 80075da:	60c3      	str	r3, [r0, #12]
 80075dc:	4770      	bx	lr
 80075de:	bf00      	nop

080075e0 <FCP_CalcCRC>:
 80075e0:	b190      	cbz	r0, 8007608 <FCP_CalcCRC+0x28>
 80075e2:	7841      	ldrb	r1, [r0, #1]
 80075e4:	7802      	ldrb	r2, [r0, #0]
 80075e6:	1853      	adds	r3, r2, r1
 80075e8:	b151      	cbz	r1, 8007600 <FCP_CalcCRC+0x20>
 80075ea:	1e4a      	subs	r2, r1, #1
 80075ec:	1c81      	adds	r1, r0, #2
 80075ee:	fa51 f282 	uxtab	r2, r1, r2
 80075f2:	3001      	adds	r0, #1
 80075f4:	f810 1f01 	ldrb.w	r1, [r0, #1]!
 80075f8:	440b      	add	r3, r1
 80075fa:	4282      	cmp	r2, r0
 80075fc:	b29b      	uxth	r3, r3
 80075fe:	d1f9      	bne.n	80075f4 <FCP_CalcCRC+0x14>
 8007600:	eb03 2313 	add.w	r3, r3, r3, lsr #8
 8007604:	f003 00ff 	and.w	r0, r3, #255	; 0xff
 8007608:	4770      	bx	lr
 800760a:	bf00      	nop

0800760c <MPM_Clear>:
 800760c:	b508      	push	{r3, lr}
 800760e:	f44f 7280 	mov.w	r2, #256	; 0x100
 8007612:	2100      	movs	r1, #0
 8007614:	f002 fafa 	bl	8009c0c <memset>
 8007618:	2200      	movs	r2, #0
 800761a:	f8c0 2100 	str.w	r2, [r0, #256]	; 0x100
 800761e:	bd08      	pop	{r3, pc}

08007620 <MPM_CalcElMotorPower>:
 8007620:	f8b0 2100 	ldrh.w	r2, [r0, #256]	; 0x100
 8007624:	1c53      	adds	r3, r2, #1
 8007626:	b29b      	uxth	r3, r3
 8007628:	2b7f      	cmp	r3, #127	; 0x7f
 800762a:	bf88      	it	hi
 800762c:	2300      	movhi	r3, #0
 800762e:	b430      	push	{r4, r5}
 8007630:	f820 1012 	strh.w	r1, [r0, r2, lsl #1]
 8007634:	f100 05fe 	add.w	r5, r0, #254	; 0xfe
 8007638:	f8a0 2102 	strh.w	r2, [r0, #258]	; 0x102
 800763c:	f8a0 3100 	strh.w	r3, [r0, #256]	; 0x100
 8007640:	2200      	movs	r2, #0
 8007642:	1e83      	subs	r3, r0, #2
 8007644:	f933 4f02 	ldrsh.w	r4, [r3, #2]!
 8007648:	42ab      	cmp	r3, r5
 800764a:	4422      	add	r2, r4
 800764c:	d1fa      	bne.n	8007644 <MPM_CalcElMotorPower+0x24>
 800764e:	2a00      	cmp	r2, #0
 8007650:	bfb8      	it	lt
 8007652:	327f      	addlt	r2, #127	; 0x7f
 8007654:	11d2      	asrs	r2, r2, #7
 8007656:	f8a0 2104 	strh.w	r2, [r0, #260]	; 0x104
 800765a:	bc30      	pop	{r4, r5}
 800765c:	4608      	mov	r0, r1
 800765e:	4770      	bx	lr

08007660 <MPM_GetAvrgElMotorPowerW>:
 8007660:	f9b0 0104 	ldrsh.w	r0, [r0, #260]	; 0x104
 8007664:	4770      	bx	lr
 8007666:	bf00      	nop

08007668 <NTC_SetFaultState>:
 8007668:	8a03      	ldrh	r3, [r0, #16]
 800766a:	8b42      	ldrh	r2, [r0, #26]
 800766c:	429a      	cmp	r2, r3
 800766e:	d306      	bcc.n	800767e <NTC_SetFaultState+0x16>
 8007670:	8b82      	ldrh	r2, [r0, #28]
 8007672:	429a      	cmp	r2, r3
 8007674:	d801      	bhi.n	800767a <NTC_SetFaultState+0x12>
 8007676:	8ac0      	ldrh	r0, [r0, #22]
 8007678:	4770      	bx	lr
 800767a:	2000      	movs	r0, #0
 800767c:	4770      	bx	lr
 800767e:	2008      	movs	r0, #8
 8007680:	4770      	bx	lr
 8007682:	bf00      	nop

08007684 <NTC_Clear>:
 8007684:	2300      	movs	r3, #0
 8007686:	8203      	strh	r3, [r0, #16]
 8007688:	4770      	bx	lr
 800768a:	bf00      	nop

0800768c <NTC_Init>:
 800768c:	7803      	ldrb	r3, [r0, #0]
 800768e:	b123      	cbz	r3, 800769a <NTC_Init+0xe>
 8007690:	2200      	movs	r2, #0
 8007692:	8a43      	ldrh	r3, [r0, #18]
 8007694:	82c2      	strh	r2, [r0, #22]
 8007696:	8203      	strh	r3, [r0, #16]
 8007698:	4770      	bx	lr
 800769a:	b510      	push	{r4, lr}
 800769c:	4604      	mov	r4, r0
 800769e:	3004      	adds	r0, #4
 80076a0:	f7fa ffca 	bl	8002638 <RCM_RegisterRegConv>
 80076a4:	f884 0026 	strb.w	r0, [r4, #38]	; 0x26
 80076a8:	4620      	mov	r0, r4
 80076aa:	f7ff ffeb 	bl	8007684 <NTC_Clear>
 80076ae:	bd10      	pop	{r4, pc}

080076b0 <NTC_CalcAvTemp>:
 80076b0:	7803      	ldrb	r3, [r0, #0]
 80076b2:	b11b      	cbz	r3, 80076bc <NTC_CalcAvTemp+0xc>
 80076b4:	2300      	movs	r3, #0
 80076b6:	82c3      	strh	r3, [r0, #22]
 80076b8:	4618      	mov	r0, r3
 80076ba:	4770      	bx	lr
 80076bc:	b510      	push	{r4, lr}
 80076be:	4604      	mov	r4, r0
 80076c0:	f890 0026 	ldrb.w	r0, [r0, #38]	; 0x26
 80076c4:	f7fb f878 	bl	80027b8 <RCM_ExecRegularConv>
 80076c8:	f64f 73ff 	movw	r3, #65535	; 0xffff
 80076cc:	4298      	cmp	r0, r3
 80076ce:	d007      	beq.n	80076e0 <NTC_CalcAvTemp+0x30>
 80076d0:	8b22      	ldrh	r2, [r4, #24]
 80076d2:	8a23      	ldrh	r3, [r4, #16]
 80076d4:	1e51      	subs	r1, r2, #1
 80076d6:	fb01 0003 	mla	r0, r1, r3, r0
 80076da:	fbb0 f0f2 	udiv	r0, r0, r2
 80076de:	8220      	strh	r0, [r4, #16]
 80076e0:	4620      	mov	r0, r4
 80076e2:	f7ff ffc1 	bl	8007668 <NTC_SetFaultState>
 80076e6:	82e0      	strh	r0, [r4, #22]
 80076e8:	bd10      	pop	{r4, pc}
 80076ea:	bf00      	nop

080076ec <NTC_GetAvTemp_C>:
 80076ec:	7803      	ldrb	r3, [r0, #0]
 80076ee:	b113      	cbz	r3, 80076f6 <NTC_GetAvTemp_C+0xa>
 80076f0:	8a80      	ldrh	r0, [r0, #20]
 80076f2:	b200      	sxth	r0, r0
 80076f4:	4770      	bx	lr
 80076f6:	8a03      	ldrh	r3, [r0, #16]
 80076f8:	6a01      	ldr	r1, [r0, #32]
 80076fa:	f9b0 201e 	ldrsh.w	r2, [r0, #30]
 80076fe:	8c80      	ldrh	r0, [r0, #36]	; 0x24
 8007700:	1a5b      	subs	r3, r3, r1
 8007702:	fb03 f302 	mul.w	r3, r3, r2
 8007706:	2b00      	cmp	r3, #0
 8007708:	bfbc      	itt	lt
 800770a:	f503 437f 	addlt.w	r3, r3, #65280	; 0xff00
 800770e:	33ff      	addlt	r3, #255	; 0xff
 8007710:	eb00 4023 	add.w	r0, r0, r3, asr #16
 8007714:	b200      	sxth	r0, r0
 8007716:	4770      	bx	lr

08007718 <PID_HandleInit>:
 8007718:	2300      	movs	r3, #0
 800771a:	6801      	ldr	r1, [r0, #0]
 800771c:	8c02      	ldrh	r2, [r0, #32]
 800771e:	6041      	str	r1, [r0, #4]
 8007720:	8442      	strh	r2, [r0, #34]	; 0x22
 8007722:	6083      	str	r3, [r0, #8]
 8007724:	6283      	str	r3, [r0, #40]	; 0x28
 8007726:	4770      	bx	lr

08007728 <PID_SetKP>:
 8007728:	8081      	strh	r1, [r0, #4]
 800772a:	4770      	bx	lr

0800772c <PID_SetKI>:
 800772c:	80c1      	strh	r1, [r0, #6]
 800772e:	4770      	bx	lr

08007730 <PID_GetKP>:
 8007730:	f9b0 0004 	ldrsh.w	r0, [r0, #4]
 8007734:	4770      	bx	lr
 8007736:	bf00      	nop

08007738 <PID_GetKI>:
 8007738:	f9b0 0006 	ldrsh.w	r0, [r0, #6]
 800773c:	4770      	bx	lr
 800773e:	bf00      	nop

08007740 <PID_SetIntegralTerm>:
 8007740:	6081      	str	r1, [r0, #8]
 8007742:	4770      	bx	lr

08007744 <PID_GetKPDivisor>:
 8007744:	8b00      	ldrh	r0, [r0, #24]
 8007746:	4770      	bx	lr

08007748 <PID_GetKIDivisor>:
 8007748:	8b40      	ldrh	r0, [r0, #26]
 800774a:	4770      	bx	lr

0800774c <PID_SetKD>:
 800774c:	8441      	strh	r1, [r0, #34]	; 0x22
 800774e:	4770      	bx	lr

08007750 <PID_GetKD>:
 8007750:	f9b0 0022 	ldrsh.w	r0, [r0, #34]	; 0x22
 8007754:	4770      	bx	lr
 8007756:	bf00      	nop

08007758 <PI_Controller>:
 8007758:	f9b0 2004 	ldrsh.w	r2, [r0, #4]
 800775c:	f9b0 3006 	ldrsh.w	r3, [r0, #6]
 8007760:	b4f0      	push	{r4, r5, r6, r7}
 8007762:	fb01 f202 	mul.w	r2, r1, r2
 8007766:	f9b0 5014 	ldrsh.w	r5, [r0, #20]
 800776a:	f9b0 6016 	ldrsh.w	r6, [r0, #22]
 800776e:	b18b      	cbz	r3, 8007794 <PI_Controller+0x3c>
 8007770:	e9d0 7402 	ldrd	r7, r4, [r0, #8]
 8007774:	fb01 f103 	mul.w	r1, r1, r3
 8007778:	187b      	adds	r3, r7, r1
 800777a:	d424      	bmi.n	80077c6 <PI_Controller+0x6e>
 800777c:	2f00      	cmp	r7, #0
 800777e:	da04      	bge.n	800778a <PI_Controller+0x32>
 8007780:	4f16      	ldr	r7, [pc, #88]	; (80077dc <PI_Controller+0x84>)
 8007782:	ea33 0321 	bics.w	r3, r3, r1, asr #32
 8007786:	bf28      	it	cs
 8007788:	463b      	movcs	r3, r7
 800778a:	42a3      	cmp	r3, r4
 800778c:	dc03      	bgt.n	8007796 <PI_Controller+0x3e>
 800778e:	6904      	ldr	r4, [r0, #16]
 8007790:	429c      	cmp	r4, r3
 8007792:	dc00      	bgt.n	8007796 <PI_Controller+0x3e>
 8007794:	461c      	mov	r4, r3
 8007796:	8b81      	ldrh	r1, [r0, #28]
 8007798:	8bc3      	ldrh	r3, [r0, #30]
 800779a:	410a      	asrs	r2, r1
 800779c:	fa44 f303 	asr.w	r3, r4, r3
 80077a0:	4413      	add	r3, r2
 80077a2:	429d      	cmp	r5, r3
 80077a4:	db08      	blt.n	80077b8 <PI_Controller+0x60>
 80077a6:	429e      	cmp	r6, r3
 80077a8:	dd02      	ble.n	80077b0 <PI_Controller+0x58>
 80077aa:	1af3      	subs	r3, r6, r3
 80077ac:	441c      	add	r4, r3
 80077ae:	4633      	mov	r3, r6
 80077b0:	6084      	str	r4, [r0, #8]
 80077b2:	b218      	sxth	r0, r3
 80077b4:	bcf0      	pop	{r4, r5, r6, r7}
 80077b6:	4770      	bx	lr
 80077b8:	1aeb      	subs	r3, r5, r3
 80077ba:	441c      	add	r4, r3
 80077bc:	462b      	mov	r3, r5
 80077be:	6084      	str	r4, [r0, #8]
 80077c0:	b218      	sxth	r0, r3
 80077c2:	bcf0      	pop	{r4, r5, r6, r7}
 80077c4:	4770      	bx	lr
 80077c6:	2f00      	cmp	r7, #0
 80077c8:	dddf      	ble.n	800778a <PI_Controller+0x32>
 80077ca:	2900      	cmp	r1, #0
 80077cc:	dddd      	ble.n	800778a <PI_Controller+0x32>
 80077ce:	f06f 4300 	mvn.w	r3, #2147483648	; 0x80000000
 80077d2:	429c      	cmp	r4, r3
 80077d4:	d1df      	bne.n	8007796 <PI_Controller+0x3e>
 80077d6:	4623      	mov	r3, r4
 80077d8:	e7dc      	b.n	8007794 <PI_Controller+0x3c>
 80077da:	bf00      	nop
 80077dc:	80000001 	.word	0x80000001

080077e0 <PQD_CalcElMotorPower>:
 80077e0:	f8d0 110c 	ldr.w	r1, [r0, #268]	; 0x10c
 80077e4:	b570      	push	{r4, r5, r6, lr}
 80077e6:	8b0c      	ldrh	r4, [r1, #24]
 80077e8:	89cd      	ldrh	r5, [r1, #14]
 80077ea:	898a      	ldrh	r2, [r1, #12]
 80077ec:	8acb      	ldrh	r3, [r1, #22]
 80077ee:	4606      	mov	r6, r0
 80077f0:	fb15 f504 	smulbb	r5, r5, r4
 80077f4:	f8d0 0110 	ldr.w	r0, [r0, #272]	; 0x110
 80077f8:	f8d6 4108 	ldr.w	r4, [r6, #264]	; 0x108
 80077fc:	fb12 5503 	smlabb	r5, r2, r3, r5
 8007800:	f7ff fe8e 	bl	8007520 <VBS_GetAvBusVoltage_V>
 8007804:	1e2a      	subs	r2, r5, #0
 8007806:	4b0f      	ldr	r3, [pc, #60]	; (8007844 <PQD_CalcElMotorPower+0x64>)
 8007808:	490f      	ldr	r1, [pc, #60]	; (8007848 <PQD_CalcElMotorPower+0x68>)
 800780a:	fb04 f000 	mul.w	r0, r4, r0
 800780e:	bfb8      	it	lt
 8007810:	f502 427f 	addlt.w	r2, r2, #65280	; 0xff00
 8007814:	fb83 4300 	smull	r4, r3, r3, r0
 8007818:	bfb8      	it	lt
 800781a:	32ff      	addlt	r2, #255	; 0xff
 800781c:	17c0      	asrs	r0, r0, #31
 800781e:	1412      	asrs	r2, r2, #16
 8007820:	ebc0 13a3 	rsb	r3, r0, r3, asr #6
 8007824:	fb03 f302 	mul.w	r3, r3, r2
 8007828:	eb03 0343 	add.w	r3, r3, r3, lsl #1
 800782c:	005b      	lsls	r3, r3, #1
 800782e:	fb81 2103 	smull	r2, r1, r1, r3
 8007832:	17db      	asrs	r3, r3, #31
 8007834:	4630      	mov	r0, r6
 8007836:	ebc3 41a1 	rsb	r1, r3, r1, asr #18
 800783a:	e8bd 4070 	ldmia.w	sp!, {r4, r5, r6, lr}
 800783e:	f7ff beef 	b.w	8007620 <MPM_CalcElMotorPower>
 8007842:	bf00      	nop
 8007844:	1b4e81b5 	.word	0x1b4e81b5
 8007848:	66666667 	.word	0x66666667

0800784c <startTimers>:
 800784c:	b430      	push	{r4, r5}
 800784e:	4b18      	ldr	r3, [pc, #96]	; (80078b0 <startTimers+0x64>)
 8007850:	6d9a      	ldr	r2, [r3, #88]	; 0x58
 8007852:	07d2      	lsls	r2, r2, #31
 8007854:	b082      	sub	sp, #8
 8007856:	d415      	bmi.n	8007884 <startTimers+0x38>
 8007858:	6d9a      	ldr	r2, [r3, #88]	; 0x58
 800785a:	f042 0201 	orr.w	r2, r2, #1
 800785e:	659a      	str	r2, [r3, #88]	; 0x58
 8007860:	6d9a      	ldr	r2, [r3, #88]	; 0x58
 8007862:	f04f 4180 	mov.w	r1, #1073741824	; 0x40000000
 8007866:	f002 0201 	and.w	r2, r2, #1
 800786a:	9201      	str	r2, [sp, #4]
 800786c:	9a01      	ldr	r2, [sp, #4]
 800786e:	694a      	ldr	r2, [r1, #20]
 8007870:	f042 0201 	orr.w	r2, r2, #1
 8007874:	614a      	str	r2, [r1, #20]
 8007876:	6d9a      	ldr	r2, [r3, #88]	; 0x58
 8007878:	f022 0201 	bic.w	r2, r2, #1
 800787c:	659a      	str	r2, [r3, #88]	; 0x58
 800787e:	b002      	add	sp, #8
 8007880:	bc30      	pop	{r4, r5}
 8007882:	4770      	bx	lr
 8007884:	f04f 4380 	mov.w	r3, #1073741824	; 0x40000000
 8007888:	4c0a      	ldr	r4, [pc, #40]	; (80078b4 <startTimers+0x68>)
 800788a:	685a      	ldr	r2, [r3, #4]
 800788c:	6859      	ldr	r1, [r3, #4]
 800788e:	4d0a      	ldr	r5, [pc, #40]	; (80078b8 <startTimers+0x6c>)
 8007890:	4021      	ands	r1, r4
 8007892:	f041 0120 	orr.w	r1, r1, #32
 8007896:	6059      	str	r1, [r3, #4]
 8007898:	6958      	ldr	r0, [r3, #20]
 800789a:	f040 0001 	orr.w	r0, r0, #1
 800789e:	6158      	str	r0, [r3, #20]
 80078a0:	6859      	ldr	r1, [r3, #4]
 80078a2:	402a      	ands	r2, r5
 80078a4:	4021      	ands	r1, r4
 80078a6:	430a      	orrs	r2, r1
 80078a8:	605a      	str	r2, [r3, #4]
 80078aa:	b002      	add	sp, #8
 80078ac:	bc30      	pop	{r4, r5}
 80078ae:	4770      	bx	lr
 80078b0:	40021000 	.word	0x40021000
 80078b4:	fdffff8f 	.word	0xfdffff8f
 80078b8:	02000070 	.word	0x02000070

080078bc <waitForPolarizationEnd>:
 80078bc:	b470      	push	{r4, r5, r6}
 80078be:	6804      	ldr	r4, [r0, #0]
 80078c0:	f004 0470 	and.w	r4, r4, #112	; 0x70
 80078c4:	3201      	adds	r2, #1
 80078c6:	2c60      	cmp	r4, #96	; 0x60
 80078c8:	f06f 0602 	mvn.w	r6, #2
 80078cc:	bf18      	it	ne
 80078ce:	0852      	lsrne	r2, r2, #1
 80078d0:	6106      	str	r6, [r0, #16]
 80078d2:	0155      	lsls	r5, r2, #5
 80078d4:	781a      	ldrb	r2, [r3, #0]
 80078d6:	2400      	movs	r4, #0
 80078d8:	2a0f      	cmp	r2, #15
 80078da:	d80c      	bhi.n	80078f6 <waitForPolarizationEnd+0x3a>
 80078dc:	6902      	ldr	r2, [r0, #16]
 80078de:	0792      	lsls	r2, r2, #30
 80078e0:	d5fc      	bpl.n	80078dc <waitForPolarizationEnd+0x20>
 80078e2:	3401      	adds	r4, #1
 80078e4:	b2a4      	uxth	r4, r4
 80078e6:	6106      	str	r6, [r0, #16]
 80078e8:	42a5      	cmp	r5, r4
 80078ea:	781a      	ldrb	r2, [r3, #0]
 80078ec:	d8f4      	bhi.n	80078d8 <waitForPolarizationEnd+0x1c>
 80078ee:	2a0f      	cmp	r2, #15
 80078f0:	d8f2      	bhi.n	80078d8 <waitForPolarizationEnd+0x1c>
 80078f2:	2301      	movs	r3, #1
 80078f4:	800b      	strh	r3, [r1, #0]
 80078f6:	bc70      	pop	{r4, r5, r6}
 80078f8:	4770      	bx	lr
 80078fa:	bf00      	nop

080078fc <PWMC_GetPhaseCurrents>:
 80078fc:	6843      	ldr	r3, [r0, #4]
 80078fe:	4718      	bx	r3

08007900 <PWMC_SetPhaseVoltage>:
 8007900:	b4f0      	push	{r4, r5, r6, r7}
 8007902:	f8b0 5050 	ldrh.w	r5, [r0, #80]	; 0x50
 8007906:	8e07      	ldrh	r7, [r0, #48]	; 0x30
 8007908:	140b      	asrs	r3, r1, #16
 800790a:	b082      	sub	sp, #8
 800790c:	fb05 f303 	mul.w	r3, r5, r3
 8007910:	9101      	str	r1, [sp, #4]
 8007912:	ebc3 73c3 	rsb	r3, r3, r3, lsl #31
 8007916:	b209      	sxth	r1, r1
 8007918:	005b      	lsls	r3, r3, #1
 800791a:	fb07 f101 	mul.w	r1, r7, r1
 800791e:	1a5f      	subs	r7, r3, r1
 8007920:	4419      	add	r1, r3
 8007922:	eb01 72d1 	add.w	r2, r1, r1, lsr #31
 8007926:	eb07 74d7 	add.w	r4, r7, r7, lsr #31
 800792a:	1052      	asrs	r2, r2, #1
 800792c:	ea4f 0695 	mov.w	r6, r5, lsr #2
 8007930:	ea4f 0464 	mov.w	r4, r4, asr #1
 8007934:	d46b      	bmi.n	8007a0e <PWMC_SetPhaseVoltage+0x10e>
 8007936:	2c00      	cmp	r4, #0
 8007938:	db46      	blt.n	80079c8 <PWMC_SetPhaseVoltage+0xc8>
 800793a:	1b12      	subs	r2, r2, r4
 800793c:	bf44      	itt	mi
 800793e:	f502 327f 	addmi.w	r2, r2, #261120	; 0x3fc00
 8007942:	f202 32ff 	addwmi	r2, r2, #1023	; 0x3ff
 8007946:	1e3c      	subs	r4, r7, #0
 8007948:	bfbc      	itt	lt
 800794a:	f504 347f 	addlt.w	r4, r4, #261120	; 0x3fc00
 800794e:	f204 34ff 	addwlt	r4, r4, #1023	; 0x3ff
 8007952:	2900      	cmp	r1, #0
 8007954:	bfb8      	it	lt
 8007956:	f501 317f 	addlt.w	r1, r1, #261120	; 0x3fc00
 800795a:	eb06 42a2 	add.w	r2, r6, r2, asr #18
 800795e:	bfb8      	it	lt
 8007960:	f201 31ff 	addwlt	r1, r1, #1023	; 0x3ff
 8007964:	eb02 44a4 	add.w	r4, r2, r4, asr #18
 8007968:	b295      	uxth	r5, r2
 800796a:	eba2 42a1 	sub.w	r2, r2, r1, asr #18
 800796e:	2301      	movs	r3, #1
 8007970:	b2a4      	uxth	r4, r4
 8007972:	b292      	uxth	r2, r2
 8007974:	f880 303a 	strb.w	r3, [r0, #58]	; 0x3a
 8007978:	8784      	strh	r4, [r0, #60]	; 0x3c
 800797a:	87c5      	strh	r5, [r0, #62]	; 0x3e
 800797c:	f8a0 2040 	strh.w	r2, [r0, #64]	; 0x40
 8007980:	f8b0 304e 	ldrh.w	r3, [r0, #78]	; 0x4e
 8007984:	8645      	strh	r5, [r0, #50]	; 0x32
 8007986:	2b01      	cmp	r3, #1
 8007988:	8684      	strh	r4, [r0, #52]	; 0x34
 800798a:	86c2      	strh	r2, [r0, #54]	; 0x36
 800798c:	d118      	bne.n	80079c0 <PWMC_SetPhaseVoltage+0xc0>
 800798e:	f9b0 3048 	ldrsh.w	r3, [r0, #72]	; 0x48
 8007992:	f8b0 7054 	ldrh.w	r7, [r0, #84]	; 0x54
 8007996:	2b00      	cmp	r3, #0
 8007998:	f9b0 304a 	ldrsh.w	r3, [r0, #74]	; 0x4a
 800799c:	bfcc      	ite	gt
 800799e:	19ed      	addgt	r5, r5, r7
 80079a0:	1bed      	suble	r5, r5, r7
 80079a2:	2b00      	cmp	r3, #0
 80079a4:	f9b0 304c 	ldrsh.w	r3, [r0, #76]	; 0x4c
 80079a8:	bfcc      	ite	gt
 80079aa:	19e4      	addgt	r4, r4, r7
 80079ac:	1be4      	suble	r4, r4, r7
 80079ae:	2b00      	cmp	r3, #0
 80079b0:	b2ad      	uxth	r5, r5
 80079b2:	b2a4      	uxth	r4, r4
 80079b4:	bfcc      	ite	gt
 80079b6:	19d2      	addgt	r2, r2, r7
 80079b8:	1bd2      	suble	r2, r2, r7
 80079ba:	8645      	strh	r5, [r0, #50]	; 0x32
 80079bc:	8684      	strh	r4, [r0, #52]	; 0x34
 80079be:	86c2      	strh	r2, [r0, #54]	; 0x36
 80079c0:	6983      	ldr	r3, [r0, #24]
 80079c2:	b002      	add	sp, #8
 80079c4:	bcf0      	pop	{r4, r5, r6, r7}
 80079c6:	4718      	bx	r3
 80079c8:	2b00      	cmp	r3, #0
 80079ca:	dd42      	ble.n	8007a52 <PWMC_SetPhaseVoltage+0x152>
 80079cc:	2f00      	cmp	r7, #0
 80079ce:	bfb8      	it	lt
 80079d0:	f507 377f 	addlt.w	r7, r7, #261120	; 0x3fc00
 80079d4:	eba3 0404 	sub.w	r4, r3, r4
 80079d8:	bfb8      	it	lt
 80079da:	f207 37ff 	addwlt	r7, r7, #1023	; 0x3ff
 80079de:	2b00      	cmp	r3, #0
 80079e0:	eb06 45a4 	add.w	r5, r6, r4, asr #18
 80079e4:	bfb8      	it	lt
 80079e6:	f503 33ff 	addlt.w	r3, r3, #130560	; 0x1fe00
 80079ea:	eb05 47a7 	add.w	r7, r5, r7, asr #18
 80079ee:	bfb8      	it	lt
 80079f0:	f203 13ff 	addwlt	r3, r3, #511	; 0x1ff
 80079f4:	2200      	movs	r2, #0
 80079f6:	b2bc      	uxth	r4, r7
 80079f8:	eba7 4763 	sub.w	r7, r7, r3, asr #17
 80079fc:	f880 203a 	strb.w	r2, [r0, #58]	; 0x3a
 8007a00:	b2ad      	uxth	r5, r5
 8007a02:	b2ba      	uxth	r2, r7
 8007a04:	8785      	strh	r5, [r0, #60]	; 0x3c
 8007a06:	87c4      	strh	r4, [r0, #62]	; 0x3e
 8007a08:	f8a0 2040 	strh.w	r2, [r0, #64]	; 0x40
 8007a0c:	e7b8      	b.n	8007980 <PWMC_SetPhaseVoltage+0x80>
 8007a0e:	2c00      	cmp	r4, #0
 8007a10:	db65      	blt.n	8007ade <PWMC_SetPhaseVoltage+0x1de>
 8007a12:	2b00      	cmp	r3, #0
 8007a14:	dd3e      	ble.n	8007a94 <PWMC_SetPhaseVoltage+0x194>
 8007a16:	1ad5      	subs	r5, r2, r3
 8007a18:	bf44      	itt	mi
 8007a1a:	f505 357f 	addmi.w	r5, r5, #261120	; 0x3fc00
 8007a1e:	f205 35ff 	addwmi	r5, r5, #1023	; 0x3ff
 8007a22:	2900      	cmp	r1, #0
 8007a24:	bfb8      	it	lt
 8007a26:	f501 317f 	addlt.w	r1, r1, #261120	; 0x3fc00
 8007a2a:	eb06 45a5 	add.w	r5, r6, r5, asr #18
 8007a2e:	bfb8      	it	lt
 8007a30:	f201 31ff 	addwlt	r1, r1, #1023	; 0x3ff
 8007a34:	eba5 42a1 	sub.w	r2, r5, r1, asr #18
 8007a38:	2402      	movs	r4, #2
 8007a3a:	f880 403a 	strb.w	r4, [r0, #58]	; 0x3a
 8007a3e:	eb02 4463 	add.w	r4, r2, r3, asr #17
 8007a42:	b2a4      	uxth	r4, r4
 8007a44:	b292      	uxth	r2, r2
 8007a46:	b2ad      	uxth	r5, r5
 8007a48:	8784      	strh	r4, [r0, #60]	; 0x3c
 8007a4a:	87c2      	strh	r2, [r0, #62]	; 0x3e
 8007a4c:	f8a0 5040 	strh.w	r5, [r0, #64]	; 0x40
 8007a50:	e796      	b.n	8007980 <PWMC_SetPhaseVoltage+0x80>
 8007a52:	2900      	cmp	r1, #0
 8007a54:	bfb8      	it	lt
 8007a56:	f501 317f 	addlt.w	r1, r1, #261120	; 0x3fc00
 8007a5a:	eba2 0503 	sub.w	r5, r2, r3
 8007a5e:	bfb8      	it	lt
 8007a60:	f201 31ff 	addwlt	r1, r1, #1023	; 0x3ff
 8007a64:	1e1c      	subs	r4, r3, #0
 8007a66:	eb06 45a5 	add.w	r5, r6, r5, asr #18
 8007a6a:	bfb8      	it	lt
 8007a6c:	f504 34ff 	addlt.w	r4, r4, #130560	; 0x1fe00
 8007a70:	eba5 41a1 	sub.w	r1, r5, r1, asr #18
 8007a74:	bfb8      	it	lt
 8007a76:	f204 14ff 	addwlt	r4, r4, #511	; 0x1ff
 8007a7a:	2205      	movs	r2, #5
 8007a7c:	eb01 4464 	add.w	r4, r1, r4, asr #17
 8007a80:	f880 203a 	strb.w	r2, [r0, #58]	; 0x3a
 8007a84:	b2ad      	uxth	r5, r5
 8007a86:	b28a      	uxth	r2, r1
 8007a88:	b2a4      	uxth	r4, r4
 8007a8a:	8785      	strh	r5, [r0, #60]	; 0x3c
 8007a8c:	87c2      	strh	r2, [r0, #62]	; 0x3e
 8007a8e:	f8a0 4040 	strh.w	r4, [r0, #64]	; 0x40
 8007a92:	e775      	b.n	8007980 <PWMC_SetPhaseVoltage+0x80>
 8007a94:	1b1c      	subs	r4, r3, r4
 8007a96:	bf44      	itt	mi
 8007a98:	f504 347f 	addmi.w	r4, r4, #261120	; 0x3fc00
 8007a9c:	f204 34ff 	addwmi	r4, r4, #1023	; 0x3ff
 8007aa0:	eb06 45a4 	add.w	r5, r6, r4, asr #18
 8007aa4:	1e3c      	subs	r4, r7, #0
 8007aa6:	bfbc      	itt	lt
 8007aa8:	f504 347f 	addlt.w	r4, r4, #261120	; 0x3fc00
 8007aac:	f204 34ff 	addwlt	r4, r4, #1023	; 0x3ff
 8007ab0:	2b00      	cmp	r3, #0
 8007ab2:	bfb8      	it	lt
 8007ab4:	f503 33ff 	addlt.w	r3, r3, #130560	; 0x1fe00
 8007ab8:	eb05 44a4 	add.w	r4, r5, r4, asr #18
 8007abc:	f04f 0203 	mov.w	r2, #3
 8007ac0:	bfb8      	it	lt
 8007ac2:	f203 13ff 	addwlt	r3, r3, #511	; 0x1ff
 8007ac6:	f880 203a 	strb.w	r2, [r0, #58]	; 0x3a
 8007aca:	eba4 4263 	sub.w	r2, r4, r3, asr #17
 8007ace:	b292      	uxth	r2, r2
 8007ad0:	b2a4      	uxth	r4, r4
 8007ad2:	b2ad      	uxth	r5, r5
 8007ad4:	8782      	strh	r2, [r0, #60]	; 0x3c
 8007ad6:	87c4      	strh	r4, [r0, #62]	; 0x3e
 8007ad8:	f8a0 5040 	strh.w	r5, [r0, #64]	; 0x40
 8007adc:	e750      	b.n	8007980 <PWMC_SetPhaseVoltage+0x80>
 8007ade:	1b14      	subs	r4, r2, r4
 8007ae0:	bf44      	itt	mi
 8007ae2:	f504 347f 	addmi.w	r4, r4, #261120	; 0x3fc00
 8007ae6:	f204 34ff 	addwmi	r4, r4, #1023	; 0x3ff
 8007aea:	2900      	cmp	r1, #0
 8007aec:	bfbc      	itt	lt
 8007aee:	f501 317f 	addlt.w	r1, r1, #261120	; 0x3fc00
 8007af2:	f201 31ff 	addwlt	r1, r1, #1023	; 0x3ff
 8007af6:	2f00      	cmp	r7, #0
 8007af8:	bfb8      	it	lt
 8007afa:	f507 377f 	addlt.w	r7, r7, #261120	; 0x3fc00
 8007afe:	eb06 44a4 	add.w	r4, r6, r4, asr #18
 8007b02:	bfb8      	it	lt
 8007b04:	f207 37ff 	addwlt	r7, r7, #1023	; 0x3ff
 8007b08:	eba4 42a1 	sub.w	r2, r4, r1, asr #18
 8007b0c:	b2a5      	uxth	r5, r4
 8007b0e:	eb04 44a7 	add.w	r4, r4, r7, asr #18
 8007b12:	2304      	movs	r3, #4
 8007b14:	b292      	uxth	r2, r2
 8007b16:	b2a4      	uxth	r4, r4
 8007b18:	f880 303a 	strb.w	r3, [r0, #58]	; 0x3a
 8007b1c:	8782      	strh	r2, [r0, #60]	; 0x3c
 8007b1e:	87c5      	strh	r5, [r0, #62]	; 0x3e
 8007b20:	f8a0 4040 	strh.w	r4, [r0, #64]	; 0x40
 8007b24:	e72c      	b.n	8007980 <PWMC_SetPhaseVoltage+0x80>
 8007b26:	bf00      	nop

08007b28 <PWMC_SwitchOffPWM>:
 8007b28:	6883      	ldr	r3, [r0, #8]
 8007b2a:	4718      	bx	r3

08007b2c <PWMC_CurrentReadingCalibr>:
 8007b2c:	b510      	push	{r4, lr}
 8007b2e:	4604      	mov	r4, r0
 8007b30:	b082      	sub	sp, #8
 8007b32:	b1a1      	cbz	r1, 8007b5e <PWMC_CurrentReadingCalibr+0x32>
 8007b34:	2901      	cmp	r1, #1
 8007b36:	d002      	beq.n	8007b3e <PWMC_CurrentReadingCalibr+0x12>
 8007b38:	2000      	movs	r0, #0
 8007b3a:	b002      	add	sp, #8
 8007b3c:	bd10      	pop	{r4, pc}
 8007b3e:	f8b0 3044 	ldrh.w	r3, [r0, #68]	; 0x44
 8007b42:	b1d3      	cbz	r3, 8007b7a <PWMC_CurrentReadingCalibr+0x4e>
 8007b44:	3b01      	subs	r3, #1
 8007b46:	b29b      	uxth	r3, r3
 8007b48:	9101      	str	r1, [sp, #4]
 8007b4a:	f8a0 3044 	strh.w	r3, [r0, #68]	; 0x44
 8007b4e:	2b00      	cmp	r3, #0
 8007b50:	d1f2      	bne.n	8007b38 <PWMC_CurrentReadingCalibr+0xc>
 8007b52:	6903      	ldr	r3, [r0, #16]
 8007b54:	4798      	blx	r3
 8007b56:	9901      	ldr	r1, [sp, #4]
 8007b58:	4608      	mov	r0, r1
 8007b5a:	b002      	add	sp, #8
 8007b5c:	bd10      	pop	{r4, pc}
 8007b5e:	f7ff ffe3 	bl	8007b28 <PWMC_SwitchOffPWM>
 8007b62:	f8b4 3052 	ldrh.w	r3, [r4, #82]	; 0x52
 8007b66:	f8a4 3044 	strh.w	r3, [r4, #68]	; 0x44
 8007b6a:	2b00      	cmp	r3, #0
 8007b6c:	d1e4      	bne.n	8007b38 <PWMC_CurrentReadingCalibr+0xc>
 8007b6e:	4620      	mov	r0, r4
 8007b70:	6923      	ldr	r3, [r4, #16]
 8007b72:	4798      	blx	r3
 8007b74:	2001      	movs	r0, #1
 8007b76:	b002      	add	sp, #8
 8007b78:	bd10      	pop	{r4, pc}
 8007b7a:	4608      	mov	r0, r1
 8007b7c:	b002      	add	sp, #8
 8007b7e:	bd10      	pop	{r4, pc}

08007b80 <PWMC_CheckOverCurrent>:
 8007b80:	69c3      	ldr	r3, [r0, #28]
 8007b82:	4718      	bx	r3

08007b84 <R3_2_GetPhaseCurrents>:
 8007b84:	b4f0      	push	{r4, r5, r6, r7}
 8007b86:	6f43      	ldr	r3, [r0, #116]	; 0x74
 8007b88:	f890 403a 	ldrb.w	r4, [r0, #58]	; 0x3a
 8007b8c:	689d      	ldr	r5, [r3, #8]
 8007b8e:	eb03 0384 	add.w	r3, r3, r4, lsl #2
 8007b92:	2c05      	cmp	r4, #5
 8007b94:	6cda      	ldr	r2, [r3, #76]	; 0x4c
 8007b96:	6e5e      	ldr	r6, [r3, #100]	; 0x64
 8007b98:	6813      	ldr	r3, [r2, #0]
 8007b9a:	6836      	ldr	r6, [r6, #0]
 8007b9c:	686a      	ldr	r2, [r5, #4]
 8007b9e:	f022 7200 	bic.w	r2, r2, #33554432	; 0x2000000
 8007ba2:	f022 0270 	bic.w	r2, r2, #112	; 0x70
 8007ba6:	606a      	str	r2, [r5, #4]
 8007ba8:	d821      	bhi.n	8007bee <R3_2_GetPhaseCurrents+0x6a>
 8007baa:	2501      	movs	r5, #1
 8007bac:	fa05 f404 	lsl.w	r4, r5, r4
 8007bb0:	f014 0f21 	tst.w	r4, #33	; 0x21
 8007bb4:	d12c      	bne.n	8007c10 <R3_2_GetPhaseCurrents+0x8c>
 8007bb6:	f014 0f06 	tst.w	r4, #6
 8007bba:	d044      	beq.n	8007c46 <R3_2_GetPhaseCurrents+0xc2>
 8007bbc:	6dc2      	ldr	r2, [r0, #92]	; 0x5c
 8007bbe:	4d53      	ldr	r5, [pc, #332]	; (8007d0c <R3_2_GetPhaseCurrents+0x188>)
 8007bc0:	1ad4      	subs	r4, r2, r3
 8007bc2:	42ac      	cmp	r4, r5
 8007bc4:	da75      	bge.n	8007cb2 <R3_2_GetPhaseCurrents+0x12e>
 8007bc6:	462c      	mov	r4, r5
 8007bc8:	800d      	strh	r5, [r1, #0]
 8007bca:	462f      	mov	r7, r5
 8007bcc:	f248 0301 	movw	r3, #32769	; 0x8001
 8007bd0:	6e42      	ldr	r2, [r0, #100]	; 0x64
 8007bd2:	1ab2      	subs	r2, r6, r2
 8007bd4:	1b12      	subs	r2, r2, r4
 8007bd6:	f5b2 4f00 	cmp.w	r2, #32768	; 0x8000
 8007bda:	da74      	bge.n	8007cc6 <R3_2_GetPhaseCurrents+0x142>
 8007bdc:	4c4b      	ldr	r4, [pc, #300]	; (8007d0c <R3_2_GetPhaseCurrents+0x188>)
 8007bde:	42a2      	cmp	r2, r4
 8007be0:	db7d      	blt.n	8007cde <R3_2_GetPhaseCurrents+0x15a>
 8007be2:	fa0f fc82 	sxth.w	ip, r2
 8007be6:	f8a1 c002 	strh.w	ip, [r1, #2]
 8007bea:	b292      	uxth	r2, r2
 8007bec:	e006      	b.n	8007bfc <R3_2_GetPhaseCurrents+0x78>
 8007bee:	f9b1 7000 	ldrsh.w	r7, [r1]
 8007bf2:	f9b1 c002 	ldrsh.w	ip, [r1, #2]
 8007bf6:	b2bb      	uxth	r3, r7
 8007bf8:	fa1f f28c 	uxth.w	r2, ip
 8007bfc:	4413      	add	r3, r2
 8007bfe:	425b      	negs	r3, r3
 8007c00:	f8a0 7048 	strh.w	r7, [r0, #72]	; 0x48
 8007c04:	f8a0 304c 	strh.w	r3, [r0, #76]	; 0x4c
 8007c08:	f8a0 c04a 	strh.w	ip, [r0, #74]	; 0x4a
 8007c0c:	bcf0      	pop	{r4, r5, r6, r7}
 8007c0e:	4770      	bx	lr
 8007c10:	6e04      	ldr	r4, [r0, #96]	; 0x60
 8007c12:	4d3e      	ldr	r5, [pc, #248]	; (8007d0c <R3_2_GetPhaseCurrents+0x188>)
 8007c14:	1ae4      	subs	r4, r4, r3
 8007c16:	42ac      	cmp	r4, r5
 8007c18:	db35      	blt.n	8007c86 <R3_2_GetPhaseCurrents+0x102>
 8007c1a:	f5b4 4f00 	cmp.w	r4, #32768	; 0x8000
 8007c1e:	db42      	blt.n	8007ca6 <R3_2_GetPhaseCurrents+0x122>
 8007c20:	f647 73ff 	movw	r3, #32767	; 0x7fff
 8007c24:	461a      	mov	r2, r3
 8007c26:	804b      	strh	r3, [r1, #2]
 8007c28:	461c      	mov	r4, r3
 8007c2a:	469c      	mov	ip, r3
 8007c2c:	6e45      	ldr	r5, [r0, #100]	; 0x64
 8007c2e:	1b73      	subs	r3, r6, r5
 8007c30:	1b1c      	subs	r4, r3, r4
 8007c32:	f5b4 4f00 	cmp.w	r4, #32768	; 0x8000
 8007c36:	da2c      	bge.n	8007c92 <R3_2_GetPhaseCurrents+0x10e>
 8007c38:	4f34      	ldr	r7, [pc, #208]	; (8007d0c <R3_2_GetPhaseCurrents+0x188>)
 8007c3a:	42bc      	cmp	r4, r7
 8007c3c:	da2f      	bge.n	8007c9e <R3_2_GetPhaseCurrents+0x11a>
 8007c3e:	800f      	strh	r7, [r1, #0]
 8007c40:	f248 0301 	movw	r3, #32769	; 0x8001
 8007c44:	e7da      	b.n	8007bfc <R3_2_GetPhaseCurrents+0x78>
 8007c46:	f014 0f18 	tst.w	r4, #24
 8007c4a:	d0d0      	beq.n	8007bee <R3_2_GetPhaseCurrents+0x6a>
 8007c4c:	6dc4      	ldr	r4, [r0, #92]	; 0x5c
 8007c4e:	4a2f      	ldr	r2, [pc, #188]	; (8007d0c <R3_2_GetPhaseCurrents+0x188>)
 8007c50:	1ae4      	subs	r4, r4, r3
 8007c52:	4294      	cmp	r4, r2
 8007c54:	db41      	blt.n	8007cda <R3_2_GetPhaseCurrents+0x156>
 8007c56:	f5b4 4f00 	cmp.w	r4, #32768	; 0x8000
 8007c5a:	bfa6      	itte	ge
 8007c5c:	f647 73ff 	movwge	r3, #32767	; 0x7fff
 8007c60:	800b      	strhge	r3, [r1, #0]
 8007c62:	800c      	strhlt	r4, [r1, #0]
 8007c64:	6e02      	ldr	r2, [r0, #96]	; 0x60
 8007c66:	4b29      	ldr	r3, [pc, #164]	; (8007d0c <R3_2_GetPhaseCurrents+0x188>)
 8007c68:	1b92      	subs	r2, r2, r6
 8007c6a:	429a      	cmp	r2, r3
 8007c6c:	db3c      	blt.n	8007ce8 <R3_2_GetPhaseCurrents+0x164>
 8007c6e:	f5b2 4f00 	cmp.w	r2, #32768	; 0x8000
 8007c72:	db41      	blt.n	8007cf8 <R3_2_GetPhaseCurrents+0x174>
 8007c74:	f9b1 7000 	ldrsh.w	r7, [r1]
 8007c78:	f647 73ff 	movw	r3, #32767	; 0x7fff
 8007c7c:	804b      	strh	r3, [r1, #2]
 8007c7e:	461a      	mov	r2, r3
 8007c80:	469c      	mov	ip, r3
 8007c82:	b2bb      	uxth	r3, r7
 8007c84:	e7ba      	b.n	8007bfc <R3_2_GetPhaseCurrents+0x78>
 8007c86:	462c      	mov	r4, r5
 8007c88:	804d      	strh	r5, [r1, #2]
 8007c8a:	46ac      	mov	ip, r5
 8007c8c:	f248 0201 	movw	r2, #32769	; 0x8001
 8007c90:	e7cc      	b.n	8007c2c <R3_2_GetPhaseCurrents+0xa8>
 8007c92:	f647 74ff 	movw	r4, #32767	; 0x7fff
 8007c96:	4623      	mov	r3, r4
 8007c98:	800c      	strh	r4, [r1, #0]
 8007c9a:	4627      	mov	r7, r4
 8007c9c:	e7ae      	b.n	8007bfc <R3_2_GetPhaseCurrents+0x78>
 8007c9e:	b227      	sxth	r7, r4
 8007ca0:	800f      	strh	r7, [r1, #0]
 8007ca2:	b2a3      	uxth	r3, r4
 8007ca4:	e7aa      	b.n	8007bfc <R3_2_GetPhaseCurrents+0x78>
 8007ca6:	fa0f fc84 	sxth.w	ip, r4
 8007caa:	f8a1 c002 	strh.w	ip, [r1, #2]
 8007cae:	b2a2      	uxth	r2, r4
 8007cb0:	e7bc      	b.n	8007c2c <R3_2_GetPhaseCurrents+0xa8>
 8007cb2:	f5b4 4f00 	cmp.w	r4, #32768	; 0x8000
 8007cb6:	db0c      	blt.n	8007cd2 <R3_2_GetPhaseCurrents+0x14e>
 8007cb8:	f647 72ff 	movw	r2, #32767	; 0x7fff
 8007cbc:	4613      	mov	r3, r2
 8007cbe:	800a      	strh	r2, [r1, #0]
 8007cc0:	4614      	mov	r4, r2
 8007cc2:	4617      	mov	r7, r2
 8007cc4:	e784      	b.n	8007bd0 <R3_2_GetPhaseCurrents+0x4c>
 8007cc6:	f647 74ff 	movw	r4, #32767	; 0x7fff
 8007cca:	4622      	mov	r2, r4
 8007ccc:	804c      	strh	r4, [r1, #2]
 8007cce:	46a4      	mov	ip, r4
 8007cd0:	e794      	b.n	8007bfc <R3_2_GetPhaseCurrents+0x78>
 8007cd2:	b227      	sxth	r7, r4
 8007cd4:	800f      	strh	r7, [r1, #0]
 8007cd6:	b2a3      	uxth	r3, r4
 8007cd8:	e77a      	b.n	8007bd0 <R3_2_GetPhaseCurrents+0x4c>
 8007cda:	800a      	strh	r2, [r1, #0]
 8007cdc:	e7c2      	b.n	8007c64 <R3_2_GetPhaseCurrents+0xe0>
 8007cde:	804c      	strh	r4, [r1, #2]
 8007ce0:	46a4      	mov	ip, r4
 8007ce2:	f248 0201 	movw	r2, #32769	; 0x8001
 8007ce6:	e789      	b.n	8007bfc <R3_2_GetPhaseCurrents+0x78>
 8007ce8:	f9b1 7000 	ldrsh.w	r7, [r1]
 8007cec:	804b      	strh	r3, [r1, #2]
 8007cee:	469c      	mov	ip, r3
 8007cf0:	f248 0201 	movw	r2, #32769	; 0x8001
 8007cf4:	b2bb      	uxth	r3, r7
 8007cf6:	e781      	b.n	8007bfc <R3_2_GetPhaseCurrents+0x78>
 8007cf8:	f9b1 7000 	ldrsh.w	r7, [r1]
 8007cfc:	fa0f fc82 	sxth.w	ip, r2
 8007d00:	b2bb      	uxth	r3, r7
 8007d02:	f8a1 c002 	strh.w	ip, [r1, #2]
 8007d06:	b292      	uxth	r2, r2
 8007d08:	e778      	b.n	8007bfc <R3_2_GetPhaseCurrents+0x78>
 8007d0a:	bf00      	nop
 8007d0c:	ffff8001 	.word	0xffff8001

08007d10 <R3_2_SetADCSampPointPolarization>:
 8007d10:	b410      	push	{r4}
 8007d12:	6f43      	ldr	r3, [r0, #116]	; 0x74
 8007d14:	f890 406d 	ldrb.w	r4, [r0, #109]	; 0x6d
 8007d18:	f880 403a 	strb.w	r4, [r0, #58]	; 0x3a
 8007d1c:	f8b0 2068 	ldrh.w	r2, [r0, #104]	; 0x68
 8007d20:	689b      	ldr	r3, [r3, #8]
 8007d22:	8e44      	ldrh	r4, [r0, #50]	; 0x32
 8007d24:	635c      	str	r4, [r3, #52]	; 0x34
 8007d26:	3a01      	subs	r2, #1
 8007d28:	8e84      	ldrh	r4, [r0, #52]	; 0x34
 8007d2a:	8ec0      	ldrh	r0, [r0, #54]	; 0x36
 8007d2c:	639c      	str	r4, [r3, #56]	; 0x38
 8007d2e:	b292      	uxth	r2, r2
 8007d30:	63d8      	str	r0, [r3, #60]	; 0x3c
 8007d32:	641a      	str	r2, [r3, #64]	; 0x40
 8007d34:	4904      	ldr	r1, [pc, #16]	; (8007d48 <R3_2_SetADCSampPointPolarization+0x38>)
 8007d36:	685b      	ldr	r3, [r3, #4]
 8007d38:	f85d 4b04 	ldr.w	r4, [sp], #4
 8007d3c:	420b      	tst	r3, r1
 8007d3e:	bf14      	ite	ne
 8007d40:	2001      	movne	r0, #1
 8007d42:	2000      	moveq	r0, #0
 8007d44:	4770      	bx	lr
 8007d46:	bf00      	nop
 8007d48:	02000070 	.word	0x02000070

08007d4c <R3_2_SetADCSampPointSectX>:
 8007d4c:	b470      	push	{r4, r5, r6}
 8007d4e:	f8b0 1068 	ldrh.w	r1, [r0, #104]	; 0x68
 8007d52:	8f83      	ldrh	r3, [r0, #60]	; 0x3c
 8007d54:	6f44      	ldr	r4, [r0, #116]	; 0x74
 8007d56:	1aca      	subs	r2, r1, r3
 8007d58:	f8b4 60b2 	ldrh.w	r6, [r4, #178]	; 0xb2
 8007d5c:	b292      	uxth	r2, r2
 8007d5e:	42b2      	cmp	r2, r6
 8007d60:	d914      	bls.n	8007d8c <R3_2_SetADCSampPointSectX+0x40>
 8007d62:	1e4b      	subs	r3, r1, #1
 8007d64:	2204      	movs	r2, #4
 8007d66:	b29b      	uxth	r3, r3
 8007d68:	f880 203a 	strb.w	r2, [r0, #58]	; 0x3a
 8007d6c:	68a2      	ldr	r2, [r4, #8]
 8007d6e:	8e45      	ldrh	r5, [r0, #50]	; 0x32
 8007d70:	8e84      	ldrh	r4, [r0, #52]	; 0x34
 8007d72:	8ec1      	ldrh	r1, [r0, #54]	; 0x36
 8007d74:	6355      	str	r5, [r2, #52]	; 0x34
 8007d76:	6394      	str	r4, [r2, #56]	; 0x38
 8007d78:	63d1      	str	r1, [r2, #60]	; 0x3c
 8007d7a:	6413      	str	r3, [r2, #64]	; 0x40
 8007d7c:	6852      	ldr	r2, [r2, #4]
 8007d7e:	4b0f      	ldr	r3, [pc, #60]	; (8007dbc <R3_2_SetADCSampPointSectX+0x70>)
 8007d80:	421a      	tst	r2, r3
 8007d82:	bf14      	ite	ne
 8007d84:	2001      	movne	r0, #1
 8007d86:	2000      	moveq	r0, #0
 8007d88:	bc70      	pop	{r4, r5, r6}
 8007d8a:	4770      	bx	lr
 8007d8c:	8fc5      	ldrh	r5, [r0, #62]	; 0x3e
 8007d8e:	1b5d      	subs	r5, r3, r5
 8007d90:	b2ad      	uxth	r5, r5
 8007d92:	ebb5 0f42 	cmp.w	r5, r2, lsl #1
 8007d96:	d904      	bls.n	8007da2 <R3_2_SetADCSampPointSectX+0x56>
 8007d98:	f8b4 20b4 	ldrh.w	r2, [r4, #180]	; 0xb4
 8007d9c:	1a9b      	subs	r3, r3, r2
 8007d9e:	b29b      	uxth	r3, r3
 8007da0:	e7e4      	b.n	8007d6c <R3_2_SetADCSampPointSectX+0x20>
 8007da2:	4433      	add	r3, r6
 8007da4:	b29b      	uxth	r3, r3
 8007da6:	4299      	cmp	r1, r3
 8007da8:	d8e0      	bhi.n	8007d6c <R3_2_SetADCSampPointSectX+0x20>
 8007daa:	43db      	mvns	r3, r3
 8007dac:	eb03 0341 	add.w	r3, r3, r1, lsl #1
 8007db0:	f44f 7280 	mov.w	r2, #256	; 0x100
 8007db4:	b29b      	uxth	r3, r3
 8007db6:	f8a0 206a 	strh.w	r2, [r0, #106]	; 0x6a
 8007dba:	e7d7      	b.n	8007d6c <R3_2_SetADCSampPointSectX+0x20>
 8007dbc:	02000070 	.word	0x02000070

08007dc0 <R3_2_HFCurrentsPolarizationAB>:
 8007dc0:	b470      	push	{r4, r5, r6}
 8007dc2:	6f43      	ldr	r3, [r0, #116]	; 0x74
 8007dc4:	f890 406d 	ldrb.w	r4, [r0, #109]	; 0x6d
 8007dc8:	689a      	ldr	r2, [r3, #8]
 8007dca:	eb03 0384 	add.w	r3, r3, r4, lsl #2
 8007dce:	6cdc      	ldr	r4, [r3, #76]	; 0x4c
 8007dd0:	6e5b      	ldr	r3, [r3, #100]	; 0x64
 8007dd2:	6826      	ldr	r6, [r4, #0]
 8007dd4:	681d      	ldr	r5, [r3, #0]
 8007dd6:	6853      	ldr	r3, [r2, #4]
 8007dd8:	f023 7300 	bic.w	r3, r3, #33554432	; 0x2000000
 8007ddc:	f023 0370 	bic.w	r3, r3, #112	; 0x70
 8007de0:	6053      	str	r3, [r2, #4]
 8007de2:	f890 306c 	ldrb.w	r3, [r0, #108]	; 0x6c
 8007de6:	2b0f      	cmp	r3, #15
 8007de8:	d808      	bhi.n	8007dfc <R3_2_HFCurrentsPolarizationAB+0x3c>
 8007dea:	e9d0 4217 	ldrd	r4, r2, [r0, #92]	; 0x5c
 8007dee:	4434      	add	r4, r6
 8007df0:	442a      	add	r2, r5
 8007df2:	e9c0 4217 	strd	r4, r2, [r0, #92]	; 0x5c
 8007df6:	3301      	adds	r3, #1
 8007df8:	f880 306c 	strb.w	r3, [r0, #108]	; 0x6c
 8007dfc:	2300      	movs	r3, #0
 8007dfe:	600b      	str	r3, [r1, #0]
 8007e00:	bc70      	pop	{r4, r5, r6}
 8007e02:	4770      	bx	lr

08007e04 <R3_2_HFCurrentsPolarizationC>:
 8007e04:	6f43      	ldr	r3, [r0, #116]	; 0x74
 8007e06:	b410      	push	{r4}
 8007e08:	f890 406d 	ldrb.w	r4, [r0, #109]	; 0x6d
 8007e0c:	689a      	ldr	r2, [r3, #8]
 8007e0e:	eb03 0384 	add.w	r3, r3, r4, lsl #2
 8007e12:	6e5b      	ldr	r3, [r3, #100]	; 0x64
 8007e14:	681c      	ldr	r4, [r3, #0]
 8007e16:	6853      	ldr	r3, [r2, #4]
 8007e18:	f023 7300 	bic.w	r3, r3, #33554432	; 0x2000000
 8007e1c:	f023 0370 	bic.w	r3, r3, #112	; 0x70
 8007e20:	6053      	str	r3, [r2, #4]
 8007e22:	f890 306c 	ldrb.w	r3, [r0, #108]	; 0x6c
 8007e26:	2b0f      	cmp	r3, #15
 8007e28:	d805      	bhi.n	8007e36 <R3_2_HFCurrentsPolarizationC+0x32>
 8007e2a:	6e42      	ldr	r2, [r0, #100]	; 0x64
 8007e2c:	3301      	adds	r3, #1
 8007e2e:	4422      	add	r2, r4
 8007e30:	f880 306c 	strb.w	r3, [r0, #108]	; 0x6c
 8007e34:	6642      	str	r2, [r0, #100]	; 0x64
 8007e36:	2300      	movs	r3, #0
 8007e38:	600b      	str	r3, [r1, #0]
 8007e3a:	f85d 4b04 	ldr.w	r4, [sp], #4
 8007e3e:	4770      	bx	lr

08007e40 <R3_2_TurnOnLowSides>:
 8007e40:	6f41      	ldr	r1, [r0, #116]	; 0x74
 8007e42:	2201      	movs	r2, #1
 8007e44:	688b      	ldr	r3, [r1, #8]
 8007e46:	f880 2042 	strb.w	r2, [r0, #66]	; 0x42
 8007e4a:	2200      	movs	r2, #0
 8007e4c:	f06f 0001 	mvn.w	r0, #1
 8007e50:	6118      	str	r0, [r3, #16]
 8007e52:	635a      	str	r2, [r3, #52]	; 0x34
 8007e54:	639a      	str	r2, [r3, #56]	; 0x38
 8007e56:	63da      	str	r2, [r3, #60]	; 0x3c
 8007e58:	691a      	ldr	r2, [r3, #16]
 8007e5a:	07d2      	lsls	r2, r2, #31
 8007e5c:	d5fc      	bpl.n	8007e58 <R3_2_TurnOnLowSides+0x18>
 8007e5e:	6c5a      	ldr	r2, [r3, #68]	; 0x44
 8007e60:	f891 00ba 	ldrb.w	r0, [r1, #186]	; 0xba
 8007e64:	f442 4200 	orr.w	r2, r2, #32768	; 0x8000
 8007e68:	2802      	cmp	r0, #2
 8007e6a:	645a      	str	r2, [r3, #68]	; 0x44
 8007e6c:	d000      	beq.n	8007e70 <R3_2_TurnOnLowSides+0x30>
 8007e6e:	4770      	bx	lr
 8007e70:	b470      	push	{r4, r5, r6}
 8007e72:	e9d1 5008 	ldrd	r5, r0, [r1, #32]
 8007e76:	6a8b      	ldr	r3, [r1, #40]	; 0x28
 8007e78:	f8b1 60ac 	ldrh.w	r6, [r1, #172]	; 0xac
 8007e7c:	f8b1 40ae 	ldrh.w	r4, [r1, #174]	; 0xae
 8007e80:	f8b1 20b0 	ldrh.w	r2, [r1, #176]	; 0xb0
 8007e84:	61ae      	str	r6, [r5, #24]
 8007e86:	6184      	str	r4, [r0, #24]
 8007e88:	619a      	str	r2, [r3, #24]
 8007e8a:	bc70      	pop	{r4, r5, r6}
 8007e8c:	4770      	bx	lr
 8007e8e:	bf00      	nop

08007e90 <R3_2_SwitchOnPWM>:
 8007e90:	6f41      	ldr	r1, [r0, #116]	; 0x74
 8007e92:	f8b0 2068 	ldrh.w	r2, [r0, #104]	; 0x68
 8007e96:	688b      	ldr	r3, [r1, #8]
 8007e98:	b4f0      	push	{r4, r5, r6, r7}
 8007e9a:	2400      	movs	r4, #0
 8007e9c:	f880 4042 	strb.w	r4, [r0, #66]	; 0x42
 8007ea0:	0850      	lsrs	r0, r2, #1
 8007ea2:	f06f 0401 	mvn.w	r4, #1
 8007ea6:	3a05      	subs	r2, #5
 8007ea8:	6358      	str	r0, [r3, #52]	; 0x34
 8007eaa:	6398      	str	r0, [r3, #56]	; 0x38
 8007eac:	63d8      	str	r0, [r3, #60]	; 0x3c
 8007eae:	641a      	str	r2, [r3, #64]	; 0x40
 8007eb0:	611c      	str	r4, [r3, #16]
 8007eb2:	691a      	ldr	r2, [r3, #16]
 8007eb4:	07d2      	lsls	r2, r2, #31
 8007eb6:	d5fc      	bpl.n	8007eb2 <R3_2_SwitchOnPWM+0x22>
 8007eb8:	f06f 0201 	mvn.w	r2, #1
 8007ebc:	611a      	str	r2, [r3, #16]
 8007ebe:	6c5a      	ldr	r2, [r3, #68]	; 0x44
 8007ec0:	f891 00ba 	ldrb.w	r0, [r1, #186]	; 0xba
 8007ec4:	f442 6280 	orr.w	r2, r2, #1024	; 0x400
 8007ec8:	645a      	str	r2, [r3, #68]	; 0x44
 8007eca:	6c5a      	ldr	r2, [r3, #68]	; 0x44
 8007ecc:	2802      	cmp	r0, #2
 8007ece:	f442 4200 	orr.w	r2, r2, #32768	; 0x8000
 8007ed2:	645a      	str	r2, [r3, #68]	; 0x44
 8007ed4:	d008      	beq.n	8007ee8 <R3_2_SwitchOnPWM+0x58>
 8007ed6:	f06f 0201 	mvn.w	r2, #1
 8007eda:	611a      	str	r2, [r3, #16]
 8007edc:	68da      	ldr	r2, [r3, #12]
 8007ede:	f042 0201 	orr.w	r2, r2, #1
 8007ee2:	60da      	str	r2, [r3, #12]
 8007ee4:	bcf0      	pop	{r4, r5, r6, r7}
 8007ee6:	4770      	bx	lr
 8007ee8:	f8d3 c020 	ldr.w	ip, [r3, #32]
 8007eec:	6a0d      	ldr	r5, [r1, #32]
 8007eee:	f8b1 60ac 	ldrh.w	r6, [r1, #172]	; 0xac
 8007ef2:	6a48      	ldr	r0, [r1, #36]	; 0x24
 8007ef4:	f8b1 40ae 	ldrh.w	r4, [r1, #174]	; 0xae
 8007ef8:	6a8a      	ldr	r2, [r1, #40]	; 0x28
 8007efa:	f8b1 10b0 	ldrh.w	r1, [r1, #176]	; 0xb0
 8007efe:	f240 5755 	movw	r7, #1365	; 0x555
 8007f02:	ea1c 0f07 	tst.w	ip, r7
 8007f06:	d103      	bne.n	8007f10 <R3_2_SwitchOnPWM+0x80>
 8007f08:	62ae      	str	r6, [r5, #40]	; 0x28
 8007f0a:	6284      	str	r4, [r0, #40]	; 0x28
 8007f0c:	6291      	str	r1, [r2, #40]	; 0x28
 8007f0e:	e7e2      	b.n	8007ed6 <R3_2_SwitchOnPWM+0x46>
 8007f10:	61ae      	str	r6, [r5, #24]
 8007f12:	6184      	str	r4, [r0, #24]
 8007f14:	6191      	str	r1, [r2, #24]
 8007f16:	e7de      	b.n	8007ed6 <R3_2_SwitchOnPWM+0x46>

08007f18 <R3_2_SwitchOffPWM>:
 8007f18:	6f41      	ldr	r1, [r0, #116]	; 0x74
 8007f1a:	688b      	ldr	r3, [r1, #8]
 8007f1c:	68da      	ldr	r2, [r3, #12]
 8007f1e:	f022 0201 	bic.w	r2, r2, #1
 8007f22:	b430      	push	{r4, r5}
 8007f24:	f890 4070 	ldrb.w	r4, [r0, #112]	; 0x70
 8007f28:	60da      	str	r2, [r3, #12]
 8007f2a:	6c5a      	ldr	r2, [r3, #68]	; 0x44
 8007f2c:	2500      	movs	r5, #0
 8007f2e:	f422 4200 	bic.w	r2, r2, #32768	; 0x8000
 8007f32:	f880 5042 	strb.w	r5, [r0, #66]	; 0x42
 8007f36:	645a      	str	r2, [r3, #68]	; 0x44
 8007f38:	b91c      	cbnz	r4, 8007f42 <R3_2_SwitchOffPWM+0x2a>
 8007f3a:	f891 20ba 	ldrb.w	r2, [r1, #186]	; 0xba
 8007f3e:	2a02      	cmp	r2, #2
 8007f40:	d00a      	beq.n	8007f58 <R3_2_SwitchOffPWM+0x40>
 8007f42:	f06f 0201 	mvn.w	r2, #1
 8007f46:	611a      	str	r2, [r3, #16]
 8007f48:	691a      	ldr	r2, [r3, #16]
 8007f4a:	07d2      	lsls	r2, r2, #31
 8007f4c:	d5fc      	bpl.n	8007f48 <R3_2_SwitchOffPWM+0x30>
 8007f4e:	f06f 0201 	mvn.w	r2, #1
 8007f52:	611a      	str	r2, [r3, #16]
 8007f54:	bc30      	pop	{r4, r5}
 8007f56:	4770      	bx	lr
 8007f58:	e9d1 4008 	ldrd	r4, r0, [r1, #32]
 8007f5c:	6a8a      	ldr	r2, [r1, #40]	; 0x28
 8007f5e:	f8b1 50ac 	ldrh.w	r5, [r1, #172]	; 0xac
 8007f62:	62a5      	str	r5, [r4, #40]	; 0x28
 8007f64:	f8b1 40ae 	ldrh.w	r4, [r1, #174]	; 0xae
 8007f68:	f8b1 10b0 	ldrh.w	r1, [r1, #176]	; 0xb0
 8007f6c:	6284      	str	r4, [r0, #40]	; 0x28
 8007f6e:	6291      	str	r1, [r2, #40]	; 0x28
 8007f70:	e7e7      	b.n	8007f42 <R3_2_SwitchOffPWM+0x2a>
 8007f72:	bf00      	nop

08007f74 <R3_2_RLGetPhaseCurrents>:
 8007f74:	b430      	push	{r4, r5}
 8007f76:	6f44      	ldr	r4, [r0, #116]	; 0x74
 8007f78:	6e03      	ldr	r3, [r0, #96]	; 0x60
 8007f7a:	68a5      	ldr	r5, [r4, #8]
 8007f7c:	686a      	ldr	r2, [r5, #4]
 8007f7e:	f022 7200 	bic.w	r2, r2, #33554432	; 0x2000000
 8007f82:	f022 0270 	bic.w	r2, r2, #112	; 0x70
 8007f86:	606a      	str	r2, [r5, #4]
 8007f88:	f890 003a 	ldrb.w	r0, [r0, #58]	; 0x3a
 8007f8c:	4a0d      	ldr	r2, [pc, #52]	; (8007fc4 <R3_2_RLGetPhaseCurrents+0x50>)
 8007f8e:	eb04 0480 	add.w	r4, r4, r0, lsl #2
 8007f92:	6e60      	ldr	r0, [r4, #100]	; 0x64
 8007f94:	6800      	ldr	r0, [r0, #0]
 8007f96:	1a1b      	subs	r3, r3, r0
 8007f98:	4293      	cmp	r3, r2
 8007f9a:	db0e      	blt.n	8007fba <R3_2_RLGetPhaseCurrents+0x46>
 8007f9c:	f647 72fe 	movw	r2, #32766	; 0x7ffe
 8007fa0:	4293      	cmp	r3, r2
 8007fa2:	dd05      	ble.n	8007fb0 <R3_2_RLGetPhaseCurrents+0x3c>
 8007fa4:	f647 73ff 	movw	r3, #32767	; 0x7fff
 8007fa8:	800b      	strh	r3, [r1, #0]
 8007faa:	804b      	strh	r3, [r1, #2]
 8007fac:	bc30      	pop	{r4, r5}
 8007fae:	4770      	bx	lr
 8007fb0:	b21b      	sxth	r3, r3
 8007fb2:	800b      	strh	r3, [r1, #0]
 8007fb4:	804b      	strh	r3, [r1, #2]
 8007fb6:	bc30      	pop	{r4, r5}
 8007fb8:	4770      	bx	lr
 8007fba:	4b03      	ldr	r3, [pc, #12]	; (8007fc8 <R3_2_RLGetPhaseCurrents+0x54>)
 8007fbc:	800b      	strh	r3, [r1, #0]
 8007fbe:	804b      	strh	r3, [r1, #2]
 8007fc0:	bc30      	pop	{r4, r5}
 8007fc2:	4770      	bx	lr
 8007fc4:	ffff8002 	.word	0xffff8002
 8007fc8:	ffff8001 	.word	0xffff8001

08007fcc <R3_2_RLTurnOnLowSides>:
 8007fcc:	6f41      	ldr	r1, [r0, #116]	; 0x74
 8007fce:	688a      	ldr	r2, [r1, #8]
 8007fd0:	2000      	movs	r0, #0
 8007fd2:	f06f 0301 	mvn.w	r3, #1
 8007fd6:	6350      	str	r0, [r2, #52]	; 0x34
 8007fd8:	6113      	str	r3, [r2, #16]
 8007fda:	6913      	ldr	r3, [r2, #16]
 8007fdc:	07db      	lsls	r3, r3, #31
 8007fde:	d5fc      	bpl.n	8007fda <R3_2_RLTurnOnLowSides+0xe>
 8007fe0:	6c53      	ldr	r3, [r2, #68]	; 0x44
 8007fe2:	f891 00ba 	ldrb.w	r0, [r1, #186]	; 0xba
 8007fe6:	f443 4300 	orr.w	r3, r3, #32768	; 0x8000
 8007fea:	2802      	cmp	r0, #2
 8007fec:	6453      	str	r3, [r2, #68]	; 0x44
 8007fee:	d000      	beq.n	8007ff2 <R3_2_RLTurnOnLowSides+0x26>
 8007ff0:	4770      	bx	lr
 8007ff2:	b470      	push	{r4, r5, r6}
 8007ff4:	e9d1 5008 	ldrd	r5, r0, [r1, #32]
 8007ff8:	6a8b      	ldr	r3, [r1, #40]	; 0x28
 8007ffa:	f8b1 60ac 	ldrh.w	r6, [r1, #172]	; 0xac
 8007ffe:	f8b1 40ae 	ldrh.w	r4, [r1, #174]	; 0xae
 8008002:	f8b1 20b0 	ldrh.w	r2, [r1, #176]	; 0xb0
 8008006:	61ae      	str	r6, [r5, #24]
 8008008:	6284      	str	r4, [r0, #40]	; 0x28
 800800a:	629a      	str	r2, [r3, #40]	; 0x28
 800800c:	bc70      	pop	{r4, r5, r6}
 800800e:	4770      	bx	lr

08008010 <R3_2_RLSwitchOnPWM>:
 8008010:	6f41      	ldr	r1, [r0, #116]	; 0x74
 8008012:	688b      	ldr	r3, [r1, #8]
 8008014:	f06f 0201 	mvn.w	r2, #1
 8008018:	e92d 41f0 	stmdb	sp!, {r4, r5, r6, r7, r8, lr}
 800801c:	e9d1 5400 	ldrd	r5, r4, [r1]
 8008020:	611a      	str	r2, [r3, #16]
 8008022:	691a      	ldr	r2, [r3, #16]
 8008024:	07d6      	lsls	r6, r2, #31
 8008026:	d5fc      	bpl.n	8008022 <R3_2_RLSwitchOnPWM+0x12>
 8008028:	f8b0 2068 	ldrh.w	r2, [r0, #104]	; 0x68
 800802c:	f06f 0701 	mvn.w	r7, #1
 8008030:	3a05      	subs	r2, #5
 8008032:	2601      	movs	r6, #1
 8008034:	611f      	str	r7, [r3, #16]
 8008036:	635e      	str	r6, [r3, #52]	; 0x34
 8008038:	641a      	str	r2, [r3, #64]	; 0x40
 800803a:	691a      	ldr	r2, [r3, #16]
 800803c:	07d2      	lsls	r2, r2, #31
 800803e:	d5fc      	bpl.n	800803a <R3_2_RLSwitchOnPWM+0x2a>
 8008040:	68da      	ldr	r2, [r3, #12]
 8008042:	f891 60ba 	ldrb.w	r6, [r1, #186]	; 0xba
 8008046:	f042 0201 	orr.w	r2, r2, #1
 800804a:	60da      	str	r2, [r3, #12]
 800804c:	6c5a      	ldr	r2, [r3, #68]	; 0x44
 800804e:	f442 6280 	orr.w	r2, r2, #1024	; 0x400
 8008052:	645a      	str	r2, [r3, #68]	; 0x44
 8008054:	6c5a      	ldr	r2, [r3, #68]	; 0x44
 8008056:	2e02      	cmp	r6, #2
 8008058:	f442 4200 	orr.w	r2, r2, #32768	; 0x8000
 800805c:	645a      	str	r2, [r3, #68]	; 0x44
 800805e:	d117      	bne.n	8008090 <R3_2_RLSwitchOnPWM+0x80>
 8008060:	f8d3 8020 	ldr.w	r8, [r3, #32]
 8008064:	f8d1 c020 	ldr.w	ip, [r1, #32]
 8008068:	f8b1 e0ac 	ldrh.w	lr, [r1, #172]	; 0xac
 800806c:	6a4e      	ldr	r6, [r1, #36]	; 0x24
 800806e:	f8b1 70ae 	ldrh.w	r7, [r1, #174]	; 0xae
 8008072:	6a8b      	ldr	r3, [r1, #40]	; 0x28
 8008074:	f8b1 20b0 	ldrh.w	r2, [r1, #176]	; 0xb0
 8008078:	f240 5155 	movw	r1, #1365	; 0x555
 800807c:	ea18 0f01 	tst.w	r8, r1
 8008080:	bf15      	itete	ne
 8008082:	f8cc e018 	strne.w	lr, [ip, #24]
 8008086:	f8cc e028 	streq.w	lr, [ip, #40]	; 0x28
 800808a:	61b7      	strne	r7, [r6, #24]
 800808c:	62b7      	streq	r7, [r6, #40]	; 0x28
 800808e:	629a      	str	r2, [r3, #40]	; 0x28
 8008090:	2303      	movs	r3, #3
 8008092:	f880 303a 	strb.w	r3, [r0, #58]	; 0x3a
 8008096:	68aa      	ldr	r2, [r5, #8]
 8008098:	4905      	ldr	r1, [pc, #20]	; (80080b0 <R3_2_RLSwitchOnPWM+0xa0>)
 800809a:	400a      	ands	r2, r1
 800809c:	f042 0208 	orr.w	r2, r2, #8
 80080a0:	60aa      	str	r2, [r5, #8]
 80080a2:	68a3      	ldr	r3, [r4, #8]
 80080a4:	400b      	ands	r3, r1
 80080a6:	f043 0308 	orr.w	r3, r3, #8
 80080aa:	60a3      	str	r3, [r4, #8]
 80080ac:	e8bd 81f0 	ldmia.w	sp!, {r4, r5, r6, r7, r8, pc}
 80080b0:	7fffffc0 	.word	0x7fffffc0

080080b4 <R3_2_Init>:
 80080b4:	e92d 4ff0 	stmdb	sp!, {r4, r5, r6, r7, r8, r9, sl, fp, lr}
 80080b8:	6f43      	ldr	r3, [r0, #116]	; 0x74
 80080ba:	f8df b344 	ldr.w	fp, [pc, #836]	; 8008400 <R3_2_Init+0x34c>
 80080be:	6819      	ldr	r1, [r3, #0]
 80080c0:	6ada      	ldr	r2, [r3, #44]	; 0x2c
 80080c2:	684d      	ldr	r5, [r1, #4]
 80080c4:	f8d3 a00c 	ldr.w	sl, [r3, #12]
 80080c8:	b089      	sub	sp, #36	; 0x24
 80080ca:	2704      	movs	r7, #4
 80080cc:	9202      	str	r2, [sp, #8]
 80080ce:	6b1a      	ldr	r2, [r3, #48]	; 0x30
 80080d0:	9203      	str	r2, [sp, #12]
 80080d2:	6b5a      	ldr	r2, [r3, #52]	; 0x34
 80080d4:	9204      	str	r2, [sp, #16]
 80080d6:	f025 0504 	bic.w	r5, r5, #4
 80080da:	6b9a      	ldr	r2, [r3, #56]	; 0x38
 80080dc:	9205      	str	r2, [sp, #20]
 80080de:	e9d3 9804 	ldrd	r9, r8, [r3, #16]
 80080e2:	e9d3 4201 	ldrd	r4, r2, [r3, #4]
 80080e6:	e9d3 ec06 	ldrd	lr, ip, [r3, #24]
 80080ea:	604d      	str	r5, [r1, #4]
 80080ec:	600f      	str	r7, [r1, #0]
 80080ee:	684d      	ldr	r5, [r1, #4]
 80080f0:	9001      	str	r0, [sp, #4]
 80080f2:	2620      	movs	r6, #32
 80080f4:	f025 0520 	bic.w	r5, r5, #32
 80080f8:	604d      	str	r5, [r1, #4]
 80080fa:	600e      	str	r6, [r1, #0]
 80080fc:	6865      	ldr	r5, [r4, #4]
 80080fe:	f025 0504 	bic.w	r5, r5, #4
 8008102:	6065      	str	r5, [r4, #4]
 8008104:	6027      	str	r7, [r4, #0]
 8008106:	6865      	ldr	r5, [r4, #4]
 8008108:	f025 0520 	bic.w	r5, r5, #32
 800810c:	6065      	str	r5, [r4, #4]
 800810e:	6026      	str	r6, [r4, #0]
 8008110:	4eba      	ldr	r6, [pc, #744]	; (80083fc <R3_2_Init+0x348>)
 8008112:	6935      	ldr	r5, [r6, #16]
 8008114:	455a      	cmp	r2, fp
 8008116:	bf0c      	ite	eq
 8008118:	f445 6500 	orreq.w	r5, r5, #2048	; 0x800
 800811c:	f445 5500 	orrne.w	r5, r5, #8192	; 0x2000
 8008120:	6135      	str	r5, [r6, #16]
 8008122:	f1ba 0f00 	cmp.w	sl, #0
 8008126:	d014      	beq.n	8008152 <R3_2_Init+0x9e>
 8008128:	f8da 5000 	ldr.w	r5, [sl]
 800812c:	b11d      	cbz	r5, 8008136 <R3_2_Init+0x82>
 800812e:	682e      	ldr	r6, [r5, #0]
 8008130:	f046 0601 	orr.w	r6, r6, #1
 8008134:	602e      	str	r6, [r5, #0]
 8008136:	f8da 5004 	ldr.w	r5, [sl, #4]
 800813a:	b11d      	cbz	r5, 8008144 <R3_2_Init+0x90>
 800813c:	682e      	ldr	r6, [r5, #0]
 800813e:	f046 0601 	orr.w	r6, r6, #1
 8008142:	602e      	str	r6, [r5, #0]
 8008144:	f8da 5008 	ldr.w	r5, [sl, #8]
 8008148:	b11d      	cbz	r5, 8008152 <R3_2_Init+0x9e>
 800814a:	682e      	ldr	r6, [r5, #0]
 800814c:	f046 0601 	orr.w	r6, r6, #1
 8008150:	602e      	str	r6, [r5, #0]
 8008152:	f1b9 0f00 	cmp.w	r9, #0
 8008156:	d010      	beq.n	800817a <R3_2_Init+0xc6>
 8008158:	f893 50bd 	ldrb.w	r5, [r3, #189]	; 0xbd
 800815c:	2d01      	cmp	r5, #1
 800815e:	f040 809a 	bne.w	8008296 <R3_2_Init+0x1e2>
 8008162:	f8d9 5000 	ldr.w	r5, [r9]
 8008166:	f045 0501 	orr.w	r5, r5, #1
 800816a:	f8c9 5000 	str.w	r5, [r9]
 800816e:	f8d9 5000 	ldr.w	r5, [r9]
 8008172:	f045 4500 	orr.w	r5, r5, #2147483648	; 0x80000000
 8008176:	f8c9 5000 	str.w	r5, [r9]
 800817a:	f1b8 0f00 	cmp.w	r8, #0
 800817e:	d010      	beq.n	80081a2 <R3_2_Init+0xee>
 8008180:	f893 50be 	ldrb.w	r5, [r3, #190]	; 0xbe
 8008184:	2d01      	cmp	r5, #1
 8008186:	f040 80fd 	bne.w	8008384 <R3_2_Init+0x2d0>
 800818a:	f8d8 5000 	ldr.w	r5, [r8]
 800818e:	f045 0501 	orr.w	r5, r5, #1
 8008192:	f8c8 5000 	str.w	r5, [r8]
 8008196:	f8d8 5000 	ldr.w	r5, [r8]
 800819a:	f045 4500 	orr.w	r5, r5, #2147483648	; 0x80000000
 800819e:	f8c8 5000 	str.w	r5, [r8]
 80081a2:	f1be 0f00 	cmp.w	lr, #0
 80081a6:	d010      	beq.n	80081ca <R3_2_Init+0x116>
 80081a8:	f893 50bf 	ldrb.w	r5, [r3, #191]	; 0xbf
 80081ac:	2d01      	cmp	r5, #1
 80081ae:	f040 80c2 	bne.w	8008336 <R3_2_Init+0x282>
 80081b2:	f8de 5000 	ldr.w	r5, [lr]
 80081b6:	f045 0501 	orr.w	r5, r5, #1
 80081ba:	f8ce 5000 	str.w	r5, [lr]
 80081be:	f8de 5000 	ldr.w	r5, [lr]
 80081c2:	f045 4500 	orr.w	r5, r5, #2147483648	; 0x80000000
 80081c6:	f8ce 5000 	str.w	r5, [lr]
 80081ca:	f1bc 0f00 	cmp.w	ip, #0
 80081ce:	d010      	beq.n	80081f2 <R3_2_Init+0x13e>
 80081d0:	f893 50c0 	ldrb.w	r5, [r3, #192]	; 0xc0
 80081d4:	2d01      	cmp	r5, #1
 80081d6:	f040 8087 	bne.w	80082e8 <R3_2_Init+0x234>
 80081da:	f8dc 5000 	ldr.w	r5, [ip]
 80081de:	f045 0501 	orr.w	r5, r5, #1
 80081e2:	f8cc 5000 	str.w	r5, [ip]
 80081e6:	f8dc 5000 	ldr.w	r5, [ip]
 80081ea:	f045 4500 	orr.w	r5, r5, #2147483648	; 0x80000000
 80081ee:	f8cc 5000 	str.w	r5, [ip]
 80081f2:	688d      	ldr	r5, [r1, #8]
 80081f4:	07e8      	lsls	r0, r5, #31
 80081f6:	f140 8105 	bpl.w	8008404 <R3_2_Init+0x350>
 80081fa:	68a1      	ldr	r1, [r4, #8]
 80081fc:	07c8      	lsls	r0, r1, #31
 80081fe:	f140 815a 	bpl.w	80084b6 <R3_2_Init+0x402>
 8008202:	6811      	ldr	r1, [r2, #0]
 8008204:	f021 0101 	bic.w	r1, r1, #1
 8008208:	6011      	str	r1, [r2, #0]
 800820a:	6851      	ldr	r1, [r2, #4]
 800820c:	f021 7100 	bic.w	r1, r1, #33554432	; 0x2000000
 8008210:	f021 0170 	bic.w	r1, r1, #112	; 0x70
 8008214:	6051      	str	r1, [r2, #4]
 8008216:	6991      	ldr	r1, [r2, #24]
 8008218:	f041 0108 	orr.w	r1, r1, #8
 800821c:	6191      	str	r1, [r2, #24]
 800821e:	6991      	ldr	r1, [r2, #24]
 8008220:	f441 6100 	orr.w	r1, r1, #2048	; 0x800
 8008224:	6191      	str	r1, [r2, #24]
 8008226:	69d1      	ldr	r1, [r2, #28]
 8008228:	f041 0108 	orr.w	r1, r1, #8
 800822c:	61d1      	str	r1, [r2, #28]
 800822e:	69d1      	ldr	r1, [r2, #28]
 8008230:	f441 6100 	orr.w	r1, r1, #2048	; 0x800
 8008234:	61d1      	str	r1, [r2, #28]
 8008236:	6951      	ldr	r1, [r2, #20]
 8008238:	f041 0101 	orr.w	r1, r1, #1
 800823c:	6151      	str	r1, [r2, #20]
 800823e:	f893 10c1 	ldrb.w	r1, [r3, #193]	; 0xc1
 8008242:	2902      	cmp	r1, #2
 8008244:	f000 80c6 	beq.w	80083d4 <R3_2_Init+0x320>
 8008248:	9901      	ldr	r1, [sp, #4]
 800824a:	f891 1046 	ldrb.w	r1, [r1, #70]	; 0x46
 800824e:	b939      	cbnz	r1, 8008260 <R3_2_Init+0x1ac>
 8008250:	f893 10bb 	ldrb.w	r1, [r3, #187]	; 0xbb
 8008254:	2901      	cmp	r1, #1
 8008256:	f000 80cb 	beq.w	80083f0 <R3_2_Init+0x33c>
 800825a:	2903      	cmp	r1, #3
 800825c:	f000 817c 	beq.w	8008558 <R3_2_Init+0x4a4>
 8008260:	f06f 0180 	mvn.w	r1, #128	; 0x80
 8008264:	6111      	str	r1, [r2, #16]
 8008266:	f893 30bc 	ldrb.w	r3, [r3, #188]	; 0xbc
 800826a:	b16b      	cbz	r3, 8008288 <R3_2_Init+0x1d4>
 800826c:	6913      	ldr	r3, [r2, #16]
 800826e:	05d8      	lsls	r0, r3, #23
 8008270:	d50a      	bpl.n	8008288 <R3_2_Init+0x1d4>
 8008272:	f44f 737a 	mov.w	r3, #1000	; 0x3e8
 8008276:	f46f 7080 	mvn.w	r0, #256	; 0x100
 800827a:	e001      	b.n	8008280 <R3_2_Init+0x1cc>
 800827c:	3b01      	subs	r3, #1
 800827e:	d003      	beq.n	8008288 <R3_2_Init+0x1d4>
 8008280:	6110      	str	r0, [r2, #16]
 8008282:	6911      	ldr	r1, [r2, #16]
 8008284:	05c9      	lsls	r1, r1, #23
 8008286:	d4f9      	bmi.n	800827c <R3_2_Init+0x1c8>
 8008288:	68d3      	ldr	r3, [r2, #12]
 800828a:	f043 0380 	orr.w	r3, r3, #128	; 0x80
 800828e:	60d3      	str	r3, [r2, #12]
 8008290:	b009      	add	sp, #36	; 0x24
 8008292:	e8bd 8ff0 	ldmia.w	sp!, {r4, r5, r6, r7, r8, r9, sl, fp, pc}
 8008296:	6bdd      	ldr	r5, [r3, #60]	; 0x3c
 8008298:	9e02      	ldr	r6, [sp, #8]
 800829a:	f8b3 00b6 	ldrh.w	r0, [r3, #182]	; 0xb6
 800829e:	ea4f 4a95 	mov.w	sl, r5, lsr #18
 80082a2:	f106 0708 	add.w	r7, r6, #8
 80082a6:	f00a 0a3c 	and.w	sl, sl, #60	; 0x3c
 80082aa:	f005 0b03 	and.w	fp, r5, #3
 80082ae:	f85a 6007 	ldr.w	r6, [sl, r7]
 80082b2:	f426 467f 	bic.w	r6, r6, #65280	; 0xff00
 80082b6:	f026 06f0 	bic.w	r6, r6, #240	; 0xf0
 80082ba:	4306      	orrs	r6, r0
 80082bc:	f84a 6007 	str.w	r6, [sl, r7]
 80082c0:	9802      	ldr	r0, [sp, #8]
 80082c2:	6846      	ldr	r6, [r0, #4]
 80082c4:	ea4b 0606 	orr.w	r6, fp, r6
 80082c8:	6046      	str	r6, [r0, #4]
 80082ca:	f005 0510 	and.w	r5, r5, #16
 80082ce:	2701      	movs	r7, #1
 80082d0:	6806      	ldr	r6, [r0, #0]
 80082d2:	fa07 f505 	lsl.w	r5, r7, r5
 80082d6:	ea35 0006 	bics.w	r0, r5, r6
 80082da:	f43f af42 	beq.w	8008162 <R3_2_Init+0xae>
 80082de:	9e02      	ldr	r6, [sp, #8]
 80082e0:	6837      	ldr	r7, [r6, #0]
 80082e2:	433d      	orrs	r5, r7
 80082e4:	6035      	str	r5, [r6, #0]
 80082e6:	e73c      	b.n	8008162 <R3_2_Init+0xae>
 80082e8:	6c9d      	ldr	r5, [r3, #72]	; 0x48
 80082ea:	9805      	ldr	r0, [sp, #20]
 80082ec:	f8b3 90b8 	ldrh.w	r9, [r3, #184]	; 0xb8
 80082f0:	ea4f 4e95 	mov.w	lr, r5, lsr #18
 80082f4:	f100 0708 	add.w	r7, r0, #8
 80082f8:	f00e 0e3c 	and.w	lr, lr, #60	; 0x3c
 80082fc:	f005 0803 	and.w	r8, r5, #3
 8008300:	f85e 6007 	ldr.w	r6, [lr, r7]
 8008304:	f426 467f 	bic.w	r6, r6, #65280	; 0xff00
 8008308:	f026 06f0 	bic.w	r6, r6, #240	; 0xf0
 800830c:	ea49 0606 	orr.w	r6, r9, r6
 8008310:	f84e 6007 	str.w	r6, [lr, r7]
 8008314:	6846      	ldr	r6, [r0, #4]
 8008316:	ea48 0606 	orr.w	r6, r8, r6
 800831a:	6046      	str	r6, [r0, #4]
 800831c:	6807      	ldr	r7, [r0, #0]
 800831e:	f005 0610 	and.w	r6, r5, #16
 8008322:	2501      	movs	r5, #1
 8008324:	40b5      	lsls	r5, r6
 8008326:	ea35 0607 	bics.w	r6, r5, r7
 800832a:	f43f af56 	beq.w	80081da <R3_2_Init+0x126>
 800832e:	6806      	ldr	r6, [r0, #0]
 8008330:	4335      	orrs	r5, r6
 8008332:	6005      	str	r5, [r0, #0]
 8008334:	e751      	b.n	80081da <R3_2_Init+0x126>
 8008336:	6c5d      	ldr	r5, [r3, #68]	; 0x44
 8008338:	9804      	ldr	r0, [sp, #16]
 800833a:	f8b3 a0b6 	ldrh.w	sl, [r3, #182]	; 0xb6
 800833e:	ea4f 4895 	mov.w	r8, r5, lsr #18
 8008342:	f100 0708 	add.w	r7, r0, #8
 8008346:	f008 083c 	and.w	r8, r8, #60	; 0x3c
 800834a:	f005 0903 	and.w	r9, r5, #3
 800834e:	f858 6007 	ldr.w	r6, [r8, r7]
 8008352:	f426 467f 	bic.w	r6, r6, #65280	; 0xff00
 8008356:	f026 06f0 	bic.w	r6, r6, #240	; 0xf0
 800835a:	ea4a 0606 	orr.w	r6, sl, r6
 800835e:	f848 6007 	str.w	r6, [r8, r7]
 8008362:	6846      	ldr	r6, [r0, #4]
 8008364:	ea49 0606 	orr.w	r6, r9, r6
 8008368:	6046      	str	r6, [r0, #4]
 800836a:	6807      	ldr	r7, [r0, #0]
 800836c:	f005 0610 	and.w	r6, r5, #16
 8008370:	2501      	movs	r5, #1
 8008372:	40b5      	lsls	r5, r6
 8008374:	ea35 0607 	bics.w	r6, r5, r7
 8008378:	f43f af1b 	beq.w	80081b2 <R3_2_Init+0xfe>
 800837c:	6806      	ldr	r6, [r0, #0]
 800837e:	4335      	orrs	r5, r6
 8008380:	6005      	str	r5, [r0, #0]
 8008382:	e716      	b.n	80081b2 <R3_2_Init+0xfe>
 8008384:	6c1d      	ldr	r5, [r3, #64]	; 0x40
 8008386:	9803      	ldr	r0, [sp, #12]
 8008388:	f8b3 b0b6 	ldrh.w	fp, [r3, #182]	; 0xb6
 800838c:	ea4f 4995 	mov.w	r9, r5, lsr #18
 8008390:	f100 0708 	add.w	r7, r0, #8
 8008394:	f009 093c 	and.w	r9, r9, #60	; 0x3c
 8008398:	f005 0a03 	and.w	sl, r5, #3
 800839c:	f859 6007 	ldr.w	r6, [r9, r7]
 80083a0:	f426 467f 	bic.w	r6, r6, #65280	; 0xff00
 80083a4:	f026 06f0 	bic.w	r6, r6, #240	; 0xf0
 80083a8:	ea4b 0606 	orr.w	r6, fp, r6
 80083ac:	f849 6007 	str.w	r6, [r9, r7]
 80083b0:	6846      	ldr	r6, [r0, #4]
 80083b2:	ea4a 0606 	orr.w	r6, sl, r6
 80083b6:	6046      	str	r6, [r0, #4]
 80083b8:	f005 0710 	and.w	r7, r5, #16
 80083bc:	6806      	ldr	r6, [r0, #0]
 80083be:	2501      	movs	r5, #1
 80083c0:	40bd      	lsls	r5, r7
 80083c2:	ea35 0006 	bics.w	r0, r5, r6
 80083c6:	f43f aee0 	beq.w	800818a <R3_2_Init+0xd6>
 80083ca:	9f03      	ldr	r7, [sp, #12]
 80083cc:	683e      	ldr	r6, [r7, #0]
 80083ce:	4335      	orrs	r5, r6
 80083d0:	603d      	str	r5, [r7, #0]
 80083d2:	e6da      	b.n	800818a <R3_2_Init+0xd6>
 80083d4:	f893 10c2 	ldrb.w	r1, [r3, #194]	; 0xc2
 80083d8:	2901      	cmp	r1, #1
 80083da:	d109      	bne.n	80083f0 <R3_2_Init+0x33c>
 80083dc:	f893 40bb 	ldrb.w	r4, [r3, #187]	; 0xbb
 80083e0:	2c03      	cmp	r4, #3
 80083e2:	d105      	bne.n	80083f0 <R3_2_Init+0x33c>
 80083e4:	6311      	str	r1, [r2, #48]	; 0x30
 80083e6:	6951      	ldr	r1, [r2, #20]
 80083e8:	f041 0101 	orr.w	r1, r1, #1
 80083ec:	6151      	str	r1, [r2, #20]
 80083ee:	6314      	str	r4, [r2, #48]	; 0x30
 80083f0:	9901      	ldr	r1, [sp, #4]
 80083f2:	f8b1 1068 	ldrh.w	r1, [r1, #104]	; 0x68
 80083f6:	3901      	subs	r1, #1
 80083f8:	6251      	str	r1, [r2, #36]	; 0x24
 80083fa:	e731      	b.n	8008260 <R3_2_Init+0x1ac>
 80083fc:	e0042000 	.word	0xe0042000
 8008400:	40012c00 	.word	0x40012c00
 8008404:	688d      	ldr	r5, [r1, #8]
 8008406:	f025 4520 	bic.w	r5, r5, #2684354560	; 0xa0000000
 800840a:	f025 053f 	bic.w	r5, r5, #63	; 0x3f
 800840e:	608d      	str	r5, [r1, #8]
 8008410:	688d      	ldr	r5, [r1, #8]
 8008412:	00ef      	lsls	r7, r5, #3
 8008414:	d419      	bmi.n	800844a <R3_2_Init+0x396>
 8008416:	4d54      	ldr	r5, [pc, #336]	; (8008568 <R3_2_Init+0x4b4>)
 8008418:	688e      	ldr	r6, [r1, #8]
 800841a:	682d      	ldr	r5, [r5, #0]
 800841c:	4f53      	ldr	r7, [pc, #332]	; (800856c <R3_2_Init+0x4b8>)
 800841e:	09ad      	lsrs	r5, r5, #6
 8008420:	f026 4610 	bic.w	r6, r6, #2415919104	; 0x90000000
 8008424:	fba7 0505 	umull	r0, r5, r7, r5
 8008428:	f026 063f 	bic.w	r6, r6, #63	; 0x3f
 800842c:	09ad      	lsrs	r5, r5, #6
 800842e:	f046 5680 	orr.w	r6, r6, #268435456	; 0x10000000
 8008432:	608e      	str	r6, [r1, #8]
 8008434:	9506      	str	r5, [sp, #24]
 8008436:	9d06      	ldr	r5, [sp, #24]
 8008438:	b13d      	cbz	r5, 800844a <R3_2_Init+0x396>
 800843a:	9801      	ldr	r0, [sp, #4]
 800843c:	9d06      	ldr	r5, [sp, #24]
 800843e:	3d01      	subs	r5, #1
 8008440:	9506      	str	r5, [sp, #24]
 8008442:	9d06      	ldr	r5, [sp, #24]
 8008444:	2d00      	cmp	r5, #0
 8008446:	d1f9      	bne.n	800843c <R3_2_Init+0x388>
 8008448:	9001      	str	r0, [sp, #4]
 800844a:	688d      	ldr	r5, [r1, #8]
 800844c:	9801      	ldr	r0, [sp, #4]
 800844e:	f025 4540 	bic.w	r5, r5, #3221225472	; 0xc0000000
 8008452:	f025 053f 	bic.w	r5, r5, #63	; 0x3f
 8008456:	f045 4500 	orr.w	r5, r5, #2147483648	; 0x80000000
 800845a:	608d      	str	r5, [r1, #8]
 800845c:	688d      	ldr	r5, [r1, #8]
 800845e:	2d00      	cmp	r5, #0
 8008460:	dbfc      	blt.n	800845c <R3_2_Init+0x3a8>
 8008462:	680d      	ldr	r5, [r1, #0]
 8008464:	9001      	str	r0, [sp, #4]
 8008466:	07ee      	lsls	r6, r5, #31
 8008468:	d409      	bmi.n	800847e <R3_2_Init+0x3ca>
 800846a:	4e41      	ldr	r6, [pc, #260]	; (8008570 <R3_2_Init+0x4bc>)
 800846c:	688d      	ldr	r5, [r1, #8]
 800846e:	4035      	ands	r5, r6
 8008470:	f045 0501 	orr.w	r5, r5, #1
 8008474:	608d      	str	r5, [r1, #8]
 8008476:	680d      	ldr	r5, [r1, #0]
 8008478:	07ed      	lsls	r5, r5, #31
 800847a:	d5f7      	bpl.n	800846c <R3_2_Init+0x3b8>
 800847c:	9001      	str	r0, [sp, #4]
 800847e:	688e      	ldr	r6, [r1, #8]
 8008480:	4f3b      	ldr	r7, [pc, #236]	; (8008570 <R3_2_Init+0x4bc>)
 8008482:	403e      	ands	r6, r7
 8008484:	f046 0608 	orr.w	r6, r6, #8
 8008488:	608e      	str	r6, [r1, #8]
 800848a:	688d      	ldr	r5, [r1, #8]
 800848c:	403d      	ands	r5, r7
 800848e:	f045 0520 	orr.w	r5, r5, #32
 8008492:	608d      	str	r5, [r1, #8]
 8008494:	68cd      	ldr	r5, [r1, #12]
 8008496:	f025 4500 	bic.w	r5, r5, #2147483648	; 0x80000000
 800849a:	f425 1500 	bic.w	r5, r5, #2097152	; 0x200000
 800849e:	f445 1500 	orr.w	r5, r5, #2097152	; 0x200000
 80084a2:	2640      	movs	r6, #64	; 0x40
 80084a4:	60cd      	str	r5, [r1, #12]
 80084a6:	600e      	str	r6, [r1, #0]
 80084a8:	684d      	ldr	r5, [r1, #4]
 80084aa:	4335      	orrs	r5, r6
 80084ac:	604d      	str	r5, [r1, #4]
 80084ae:	68a1      	ldr	r1, [r4, #8]
 80084b0:	07c8      	lsls	r0, r1, #31
 80084b2:	f53f aea6 	bmi.w	8008202 <R3_2_Init+0x14e>
 80084b6:	68a1      	ldr	r1, [r4, #8]
 80084b8:	f021 4120 	bic.w	r1, r1, #2684354560	; 0xa0000000
 80084bc:	f021 013f 	bic.w	r1, r1, #63	; 0x3f
 80084c0:	60a1      	str	r1, [r4, #8]
 80084c2:	68a1      	ldr	r1, [r4, #8]
 80084c4:	00c9      	lsls	r1, r1, #3
 80084c6:	d419      	bmi.n	80084fc <R3_2_Init+0x448>
 80084c8:	4927      	ldr	r1, [pc, #156]	; (8008568 <R3_2_Init+0x4b4>)
 80084ca:	68a5      	ldr	r5, [r4, #8]
 80084cc:	6809      	ldr	r1, [r1, #0]
 80084ce:	4e27      	ldr	r6, [pc, #156]	; (800856c <R3_2_Init+0x4b8>)
 80084d0:	0989      	lsrs	r1, r1, #6
 80084d2:	f025 4510 	bic.w	r5, r5, #2415919104	; 0x90000000
 80084d6:	fba6 0101 	umull	r0, r1, r6, r1
 80084da:	f025 053f 	bic.w	r5, r5, #63	; 0x3f
 80084de:	0989      	lsrs	r1, r1, #6
 80084e0:	f045 5580 	orr.w	r5, r5, #268435456	; 0x10000000
 80084e4:	60a5      	str	r5, [r4, #8]
 80084e6:	9107      	str	r1, [sp, #28]
 80084e8:	9907      	ldr	r1, [sp, #28]
 80084ea:	b139      	cbz	r1, 80084fc <R3_2_Init+0x448>
 80084ec:	9801      	ldr	r0, [sp, #4]
 80084ee:	9907      	ldr	r1, [sp, #28]
 80084f0:	3901      	subs	r1, #1
 80084f2:	9107      	str	r1, [sp, #28]
 80084f4:	9907      	ldr	r1, [sp, #28]
 80084f6:	2900      	cmp	r1, #0
 80084f8:	d1f9      	bne.n	80084ee <R3_2_Init+0x43a>
 80084fa:	9001      	str	r0, [sp, #4]
 80084fc:	68a1      	ldr	r1, [r4, #8]
 80084fe:	9801      	ldr	r0, [sp, #4]
 8008500:	f021 4140 	bic.w	r1, r1, #3221225472	; 0xc0000000
 8008504:	f021 013f 	bic.w	r1, r1, #63	; 0x3f
 8008508:	f041 4100 	orr.w	r1, r1, #2147483648	; 0x80000000
 800850c:	60a1      	str	r1, [r4, #8]
 800850e:	68a1      	ldr	r1, [r4, #8]
 8008510:	2900      	cmp	r1, #0
 8008512:	dbfc      	blt.n	800850e <R3_2_Init+0x45a>
 8008514:	6821      	ldr	r1, [r4, #0]
 8008516:	9001      	str	r0, [sp, #4]
 8008518:	07cf      	lsls	r7, r1, #31
 800851a:	d409      	bmi.n	8008530 <R3_2_Init+0x47c>
 800851c:	4d14      	ldr	r5, [pc, #80]	; (8008570 <R3_2_Init+0x4bc>)
 800851e:	68a1      	ldr	r1, [r4, #8]
 8008520:	4029      	ands	r1, r5
 8008522:	f041 0101 	orr.w	r1, r1, #1
 8008526:	60a1      	str	r1, [r4, #8]
 8008528:	6821      	ldr	r1, [r4, #0]
 800852a:	07ce      	lsls	r6, r1, #31
 800852c:	d5f7      	bpl.n	800851e <R3_2_Init+0x46a>
 800852e:	9001      	str	r0, [sp, #4]
 8008530:	68a5      	ldr	r5, [r4, #8]
 8008532:	4e0f      	ldr	r6, [pc, #60]	; (8008570 <R3_2_Init+0x4bc>)
 8008534:	4035      	ands	r5, r6
 8008536:	f045 0508 	orr.w	r5, r5, #8
 800853a:	60a5      	str	r5, [r4, #8]
 800853c:	68a1      	ldr	r1, [r4, #8]
 800853e:	4031      	ands	r1, r6
 8008540:	f041 0120 	orr.w	r1, r1, #32
 8008544:	60a1      	str	r1, [r4, #8]
 8008546:	68e1      	ldr	r1, [r4, #12]
 8008548:	f021 4100 	bic.w	r1, r1, #2147483648	; 0x80000000
 800854c:	f421 1100 	bic.w	r1, r1, #2097152	; 0x200000
 8008550:	f441 1100 	orr.w	r1, r1, #2097152	; 0x200000
 8008554:	60e1      	str	r1, [r4, #12]
 8008556:	e654      	b.n	8008202 <R3_2_Init+0x14e>
 8008558:	2001      	movs	r0, #1
 800855a:	6310      	str	r0, [r2, #48]	; 0x30
 800855c:	6950      	ldr	r0, [r2, #20]
 800855e:	f040 0001 	orr.w	r0, r0, #1
 8008562:	6150      	str	r0, [r2, #20]
 8008564:	6311      	str	r1, [r2, #48]	; 0x30
 8008566:	e67b      	b.n	8008260 <R3_2_Init+0x1ac>
 8008568:	20000738 	.word	0x20000738
 800856c:	053e2d63 	.word	0x053e2d63
 8008570:	7fffffc0 	.word	0x7fffffc0

08008574 <R3_2_CurrentReadingPolarization>:
 8008574:	6f43      	ldr	r3, [r0, #116]	; 0x74
 8008576:	4945      	ldr	r1, [pc, #276]	; (800868c <R3_2_CurrentReadingPolarization+0x118>)
 8008578:	e92d 41f0 	stmdb	sp!, {r4, r5, r6, r7, r8, lr}
 800857c:	2200      	movs	r2, #0
 800857e:	689d      	ldr	r5, [r3, #8]
 8008580:	e9d3 7600 	ldrd	r7, r6, [r3]
 8008584:	f880 206c 	strb.w	r2, [r0, #108]	; 0x6c
 8008588:	6a2b      	ldr	r3, [r5, #32]
 800858a:	65c2      	str	r2, [r0, #92]	; 0x5c
 800858c:	f423 63aa 	bic.w	r3, r3, #1360	; 0x550
 8008590:	f023 0305 	bic.w	r3, r3, #5
 8008594:	e9c0 2218 	strd	r2, r2, [r0, #96]	; 0x60
 8008598:	622b      	str	r3, [r5, #32]
 800859a:	4b3d      	ldr	r3, [pc, #244]	; (8008690 <R3_2_CurrentReadingPolarization+0x11c>)
 800859c:	6183      	str	r3, [r0, #24]
 800859e:	2280      	movs	r2, #128	; 0x80
 80085a0:	2304      	movs	r3, #4
 80085a2:	f8a0 206a 	strh.w	r2, [r0, #106]	; 0x6a
 80085a6:	6041      	str	r1, [r0, #4]
 80085a8:	f880 306d 	strb.w	r3, [r0, #109]	; 0x6d
 80085ac:	f880 303a 	strb.w	r3, [r0, #58]	; 0x3a
 80085b0:	4604      	mov	r4, r0
 80085b2:	f7ff fc6d 	bl	8007e90 <R3_2_SwitchOnPWM>
 80085b6:	4a37      	ldr	r2, [pc, #220]	; (8008694 <R3_2_CurrentReadingPolarization+0x120>)
 80085b8:	686b      	ldr	r3, [r5, #4]
 80085ba:	4013      	ands	r3, r2
 80085bc:	2b70      	cmp	r3, #112	; 0x70
 80085be:	d1fb      	bne.n	80085b8 <R3_2_CurrentReadingPolarization+0x44>
 80085c0:	68ba      	ldr	r2, [r7, #8]
 80085c2:	4935      	ldr	r1, [pc, #212]	; (8008698 <R3_2_CurrentReadingPolarization+0x124>)
 80085c4:	6f60      	ldr	r0, [r4, #116]	; 0x74
 80085c6:	400a      	ands	r2, r1
 80085c8:	f042 0208 	orr.w	r2, r2, #8
 80085cc:	60ba      	str	r2, [r7, #8]
 80085ce:	68b3      	ldr	r3, [r6, #8]
 80085d0:	400b      	ands	r3, r1
 80085d2:	f043 0308 	orr.w	r3, r3, #8
 80085d6:	60b3      	str	r3, [r6, #8]
 80085d8:	f104 0738 	add.w	r7, r4, #56	; 0x38
 80085dc:	f104 086c 	add.w	r8, r4, #108	; 0x6c
 80085e0:	f890 20bb 	ldrb.w	r2, [r0, #187]	; 0xbb
 80085e4:	4639      	mov	r1, r7
 80085e6:	4643      	mov	r3, r8
 80085e8:	4628      	mov	r0, r5
 80085ea:	f7ff f967 	bl	80078bc <waitForPolarizationEnd>
 80085ee:	4620      	mov	r0, r4
 80085f0:	f7ff fc92 	bl	8007f18 <R3_2_SwitchOffPWM>
 80085f4:	2600      	movs	r6, #0
 80085f6:	4b29      	ldr	r3, [pc, #164]	; (800869c <R3_2_CurrentReadingPolarization+0x128>)
 80085f8:	6063      	str	r3, [r4, #4]
 80085fa:	4620      	mov	r0, r4
 80085fc:	f8a4 606c 	strh.w	r6, [r4, #108]	; 0x6c
 8008600:	f884 603a 	strb.w	r6, [r4, #58]	; 0x3a
 8008604:	f7ff fc44 	bl	8007e90 <R3_2_SwitchOnPWM>
 8008608:	6f62      	ldr	r2, [r4, #116]	; 0x74
 800860a:	4639      	mov	r1, r7
 800860c:	4643      	mov	r3, r8
 800860e:	f892 20bb 	ldrb.w	r2, [r2, #187]	; 0xbb
 8008612:	4f23      	ldr	r7, [pc, #140]	; (80086a0 <R3_2_CurrentReadingPolarization+0x12c>)
 8008614:	4628      	mov	r0, r5
 8008616:	f7ff f951 	bl	80078bc <waitForPolarizationEnd>
 800861a:	4620      	mov	r0, r4
 800861c:	f7ff fc7c 	bl	8007f18 <R3_2_SwitchOffPWM>
 8008620:	e9d4 1217 	ldrd	r1, r2, [r4, #92]	; 0x5c
 8008624:	6e63      	ldr	r3, [r4, #100]	; 0x64
 8008626:	481f      	ldr	r0, [pc, #124]	; (80086a4 <R3_2_CurrentReadingPolarization+0x130>)
 8008628:	6067      	str	r7, [r4, #4]
 800862a:	0912      	lsrs	r2, r2, #4
 800862c:	0909      	lsrs	r1, r1, #4
 800862e:	e9c4 1217 	strd	r1, r2, [r4, #92]	; 0x5c
 8008632:	091b      	lsrs	r3, r3, #4
 8008634:	6663      	str	r3, [r4, #100]	; 0x64
 8008636:	69ab      	ldr	r3, [r5, #24]
 8008638:	61a0      	str	r0, [r4, #24]
 800863a:	f023 0308 	bic.w	r3, r3, #8
 800863e:	61ab      	str	r3, [r5, #24]
 8008640:	69aa      	ldr	r2, [r5, #24]
 8008642:	f8b4 3068 	ldrh.w	r3, [r4, #104]	; 0x68
 8008646:	f422 6200 	bic.w	r2, r2, #2048	; 0x800
 800864a:	61aa      	str	r2, [r5, #24]
 800864c:	69ea      	ldr	r2, [r5, #28]
 800864e:	f022 0208 	bic.w	r2, r2, #8
 8008652:	61ea      	str	r2, [r5, #28]
 8008654:	636b      	str	r3, [r5, #52]	; 0x34
 8008656:	63ab      	str	r3, [r5, #56]	; 0x38
 8008658:	63eb      	str	r3, [r5, #60]	; 0x3c
 800865a:	69ab      	ldr	r3, [r5, #24]
 800865c:	f043 0308 	orr.w	r3, r3, #8
 8008660:	61ab      	str	r3, [r5, #24]
 8008662:	69ab      	ldr	r3, [r5, #24]
 8008664:	f443 6300 	orr.w	r3, r3, #2048	; 0x800
 8008668:	61ab      	str	r3, [r5, #24]
 800866a:	69eb      	ldr	r3, [r5, #28]
 800866c:	f043 0308 	orr.w	r3, r3, #8
 8008670:	61eb      	str	r3, [r5, #28]
 8008672:	6a2b      	ldr	r3, [r5, #32]
 8008674:	f443 63aa 	orr.w	r3, r3, #1360	; 0x550
 8008678:	f043 0305 	orr.w	r3, r3, #5
 800867c:	2204      	movs	r2, #4
 800867e:	622b      	str	r3, [r5, #32]
 8008680:	f884 203a 	strb.w	r2, [r4, #58]	; 0x3a
 8008684:	f884 6070 	strb.w	r6, [r4, #112]	; 0x70
 8008688:	e8bd 81f0 	ldmia.w	sp!, {r4, r5, r6, r7, r8, pc}
 800868c:	08007dc1 	.word	0x08007dc1
 8008690:	08007d11 	.word	0x08007d11
 8008694:	02000070 	.word	0x02000070
 8008698:	7fffffc0 	.word	0x7fffffc0
 800869c:	08007e05 	.word	0x08007e05
 80086a0:	08007b85 	.word	0x08007b85
 80086a4:	08007d4d 	.word	0x08007d4d

080086a8 <R3_2_TIMx_UP_IRQHandler>:
 80086a8:	e92d 41f0 	stmdb	sp!, {r4, r5, r6, r7, r8, lr}
 80086ac:	6f42      	ldr	r2, [r0, #116]	; 0x74
 80086ae:	f890 503a 	ldrb.w	r5, [r0, #58]	; 0x3a
 80086b2:	4604      	mov	r4, r0
 80086b4:	e9d2 6002 	ldrd	r6, r0, [r2, #8]
 80086b8:	e9d2 1800 	ldrd	r1, r8, [r2]
 80086bc:	2800      	cmp	r0, #0
 80086be:	d03c      	beq.n	800873a <R3_2_TIMx_UP_IRQHandler+0x92>
 80086c0:	6ccb      	ldr	r3, [r1, #76]	; 0x4c
 80086c2:	2b00      	cmp	r3, #0
 80086c4:	d1fc      	bne.n	80086c0 <R3_2_TIMx_UP_IRQHandler+0x18>
 80086c6:	b22d      	sxth	r5, r5
 80086c8:	eb00 0385 	add.w	r3, r0, r5, lsl #2
 80086cc:	f8d3 c00c 	ldr.w	ip, [r3, #12]
 80086d0:	f1bc 0f00 	cmp.w	ip, #0
 80086d4:	d007      	beq.n	80086e6 <R3_2_TIMx_UP_IRQHandler+0x3e>
 80086d6:	f8dc 0000 	ldr.w	r0, [ip]
 80086da:	6bdf      	ldr	r7, [r3, #60]	; 0x3c
 80086dc:	f420 7086 	bic.w	r0, r0, #268	; 0x10c
 80086e0:	4338      	orrs	r0, r7
 80086e2:	f8cc 0000 	str.w	r0, [ip]
 80086e6:	f8d3 c024 	ldr.w	ip, [r3, #36]	; 0x24
 80086ea:	f1bc 0f00 	cmp.w	ip, #0
 80086ee:	d009      	beq.n	8008704 <R3_2_TIMx_UP_IRQHandler+0x5c>
 80086f0:	f8dc 0000 	ldr.w	r0, [ip]
 80086f4:	f8d3 e054 	ldr.w	lr, [r3, #84]	; 0x54
 80086f8:	f420 7386 	bic.w	r3, r0, #268	; 0x10c
 80086fc:	ea43 030e 	orr.w	r3, r3, lr
 8008700:	f8cc 3000 	str.w	r3, [ip]
 8008704:	eb02 0285 	add.w	r2, r2, r5, lsl #2
 8008708:	f8b4 306a 	ldrh.w	r3, [r4, #106]	; 0x6a
 800870c:	6fd0      	ldr	r0, [r2, #124]	; 0x7c
 800870e:	f8d2 5094 	ldr.w	r5, [r2, #148]	; 0x94
 8008712:	4318      	orrs	r0, r3
 8008714:	432b      	orrs	r3, r5
 8008716:	64c8      	str	r0, [r1, #76]	; 0x4c
 8008718:	f8c8 304c 	str.w	r3, [r8, #76]	; 0x4c
 800871c:	6873      	ldr	r3, [r6, #4]
 800871e:	f023 7300 	bic.w	r3, r3, #33554432	; 0x2000000
 8008722:	f023 0370 	bic.w	r3, r3, #112	; 0x70
 8008726:	f043 0370 	orr.w	r3, r3, #112	; 0x70
 800872a:	2280      	movs	r2, #128	; 0x80
 800872c:	6073      	str	r3, [r6, #4]
 800872e:	f104 0046 	add.w	r0, r4, #70	; 0x46
 8008732:	f8a4 206a 	strh.w	r2, [r4, #106]	; 0x6a
 8008736:	e8bd 81f0 	ldmia.w	sp!, {r4, r5, r6, r7, r8, pc}
 800873a:	b22d      	sxth	r5, r5
 800873c:	e7e2      	b.n	8008704 <R3_2_TIMx_UP_IRQHandler+0x5c>
 800873e:	bf00      	nop

08008740 <R3_2_BRK2_IRQHandler>:
 8008740:	f890 3070 	ldrb.w	r3, [r0, #112]	; 0x70
 8008744:	b923      	cbnz	r3, 8008750 <R3_2_BRK2_IRQHandler+0x10>
 8008746:	6f43      	ldr	r3, [r0, #116]	; 0x74
 8008748:	f893 20ba 	ldrb.w	r2, [r3, #186]	; 0xba
 800874c:	2a02      	cmp	r2, #2
 800874e:	d004      	beq.n	800875a <R3_2_BRK2_IRQHandler+0x1a>
 8008750:	2301      	movs	r3, #1
 8008752:	f880 306e 	strb.w	r3, [r0, #110]	; 0x6e
 8008756:	3046      	adds	r0, #70	; 0x46
 8008758:	4770      	bx	lr
 800875a:	b430      	push	{r4, r5}
 800875c:	e9d3 4108 	ldrd	r4, r1, [r3, #32]
 8008760:	f8b3 50ac 	ldrh.w	r5, [r3, #172]	; 0xac
 8008764:	6a9a      	ldr	r2, [r3, #40]	; 0x28
 8008766:	62a5      	str	r5, [r4, #40]	; 0x28
 8008768:	f8b3 40ae 	ldrh.w	r4, [r3, #174]	; 0xae
 800876c:	f8b3 30b0 	ldrh.w	r3, [r3, #176]	; 0xb0
 8008770:	628c      	str	r4, [r1, #40]	; 0x28
 8008772:	6293      	str	r3, [r2, #40]	; 0x28
 8008774:	2301      	movs	r3, #1
 8008776:	f880 306e 	strb.w	r3, [r0, #110]	; 0x6e
 800877a:	bc30      	pop	{r4, r5}
 800877c:	3046      	adds	r0, #70	; 0x46
 800877e:	4770      	bx	lr

08008780 <R3_2_BRK_IRQHandler>:
 8008780:	6f42      	ldr	r2, [r0, #116]	; 0x74
 8008782:	4603      	mov	r3, r0
 8008784:	6890      	ldr	r0, [r2, #8]
 8008786:	6c42      	ldr	r2, [r0, #68]	; 0x44
 8008788:	2101      	movs	r1, #1
 800878a:	f442 6280 	orr.w	r2, r2, #1024	; 0x400
 800878e:	6442      	str	r2, [r0, #68]	; 0x44
 8008790:	f103 0046 	add.w	r0, r3, #70	; 0x46
 8008794:	f883 106f 	strb.w	r1, [r3, #111]	; 0x6f
 8008798:	f883 1070 	strb.w	r1, [r3, #112]	; 0x70
 800879c:	4770      	bx	lr
 800879e:	bf00      	nop

080087a0 <R3_2_IsOverCurrentOccurred>:
 80087a0:	4602      	mov	r2, r0
 80087a2:	f890 006f 	ldrb.w	r0, [r0, #111]	; 0x6f
 80087a6:	b160      	cbz	r0, 80087c2 <R3_2_IsOverCurrentOccurred+0x22>
 80087a8:	2300      	movs	r3, #0
 80087aa:	f882 306f 	strb.w	r3, [r2, #111]	; 0x6f
 80087ae:	2142      	movs	r1, #66	; 0x42
 80087b0:	2002      	movs	r0, #2
 80087b2:	f892 306e 	ldrb.w	r3, [r2, #110]	; 0x6e
 80087b6:	b11b      	cbz	r3, 80087c0 <R3_2_IsOverCurrentOccurred+0x20>
 80087b8:	2300      	movs	r3, #0
 80087ba:	4608      	mov	r0, r1
 80087bc:	f882 306e 	strb.w	r3, [r2, #110]	; 0x6e
 80087c0:	4770      	bx	lr
 80087c2:	2140      	movs	r1, #64	; 0x40
 80087c4:	e7f5      	b.n	80087b2 <R3_2_IsOverCurrentOccurred+0x12>
 80087c6:	bf00      	nop

080087c8 <R3_2_RLDetectionModeEnable>:
 80087c8:	f890 1047 	ldrb.w	r1, [r0, #71]	; 0x47
 80087cc:	b430      	push	{r4, r5}
 80087ce:	2900      	cmp	r1, #0
 80087d0:	d13c      	bne.n	800884c <R3_2_RLDetectionModeEnable+0x84>
 80087d2:	6f42      	ldr	r2, [r0, #116]	; 0x74
 80087d4:	6893      	ldr	r3, [r2, #8]
 80087d6:	f892 50ba 	ldrb.w	r5, [r2, #186]	; 0xba
 80087da:	699a      	ldr	r2, [r3, #24]
 80087dc:	f422 3280 	bic.w	r2, r2, #65536	; 0x10000
 80087e0:	f022 0273 	bic.w	r2, r2, #115	; 0x73
 80087e4:	f042 0260 	orr.w	r2, r2, #96	; 0x60
 80087e8:	619a      	str	r2, [r3, #24]
 80087ea:	6a1a      	ldr	r2, [r3, #32]
 80087ec:	f042 0201 	orr.w	r2, r2, #1
 80087f0:	621a      	str	r2, [r3, #32]
 80087f2:	6a1a      	ldr	r2, [r3, #32]
 80087f4:	2d01      	cmp	r5, #1
 80087f6:	f022 0204 	bic.w	r2, r2, #4
 80087fa:	621a      	str	r2, [r3, #32]
 80087fc:	f103 0418 	add.w	r4, r3, #24
 8008800:	6359      	str	r1, [r3, #52]	; 0x34
 8008802:	d030      	beq.n	8008866 <R3_2_RLDetectionModeEnable+0x9e>
 8008804:	2d02      	cmp	r5, #2
 8008806:	d10f      	bne.n	8008828 <R3_2_RLDetectionModeEnable+0x60>
 8008808:	699a      	ldr	r2, [r3, #24]
 800880a:	f022 7280 	bic.w	r2, r2, #16777216	; 0x1000000
 800880e:	f422 42e6 	bic.w	r2, r2, #29440	; 0x7300
 8008812:	f442 5200 	orr.w	r2, r2, #8192	; 0x2000
 8008816:	619a      	str	r2, [r3, #24]
 8008818:	6a1a      	ldr	r2, [r3, #32]
 800881a:	f042 0210 	orr.w	r2, r2, #16
 800881e:	621a      	str	r2, [r3, #32]
 8008820:	6a1a      	ldr	r2, [r3, #32]
 8008822:	f022 0240 	bic.w	r2, r2, #64	; 0x40
 8008826:	621a      	str	r2, [r3, #32]
 8008828:	6862      	ldr	r2, [r4, #4]
 800882a:	f422 3280 	bic.w	r2, r2, #65536	; 0x10000
 800882e:	f022 0273 	bic.w	r2, r2, #115	; 0x73
 8008832:	f042 0270 	orr.w	r2, r2, #112	; 0x70
 8008836:	6062      	str	r2, [r4, #4]
 8008838:	6a1a      	ldr	r2, [r3, #32]
 800883a:	6e01      	ldr	r1, [r0, #96]	; 0x60
 800883c:	f422 7280 	bic.w	r2, r2, #256	; 0x100
 8008840:	621a      	str	r2, [r3, #32]
 8008842:	6a1a      	ldr	r2, [r3, #32]
 8008844:	f422 6280 	bic.w	r2, r2, #1024	; 0x400
 8008848:	621a      	str	r2, [r3, #32]
 800884a:	65c1      	str	r1, [r0, #92]	; 0x5c
 800884c:	4b0e      	ldr	r3, [pc, #56]	; (8008888 <R3_2_RLDetectionModeEnable+0xc0>)
 800884e:	490f      	ldr	r1, [pc, #60]	; (800888c <R3_2_RLDetectionModeEnable+0xc4>)
 8008850:	4a0f      	ldr	r2, [pc, #60]	; (8008890 <R3_2_RLDetectionModeEnable+0xc8>)
 8008852:	4c10      	ldr	r4, [pc, #64]	; (8008894 <R3_2_RLDetectionModeEnable+0xcc>)
 8008854:	6043      	str	r3, [r0, #4]
 8008856:	2301      	movs	r3, #1
 8008858:	6144      	str	r4, [r0, #20]
 800885a:	e9c0 2102 	strd	r2, r1, [r0, #8]
 800885e:	f880 3047 	strb.w	r3, [r0, #71]	; 0x47
 8008862:	bc30      	pop	{r4, r5}
 8008864:	4770      	bx	lr
 8008866:	699a      	ldr	r2, [r3, #24]
 8008868:	f022 7280 	bic.w	r2, r2, #16777216	; 0x1000000
 800886c:	f422 42e6 	bic.w	r2, r2, #29440	; 0x7300
 8008870:	f442 5280 	orr.w	r2, r2, #4096	; 0x1000
 8008874:	619a      	str	r2, [r3, #24]
 8008876:	6a1a      	ldr	r2, [r3, #32]
 8008878:	f022 0210 	bic.w	r2, r2, #16
 800887c:	621a      	str	r2, [r3, #32]
 800887e:	6a1a      	ldr	r2, [r3, #32]
 8008880:	f042 0240 	orr.w	r2, r2, #64	; 0x40
 8008884:	621a      	str	r2, [r3, #32]
 8008886:	e7cf      	b.n	8008828 <R3_2_RLDetectionModeEnable+0x60>
 8008888:	08007f75 	.word	0x08007f75
 800888c:	08008011 	.word	0x08008011
 8008890:	08007f19 	.word	0x08007f19
 8008894:	08007fcd 	.word	0x08007fcd

08008898 <R3_2_RLDetectionModeDisable>:
 8008898:	f890 3047 	ldrb.w	r3, [r0, #71]	; 0x47
 800889c:	2b00      	cmp	r3, #0
 800889e:	d03b      	beq.n	8008918 <R3_2_RLDetectionModeDisable+0x80>
 80088a0:	6f42      	ldr	r2, [r0, #116]	; 0x74
 80088a2:	6893      	ldr	r3, [r2, #8]
 80088a4:	b470      	push	{r4, r5, r6}
 80088a6:	f892 50ba 	ldrb.w	r5, [r2, #186]	; 0xba
 80088aa:	4c40      	ldr	r4, [pc, #256]	; (80089ac <R3_2_RLDetectionModeDisable+0x114>)
 80088ac:	699a      	ldr	r2, [r3, #24]
 80088ae:	f8b0 6068 	ldrh.w	r6, [r0, #104]	; 0x68
 80088b2:	4022      	ands	r2, r4
 80088b4:	f042 0260 	orr.w	r2, r2, #96	; 0x60
 80088b8:	619a      	str	r2, [r3, #24]
 80088ba:	6a19      	ldr	r1, [r3, #32]
 80088bc:	2d01      	cmp	r5, #1
 80088be:	f041 0101 	orr.w	r1, r1, #1
 80088c2:	6219      	str	r1, [r3, #32]
 80088c4:	ea4f 0656 	mov.w	r6, r6, lsr #1
 80088c8:	d027      	beq.n	800891a <R3_2_RLDetectionModeDisable+0x82>
 80088ca:	2d02      	cmp	r5, #2
 80088cc:	d049      	beq.n	8008962 <R3_2_RLDetectionModeDisable+0xca>
 80088ce:	635e      	str	r6, [r3, #52]	; 0x34
 80088d0:	6999      	ldr	r1, [r3, #24]
 80088d2:	f021 7180 	bic.w	r1, r1, #16777216	; 0x1000000
 80088d6:	f421 41e6 	bic.w	r1, r1, #29440	; 0x7300
 80088da:	f441 41c0 	orr.w	r1, r1, #24576	; 0x6000
 80088de:	6199      	str	r1, [r3, #24]
 80088e0:	6a19      	ldr	r1, [r3, #32]
 80088e2:	f041 0110 	orr.w	r1, r1, #16
 80088e6:	6219      	str	r1, [r3, #32]
 80088e8:	639e      	str	r6, [r3, #56]	; 0x38
 80088ea:	69d9      	ldr	r1, [r3, #28]
 80088ec:	400c      	ands	r4, r1
 80088ee:	f044 0460 	orr.w	r4, r4, #96	; 0x60
 80088f2:	61dc      	str	r4, [r3, #28]
 80088f4:	6a19      	ldr	r1, [r3, #32]
 80088f6:	f441 7180 	orr.w	r1, r1, #256	; 0x100
 80088fa:	6219      	str	r1, [r3, #32]
 80088fc:	492c      	ldr	r1, [pc, #176]	; (80089b0 <R3_2_RLDetectionModeDisable+0x118>)
 80088fe:	4a2d      	ldr	r2, [pc, #180]	; (80089b4 <R3_2_RLDetectionModeDisable+0x11c>)
 8008900:	63de      	str	r6, [r3, #60]	; 0x3c
 8008902:	4d2d      	ldr	r5, [pc, #180]	; (80089b8 <R3_2_RLDetectionModeDisable+0x120>)
 8008904:	4c2d      	ldr	r4, [pc, #180]	; (80089bc <R3_2_RLDetectionModeDisable+0x124>)
 8008906:	6045      	str	r5, [r0, #4]
 8008908:	2300      	movs	r3, #0
 800890a:	6144      	str	r4, [r0, #20]
 800890c:	e9c0 2102 	strd	r2, r1, [r0, #8]
 8008910:	f880 3047 	strb.w	r3, [r0, #71]	; 0x47
 8008914:	bc70      	pop	{r4, r5, r6}
 8008916:	4770      	bx	lr
 8008918:	4770      	bx	lr
 800891a:	6a19      	ldr	r1, [r3, #32]
 800891c:	f041 0104 	orr.w	r1, r1, #4
 8008920:	6219      	str	r1, [r3, #32]
 8008922:	635e      	str	r6, [r3, #52]	; 0x34
 8008924:	6999      	ldr	r1, [r3, #24]
 8008926:	f021 7180 	bic.w	r1, r1, #16777216	; 0x1000000
 800892a:	f421 41e6 	bic.w	r1, r1, #29440	; 0x7300
 800892e:	f441 41c0 	orr.w	r1, r1, #24576	; 0x6000
 8008932:	6199      	str	r1, [r3, #24]
 8008934:	6a19      	ldr	r1, [r3, #32]
 8008936:	f041 0110 	orr.w	r1, r1, #16
 800893a:	6219      	str	r1, [r3, #32]
 800893c:	6a19      	ldr	r1, [r3, #32]
 800893e:	f041 0140 	orr.w	r1, r1, #64	; 0x40
 8008942:	6219      	str	r1, [r3, #32]
 8008944:	639e      	str	r6, [r3, #56]	; 0x38
 8008946:	69d9      	ldr	r1, [r3, #28]
 8008948:	400c      	ands	r4, r1
 800894a:	f044 0460 	orr.w	r4, r4, #96	; 0x60
 800894e:	61dc      	str	r4, [r3, #28]
 8008950:	6a19      	ldr	r1, [r3, #32]
 8008952:	f441 7180 	orr.w	r1, r1, #256	; 0x100
 8008956:	6219      	str	r1, [r3, #32]
 8008958:	6a19      	ldr	r1, [r3, #32]
 800895a:	f441 6180 	orr.w	r1, r1, #1024	; 0x400
 800895e:	6219      	str	r1, [r3, #32]
 8008960:	e7cc      	b.n	80088fc <R3_2_RLDetectionModeDisable+0x64>
 8008962:	6a19      	ldr	r1, [r3, #32]
 8008964:	f021 0104 	bic.w	r1, r1, #4
 8008968:	6219      	str	r1, [r3, #32]
 800896a:	635e      	str	r6, [r3, #52]	; 0x34
 800896c:	6999      	ldr	r1, [r3, #24]
 800896e:	f021 7180 	bic.w	r1, r1, #16777216	; 0x1000000
 8008972:	f421 41e6 	bic.w	r1, r1, #29440	; 0x7300
 8008976:	f441 41c0 	orr.w	r1, r1, #24576	; 0x6000
 800897a:	6199      	str	r1, [r3, #24]
 800897c:	6a19      	ldr	r1, [r3, #32]
 800897e:	f041 0110 	orr.w	r1, r1, #16
 8008982:	6219      	str	r1, [r3, #32]
 8008984:	6a19      	ldr	r1, [r3, #32]
 8008986:	f021 0140 	bic.w	r1, r1, #64	; 0x40
 800898a:	6219      	str	r1, [r3, #32]
 800898c:	639e      	str	r6, [r3, #56]	; 0x38
 800898e:	69d9      	ldr	r1, [r3, #28]
 8008990:	400c      	ands	r4, r1
 8008992:	f044 0460 	orr.w	r4, r4, #96	; 0x60
 8008996:	61dc      	str	r4, [r3, #28]
 8008998:	6a19      	ldr	r1, [r3, #32]
 800899a:	f441 7180 	orr.w	r1, r1, #256	; 0x100
 800899e:	6219      	str	r1, [r3, #32]
 80089a0:	6a19      	ldr	r1, [r3, #32]
 80089a2:	f421 6180 	bic.w	r1, r1, #1024	; 0x400
 80089a6:	6219      	str	r1, [r3, #32]
 80089a8:	e7a8      	b.n	80088fc <R3_2_RLDetectionModeDisable+0x64>
 80089aa:	bf00      	nop
 80089ac:	fffeff8c 	.word	0xfffeff8c
 80089b0:	08007e91 	.word	0x08007e91
 80089b4:	08007f19 	.word	0x08007f19
 80089b8:	08007b85 	.word	0x08007b85
 80089bc:	08007e41 	.word	0x08007e41

080089c0 <R3_2_RLDetectionModeSetDuty>:
 80089c0:	6f43      	ldr	r3, [r0, #116]	; 0x74
 80089c2:	689b      	ldr	r3, [r3, #8]
 80089c4:	b470      	push	{r4, r5, r6}
 80089c6:	4602      	mov	r2, r0
 80089c8:	f8b0 4068 	ldrh.w	r4, [r0, #104]	; 0x68
 80089cc:	69d8      	ldr	r0, [r3, #28]
 80089ce:	f8b2 6056 	ldrh.w	r6, [r2, #86]	; 0x56
 80089d2:	f020 7080 	bic.w	r0, r0, #16777216	; 0x1000000
 80089d6:	fb01 f104 	mul.w	r1, r1, r4
 80089da:	f420 40e6 	bic.w	r0, r0, #29440	; 0x7300
 80089de:	0c09      	lsrs	r1, r1, #16
 80089e0:	f440 40e0 	orr.w	r0, r0, #28672	; 0x7000
 80089e4:	8651      	strh	r1, [r2, #50]	; 0x32
 80089e6:	1ba4      	subs	r4, r4, r6
 80089e8:	61d8      	str	r0, [r3, #28]
 80089ea:	f8b2 0058 	ldrh.w	r0, [r2, #88]	; 0x58
 80089ee:	641c      	str	r4, [r3, #64]	; 0x40
 80089f0:	63d8      	str	r0, [r3, #60]	; 0x3c
 80089f2:	6359      	str	r1, [r3, #52]	; 0x34
 80089f4:	6859      	ldr	r1, [r3, #4]
 80089f6:	8f10      	ldrh	r0, [r2, #56]	; 0x38
 80089f8:	f021 7100 	bic.w	r1, r1, #33554432	; 0x2000000
 80089fc:	f021 0170 	bic.w	r1, r1, #112	; 0x70
 8008a00:	2503      	movs	r5, #3
 8008a02:	f041 0170 	orr.w	r1, r1, #112	; 0x70
 8008a06:	6059      	str	r1, [r3, #4]
 8008a08:	2801      	cmp	r0, #1
 8008a0a:	f882 503a 	strb.w	r5, [r2, #58]	; 0x3a
 8008a0e:	685b      	ldr	r3, [r3, #4]
 8008a10:	d006      	beq.n	8008a20 <R3_2_RLDetectionModeSetDuty+0x60>
 8008a12:	4a05      	ldr	r2, [pc, #20]	; (8008a28 <R3_2_RLDetectionModeSetDuty+0x68>)
 8008a14:	4213      	tst	r3, r2
 8008a16:	bf14      	ite	ne
 8008a18:	2001      	movne	r0, #1
 8008a1a:	2000      	moveq	r0, #0
 8008a1c:	bc70      	pop	{r4, r5, r6}
 8008a1e:	4770      	bx	lr
 8008a20:	2300      	movs	r3, #0
 8008a22:	8713      	strh	r3, [r2, #56]	; 0x38
 8008a24:	bc70      	pop	{r4, r5, r6}
 8008a26:	4770      	bx	lr
 8008a28:	02000070 	.word	0x02000070

08008a2c <RVBS_Clear>:
 8008a2c:	8b42      	ldrh	r2, [r0, #26]
 8008a2e:	8b81      	ldrh	r1, [r0, #28]
 8008a30:	8b03      	ldrh	r3, [r0, #24]
 8008a32:	440a      	add	r2, r1
 8008a34:	0852      	lsrs	r2, r2, #1
 8008a36:	b18b      	cbz	r3, 8008a5c <RVBS_Clear+0x30>
 8008a38:	b410      	push	{r4}
 8008a3a:	6a04      	ldr	r4, [r0, #32]
 8008a3c:	2300      	movs	r3, #0
 8008a3e:	f824 2013 	strh.w	r2, [r4, r3, lsl #1]
 8008a42:	3301      	adds	r3, #1
 8008a44:	8b01      	ldrh	r1, [r0, #24]
 8008a46:	b29b      	uxth	r3, r3
 8008a48:	4299      	cmp	r1, r3
 8008a4a:	d8f8      	bhi.n	8008a3e <RVBS_Clear+0x12>
 8008a4c:	2300      	movs	r3, #0
 8008a4e:	8082      	strh	r2, [r0, #4]
 8008a50:	80c2      	strh	r2, [r0, #6]
 8008a52:	f880 3025 	strb.w	r3, [r0, #37]	; 0x25
 8008a56:	f85d 4b04 	ldr.w	r4, [sp], #4
 8008a5a:	4770      	bx	lr
 8008a5c:	2300      	movs	r3, #0
 8008a5e:	8082      	strh	r2, [r0, #4]
 8008a60:	80c2      	strh	r2, [r0, #6]
 8008a62:	f880 3025 	strb.w	r3, [r0, #37]	; 0x25
 8008a66:	4770      	bx	lr

08008a68 <RVBS_Init>:
 8008a68:	b510      	push	{r4, lr}
 8008a6a:	4604      	mov	r4, r0
 8008a6c:	300c      	adds	r0, #12
 8008a6e:	f7f9 fde3 	bl	8002638 <RCM_RegisterRegConv>
 8008a72:	f884 0026 	strb.w	r0, [r4, #38]	; 0x26
 8008a76:	4620      	mov	r0, r4
 8008a78:	f7ff ffd8 	bl	8008a2c <RVBS_Clear>
 8008a7c:	bd10      	pop	{r4, pc}
 8008a7e:	bf00      	nop

08008a80 <RVBS_CheckFaultState>:
 8008a80:	88c3      	ldrh	r3, [r0, #6]
 8008a82:	8b42      	ldrh	r2, [r0, #26]
 8008a84:	429a      	cmp	r2, r3
 8008a86:	d305      	bcc.n	8008a94 <RVBS_CheckFaultState+0x14>
 8008a88:	8b80      	ldrh	r0, [r0, #28]
 8008a8a:	4298      	cmp	r0, r3
 8008a8c:	bf8c      	ite	hi
 8008a8e:	2004      	movhi	r0, #4
 8008a90:	2000      	movls	r0, #0
 8008a92:	4770      	bx	lr
 8008a94:	2002      	movs	r0, #2
 8008a96:	4770      	bx	lr

08008a98 <RVBS_CalcAvVbus>:
 8008a98:	b570      	push	{r4, r5, r6, lr}
 8008a9a:	4604      	mov	r4, r0
 8008a9c:	f890 0026 	ldrb.w	r0, [r0, #38]	; 0x26
 8008aa0:	f7f9 fe8a 	bl	80027b8 <RCM_ExecRegularConv>
 8008aa4:	f64f 73ff 	movw	r3, #65535	; 0xffff
 8008aa8:	4298      	cmp	r0, r3
 8008aaa:	d01b      	beq.n	8008ae4 <RVBS_CalcAvVbus+0x4c>
 8008aac:	6a26      	ldr	r6, [r4, #32]
 8008aae:	f894 3025 	ldrb.w	r3, [r4, #37]	; 0x25
 8008ab2:	f826 0013 	strh.w	r0, [r6, r3, lsl #1]
 8008ab6:	8b25      	ldrh	r5, [r4, #24]
 8008ab8:	b1cd      	cbz	r5, 8008aee <RVBS_CalcAvVbus+0x56>
 8008aba:	2300      	movs	r3, #0
 8008abc:	461a      	mov	r2, r3
 8008abe:	f836 1013 	ldrh.w	r1, [r6, r3, lsl #1]
 8008ac2:	3301      	adds	r3, #1
 8008ac4:	b2db      	uxtb	r3, r3
 8008ac6:	42ab      	cmp	r3, r5
 8008ac8:	440a      	add	r2, r1
 8008aca:	d3f8      	bcc.n	8008abe <RVBS_CalcAvVbus+0x26>
 8008acc:	fbb2 f2f5 	udiv	r2, r2, r5
 8008ad0:	f894 3025 	ldrb.w	r3, [r4, #37]	; 0x25
 8008ad4:	80e2      	strh	r2, [r4, #6]
 8008ad6:	3d01      	subs	r5, #1
 8008ad8:	42ab      	cmp	r3, r5
 8008ada:	80a0      	strh	r0, [r4, #4]
 8008adc:	da09      	bge.n	8008af2 <RVBS_CalcAvVbus+0x5a>
 8008ade:	3301      	adds	r3, #1
 8008ae0:	f884 3025 	strb.w	r3, [r4, #37]	; 0x25
 8008ae4:	4620      	mov	r0, r4
 8008ae6:	f7ff ffcb 	bl	8008a80 <RVBS_CheckFaultState>
 8008aea:	8120      	strh	r0, [r4, #8]
 8008aec:	bd70      	pop	{r4, r5, r6, pc}
 8008aee:	80e5      	strh	r5, [r4, #6]
 8008af0:	80a0      	strh	r0, [r4, #4]
 8008af2:	2300      	movs	r3, #0
 8008af4:	f884 3025 	strb.w	r3, [r4, #37]	; 0x25
 8008af8:	4620      	mov	r0, r4
 8008afa:	f7ff ffc1 	bl	8008a80 <RVBS_CheckFaultState>
 8008afe:	8120      	strh	r0, [r4, #8]
 8008b00:	bd70      	pop	{r4, r5, r6, pc}
 8008b02:	bf00      	nop

08008b04 <REMNG_Init>:
 8008b04:	2300      	movs	r3, #0
 8008b06:	2201      	movs	r2, #1
 8008b08:	6142      	str	r2, [r0, #20]
 8008b0a:	e9c0 3301 	strd	r3, r3, [r0, #4]
 8008b0e:	e9c0 3303 	strd	r3, r3, [r0, #12]
 8008b12:	4770      	bx	lr

08008b14 <REMNG_Calc>:
 8008b14:	e9d0 3202 	ldrd	r3, r2, [r0, #8]
 8008b18:	2a01      	cmp	r2, #1
 8008b1a:	6941      	ldr	r1, [r0, #20]
 8008b1c:	d90a      	bls.n	8008b34 <REMNG_Calc+0x20>
 8008b1e:	b410      	push	{r4}
 8008b20:	6904      	ldr	r4, [r0, #16]
 8008b22:	3a01      	subs	r2, #1
 8008b24:	4423      	add	r3, r4
 8008b26:	60c2      	str	r2, [r0, #12]
 8008b28:	6083      	str	r3, [r0, #8]
 8008b2a:	f85d 4b04 	ldr.w	r4, [sp], #4
 8008b2e:	fb93 f0f1 	sdiv	r0, r3, r1
 8008b32:	4770      	bx	lr
 8008b34:	d104      	bne.n	8008b40 <REMNG_Calc+0x2c>
 8008b36:	6843      	ldr	r3, [r0, #4]
 8008b38:	2200      	movs	r2, #0
 8008b3a:	fb03 f301 	mul.w	r3, r3, r1
 8008b3e:	60c2      	str	r2, [r0, #12]
 8008b40:	6083      	str	r3, [r0, #8]
 8008b42:	fb93 f0f1 	sdiv	r0, r3, r1
 8008b46:	4770      	bx	lr

08008b48 <REMNG_RampCompleted>:
 8008b48:	68c0      	ldr	r0, [r0, #12]
 8008b4a:	fab0 f080 	clz	r0, r0
 8008b4e:	0940      	lsrs	r0, r0, #5
 8008b50:	4770      	bx	lr
 8008b52:	bf00      	nop

08008b54 <getScalingFactor>:
 8008b54:	2301      	movs	r3, #1
 8008b56:	2800      	cmp	r0, #0
 8008b58:	bfb8      	it	lt
 8008b5a:	4240      	neglt	r0, r0
 8008b5c:	4619      	mov	r1, r3
 8008b5e:	e002      	b.n	8008b66 <getScalingFactor+0x12>
 8008b60:	3301      	adds	r3, #1
 8008b62:	2b20      	cmp	r3, #32
 8008b64:	d009      	beq.n	8008b7a <getScalingFactor+0x26>
 8008b66:	f1c3 021f 	rsb	r2, r3, #31
 8008b6a:	fa01 f202 	lsl.w	r2, r1, r2
 8008b6e:	4290      	cmp	r0, r2
 8008b70:	d3f6      	bcc.n	8008b60 <getScalingFactor+0xc>
 8008b72:	3b01      	subs	r3, #1
 8008b74:	fa01 f003 	lsl.w	r0, r1, r3
 8008b78:	4770      	bx	lr
 8008b7a:	f04f 4000 	mov.w	r0, #2147483648	; 0x80000000
 8008b7e:	4770      	bx	lr

08008b80 <REMNG_ExecRamp>:
 8008b80:	e92d 47f0 	stmdb	sp!, {r4, r5, r6, r7, r8, r9, sl, lr}
 8008b84:	4604      	mov	r4, r0
 8008b86:	460d      	mov	r5, r1
 8008b88:	4690      	mov	r8, r2
 8008b8a:	b372      	cbz	r2, 8008bea <REMNG_ExecRamp+0x6a>
 8008b8c:	6943      	ldr	r3, [r0, #20]
 8008b8e:	6886      	ldr	r6, [r0, #8]
 8008b90:	fb96 f6f3 	sdiv	r6, r6, r3
 8008b94:	1b8f      	subs	r7, r1, r6
 8008b96:	4638      	mov	r0, r7
 8008b98:	f7ff ffdc 	bl	8008b54 <getScalingFactor>
 8008b9c:	4682      	mov	sl, r0
 8008b9e:	4630      	mov	r0, r6
 8008ba0:	f7ff ffd8 	bl	8008b54 <getScalingFactor>
 8008ba4:	4681      	mov	r9, r0
 8008ba6:	4628      	mov	r0, r5
 8008ba8:	f7ff ffd4 	bl	8008b54 <getScalingFactor>
 8008bac:	45ca      	cmp	sl, r9
 8008bae:	d318      	bcc.n	8008be2 <REMNG_ExecRamp+0x62>
 8008bb0:	4548      	cmp	r0, r9
 8008bb2:	bf28      	it	cs
 8008bb4:	4648      	movcs	r0, r9
 8008bb6:	6823      	ldr	r3, [r4, #0]
 8008bb8:	4a12      	ldr	r2, [pc, #72]	; (8008c04 <REMNG_ExecRamp+0x84>)
 8008bba:	6160      	str	r0, [r4, #20]
 8008bbc:	fb03 f308 	mul.w	r3, r3, r8
 8008bc0:	fba2 2303 	umull	r2, r3, r2, r3
 8008bc4:	099b      	lsrs	r3, r3, #6
 8008bc6:	fb06 f600 	mul.w	r6, r6, r0
 8008bca:	3301      	adds	r3, #1
 8008bcc:	fb00 f007 	mul.w	r0, r0, r7
 8008bd0:	6065      	str	r5, [r4, #4]
 8008bd2:	fb90 f0f3 	sdiv	r0, r0, r3
 8008bd6:	60a6      	str	r6, [r4, #8]
 8008bd8:	e9c4 3003 	strd	r3, r0, [r4, #12]
 8008bdc:	2001      	movs	r0, #1
 8008bde:	e8bd 87f0 	ldmia.w	sp!, {r4, r5, r6, r7, r8, r9, sl, pc}
 8008be2:	4550      	cmp	r0, sl
 8008be4:	bf28      	it	cs
 8008be6:	4650      	movcs	r0, sl
 8008be8:	e7e5      	b.n	8008bb6 <REMNG_ExecRamp+0x36>
 8008bea:	4608      	mov	r0, r1
 8008bec:	f7ff ffb2 	bl	8008b54 <getScalingFactor>
 8008bf0:	fb05 f500 	mul.w	r5, r5, r0
 8008bf4:	6160      	str	r0, [r4, #20]
 8008bf6:	60a5      	str	r5, [r4, #8]
 8008bf8:	e9c4 8803 	strd	r8, r8, [r4, #12]
 8008bfc:	2001      	movs	r0, #1
 8008bfe:	e8bd 87f0 	ldmia.w	sp!, {r4, r5, r6, r7, r8, r9, sl, pc}
 8008c02:	bf00      	nop
 8008c04:	10624dd3 	.word	0x10624dd3

08008c08 <SPD_GetElAngle>:
 8008c08:	f9b0 0004 	ldrsh.w	r0, [r0, #4]
 8008c0c:	4770      	bx	lr
 8008c0e:	bf00      	nop

08008c10 <SPD_GetAvrgMecSpeedUnit>:
 8008c10:	f9b0 000c 	ldrsh.w	r0, [r0, #12]
 8008c14:	4770      	bx	lr
 8008c16:	bf00      	nop

08008c18 <SPD_GetInstElSpeedDpp>:
 8008c18:	f9b0 0010 	ldrsh.w	r0, [r0, #16]
 8008c1c:	4770      	bx	lr
 8008c1e:	bf00      	nop

08008c20 <SPD_IsMecSpeedReliable>:
 8008c20:	f9b1 1000 	ldrsh.w	r1, [r1]
 8008c24:	b430      	push	{r4, r5}
 8008c26:	b28a      	uxth	r2, r1
 8008c28:	2900      	cmp	r1, #0
 8008c2a:	bfb8      	it	lt
 8008c2c:	4252      	neglt	r2, r2
 8008c2e:	8ac5      	ldrh	r5, [r0, #22]
 8008c30:	78c4      	ldrb	r4, [r0, #3]
 8008c32:	7803      	ldrb	r3, [r0, #0]
 8008c34:	8a81      	ldrh	r1, [r0, #20]
 8008c36:	bfb8      	it	lt
 8008c38:	b292      	uxthlt	r2, r2
 8008c3a:	4295      	cmp	r5, r2
 8008c3c:	d819      	bhi.n	8008c72 <SPD_IsMecSpeedReliable+0x52>
 8008c3e:	4291      	cmp	r1, r2
 8008c40:	bf2c      	ite	cs
 8008c42:	2200      	movcs	r2, #0
 8008c44:	2201      	movcc	r2, #1
 8008c46:	f9b0 5012 	ldrsh.w	r5, [r0, #18]
 8008c4a:	b2a9      	uxth	r1, r5
 8008c4c:	2d00      	cmp	r5, #0
 8008c4e:	bfb8      	it	lt
 8008c50:	4249      	neglt	r1, r1
 8008c52:	8b05      	ldrh	r5, [r0, #24]
 8008c54:	bfb8      	it	lt
 8008c56:	b289      	uxthlt	r1, r1
 8008c58:	428d      	cmp	r5, r1
 8008c5a:	d300      	bcc.n	8008c5e <SPD_IsMecSpeedReliable+0x3e>
 8008c5c:	b15a      	cbz	r2, 8008c76 <SPD_IsMecSpeedReliable+0x56>
 8008c5e:	429c      	cmp	r4, r3
 8008c60:	d901      	bls.n	8008c66 <SPD_IsMecSpeedReliable+0x46>
 8008c62:	3301      	adds	r3, #1
 8008c64:	b2db      	uxtb	r3, r3
 8008c66:	7003      	strb	r3, [r0, #0]
 8008c68:	1b18      	subs	r0, r3, r4
 8008c6a:	bf18      	it	ne
 8008c6c:	2001      	movne	r0, #1
 8008c6e:	bc30      	pop	{r4, r5}
 8008c70:	4770      	bx	lr
 8008c72:	2201      	movs	r2, #1
 8008c74:	e7e7      	b.n	8008c46 <SPD_IsMecSpeedReliable+0x26>
 8008c76:	429c      	cmp	r4, r3
 8008c78:	bf88      	it	hi
 8008c7a:	2300      	movhi	r3, #0
 8008c7c:	e7f3      	b.n	8008c66 <SPD_IsMecSpeedReliable+0x46>
 8008c7e:	bf00      	nop

08008c80 <SPD_GetS16Speed>:
 8008c80:	f9b0 300c 	ldrsh.w	r3, [r0, #12]
 8008c84:	f9b0 0014 	ldrsh.w	r0, [r0, #20]
 8008c88:	ebc3 33c3 	rsb	r3, r3, r3, lsl #15
 8008c8c:	fb93 f0f0 	sdiv	r0, r3, r0
 8008c90:	b200      	sxth	r0, r0
 8008c92:	4770      	bx	lr

08008c94 <STC_Init>:
 8008c94:	b430      	push	{r4, r5}
 8008c96:	f9b0 502c 	ldrsh.w	r5, [r0, #44]	; 0x2c
 8008c9a:	f9b0 402e 	ldrsh.w	r4, [r0, #46]	; 0x2e
 8008c9e:	6101      	str	r1, [r0, #16]
 8008ca0:	2300      	movs	r3, #0
 8008ca2:	042d      	lsls	r5, r5, #16
 8008ca4:	0424      	lsls	r4, r4, #16
 8008ca6:	f890 102a 	ldrb.w	r1, [r0, #42]	; 0x2a
 8008caa:	6142      	str	r2, [r0, #20]
 8008cac:	e9c0 5401 	strd	r5, r4, [r0, #4]
 8008cb0:	7001      	strb	r1, [r0, #0]
 8008cb2:	8043      	strh	r3, [r0, #2]
 8008cb4:	60c3      	str	r3, [r0, #12]
 8008cb6:	6183      	str	r3, [r0, #24]
 8008cb8:	bc30      	pop	{r4, r5}
 8008cba:	4770      	bx	lr

08008cbc <STC_SetSpeedSensor>:
 8008cbc:	6141      	str	r1, [r0, #20]
 8008cbe:	4770      	bx	lr

08008cc0 <STC_GetSpeedSensor>:
 8008cc0:	6940      	ldr	r0, [r0, #20]
 8008cc2:	4770      	bx	lr

08008cc4 <STC_Clear>:
 8008cc4:	7803      	ldrb	r3, [r0, #0]
 8008cc6:	2b01      	cmp	r3, #1
 8008cc8:	d000      	beq.n	8008ccc <STC_Clear+0x8>
 8008cca:	4770      	bx	lr
 8008ccc:	6900      	ldr	r0, [r0, #16]
 8008cce:	2100      	movs	r1, #0
 8008cd0:	f7fe bd36 	b.w	8007740 <PID_SetIntegralTerm>

08008cd4 <STC_GetMecSpeedRefUnit>:
 8008cd4:	6840      	ldr	r0, [r0, #4]
 8008cd6:	2800      	cmp	r0, #0
 8008cd8:	bfbc      	itt	lt
 8008cda:	f500 407f 	addlt.w	r0, r0, #65280	; 0xff00
 8008cde:	30ff      	addlt	r0, #255	; 0xff
 8008ce0:	1400      	asrs	r0, r0, #16
 8008ce2:	4770      	bx	lr

08008ce4 <STC_GetTorqueRef>:
 8008ce4:	6880      	ldr	r0, [r0, #8]
 8008ce6:	2800      	cmp	r0, #0
 8008ce8:	bfbc      	itt	lt
 8008cea:	f500 407f 	addlt.w	r0, r0, #65280	; 0xff00
 8008cee:	30ff      	addlt	r0, #255	; 0xff
 8008cf0:	1400      	asrs	r0, r0, #16
 8008cf2:	4770      	bx	lr

08008cf4 <STC_SetControlMode>:
 8008cf4:	2300      	movs	r3, #0
 8008cf6:	7001      	strb	r1, [r0, #0]
 8008cf8:	60c3      	str	r3, [r0, #12]
 8008cfa:	4770      	bx	lr

08008cfc <STC_ExecRamp>:
 8008cfc:	7803      	ldrb	r3, [r0, #0]
 8008cfe:	b570      	push	{r4, r5, r6, lr}
 8008d00:	4604      	mov	r4, r0
 8008d02:	460d      	mov	r5, r1
 8008d04:	4616      	mov	r6, r2
 8008d06:	b313      	cbz	r3, 8008d4e <STC_ExecRamp+0x52>
 8008d08:	6840      	ldr	r0, [r0, #4]
 8008d0a:	8be3      	ldrh	r3, [r4, #30]
 8008d0c:	2800      	cmp	r0, #0
 8008d0e:	bfbc      	itt	lt
 8008d10:	f500 407f 	addlt.w	r0, r0, #65280	; 0xff00
 8008d14:	30ff      	addlt	r0, #255	; 0xff
 8008d16:	428b      	cmp	r3, r1
 8008d18:	ea4f 4020 	mov.w	r0, r0, asr #16
 8008d1c:	db1c      	blt.n	8008d58 <STC_ExecRamp+0x5c>
 8008d1e:	f9b4 3024 	ldrsh.w	r3, [r4, #36]	; 0x24
 8008d22:	428b      	cmp	r3, r1
 8008d24:	dc18      	bgt.n	8008d58 <STC_ExecRamp+0x5c>
 8008d26:	8c23      	ldrh	r3, [r4, #32]
 8008d28:	428b      	cmp	r3, r1
 8008d2a:	dd03      	ble.n	8008d34 <STC_ExecRamp+0x38>
 8008d2c:	f9b4 3022 	ldrsh.w	r3, [r4, #34]	; 0x22
 8008d30:	428b      	cmp	r3, r1
 8008d32:	db11      	blt.n	8008d58 <STC_ExecRamp+0x5c>
 8008d34:	b9c6      	cbnz	r6, 8008d68 <STC_ExecRamp+0x6c>
 8008d36:	7823      	ldrb	r3, [r4, #0]
 8008d38:	042d      	lsls	r5, r5, #16
 8008d3a:	2b01      	cmp	r3, #1
 8008d3c:	f04f 0300 	mov.w	r3, #0
 8008d40:	bf0c      	ite	eq
 8008d42:	6065      	streq	r5, [r4, #4]
 8008d44:	60a5      	strne	r5, [r4, #8]
 8008d46:	60e3      	str	r3, [r4, #12]
 8008d48:	61a3      	str	r3, [r4, #24]
 8008d4a:	2001      	movs	r0, #1
 8008d4c:	bd70      	pop	{r4, r5, r6, pc}
 8008d4e:	f7ff ffc9 	bl	8008ce4 <STC_GetTorqueRef>
 8008d52:	8ce3      	ldrh	r3, [r4, #38]	; 0x26
 8008d54:	42ab      	cmp	r3, r5
 8008d56:	da01      	bge.n	8008d5c <STC_ExecRamp+0x60>
 8008d58:	2000      	movs	r0, #0
 8008d5a:	bd70      	pop	{r4, r5, r6, pc}
 8008d5c:	f9b4 3028 	ldrsh.w	r3, [r4, #40]	; 0x28
 8008d60:	42ab      	cmp	r3, r5
 8008d62:	dcf9      	bgt.n	8008d58 <STC_ExecRamp+0x5c>
 8008d64:	2e00      	cmp	r6, #0
 8008d66:	d0e6      	beq.n	8008d36 <STC_ExecRamp+0x3a>
 8008d68:	8ba3      	ldrh	r3, [r4, #28]
 8008d6a:	4a08      	ldr	r2, [pc, #32]	; (8008d8c <STC_ExecRamp+0x90>)
 8008d6c:	8065      	strh	r5, [r4, #2]
 8008d6e:	fb06 f303 	mul.w	r3, r6, r3
 8008d72:	fba2 2303 	umull	r2, r3, r2, r3
 8008d76:	099b      	lsrs	r3, r3, #6
 8008d78:	3301      	adds	r3, #1
 8008d7a:	1a2d      	subs	r5, r5, r0
 8008d7c:	042d      	lsls	r5, r5, #16
 8008d7e:	60e3      	str	r3, [r4, #12]
 8008d80:	fb95 f5f3 	sdiv	r5, r5, r3
 8008d84:	2001      	movs	r0, #1
 8008d86:	61a5      	str	r5, [r4, #24]
 8008d88:	bd70      	pop	{r4, r5, r6, pc}
 8008d8a:	bf00      	nop
 8008d8c:	10624dd3 	.word	0x10624dd3

08008d90 <STC_StopRamp>:
 8008d90:	2300      	movs	r3, #0
 8008d92:	60c3      	str	r3, [r0, #12]
 8008d94:	6183      	str	r3, [r0, #24]
 8008d96:	4770      	bx	lr

08008d98 <STC_CalcTorqueReference>:
 8008d98:	b570      	push	{r4, r5, r6, lr}
 8008d9a:	e9d0 1501 	ldrd	r1, r5, [r0, #4]
 8008d9e:	7802      	ldrb	r2, [r0, #0]
 8008da0:	68c3      	ldr	r3, [r0, #12]
 8008da2:	2a00      	cmp	r2, #0
 8008da4:	bf18      	it	ne
 8008da6:	460d      	movne	r5, r1
 8008da8:	2b01      	cmp	r3, #1
 8008daa:	d910      	bls.n	8008dce <STC_CalcTorqueReference+0x36>
 8008dac:	6981      	ldr	r1, [r0, #24]
 8008dae:	3b01      	subs	r3, #1
 8008db0:	60c3      	str	r3, [r0, #12]
 8008db2:	440d      	add	r5, r1
 8008db4:	2d00      	cmp	r5, #0
 8008db6:	4629      	mov	r1, r5
 8008db8:	bfbc      	itt	lt
 8008dba:	f505 417f 	addlt.w	r1, r5, #65280	; 0xff00
 8008dbe:	31ff      	addlt	r1, #255	; 0xff
 8008dc0:	2a01      	cmp	r2, #1
 8008dc2:	ea4f 4621 	mov.w	r6, r1, asr #16
 8008dc6:	d009      	beq.n	8008ddc <STC_CalcTorqueReference+0x44>
 8008dc8:	6085      	str	r5, [r0, #8]
 8008dca:	b230      	sxth	r0, r6
 8008dcc:	bd70      	pop	{r4, r5, r6, pc}
 8008dce:	d1f1      	bne.n	8008db4 <STC_CalcTorqueReference+0x1c>
 8008dd0:	f9b0 5002 	ldrsh.w	r5, [r0, #2]
 8008dd4:	2300      	movs	r3, #0
 8008dd6:	042d      	lsls	r5, r5, #16
 8008dd8:	60c3      	str	r3, [r0, #12]
 8008dda:	e7eb      	b.n	8008db4 <STC_CalcTorqueReference+0x1c>
 8008ddc:	4604      	mov	r4, r0
 8008dde:	6940      	ldr	r0, [r0, #20]
 8008de0:	f7ff ff16 	bl	8008c10 <SPD_GetAvrgMecSpeedUnit>
 8008de4:	1a30      	subs	r0, r6, r0
 8008de6:	b201      	sxth	r1, r0
 8008de8:	6920      	ldr	r0, [r4, #16]
 8008dea:	f7fe fcb5 	bl	8007758 <PI_Controller>
 8008dee:	0403      	lsls	r3, r0, #16
 8008df0:	e9c4 5301 	strd	r5, r3, [r4, #4]
 8008df4:	bd70      	pop	{r4, r5, r6, pc}
 8008df6:	bf00      	nop

08008df8 <STC_GetMecSpeedRefUnitDefault>:
 8008df8:	f9b0 002c 	ldrsh.w	r0, [r0, #44]	; 0x2c
 8008dfc:	4770      	bx	lr
 8008dfe:	bf00      	nop

08008e00 <STC_GetMaxAppPositiveMecSpeedUnit>:
 8008e00:	8bc0      	ldrh	r0, [r0, #30]
 8008e02:	4770      	bx	lr

08008e04 <STC_GetMinAppNegativeMecSpeedUnit>:
 8008e04:	f9b0 0024 	ldrsh.w	r0, [r0, #36]	; 0x24
 8008e08:	4770      	bx	lr
 8008e0a:	bf00      	nop

08008e0c <STC_GetDefaultIqdref>:
 8008e0c:	f8d0 302e 	ldr.w	r3, [r0, #46]	; 0x2e
 8008e10:	2000      	movs	r0, #0
 8008e12:	b29a      	uxth	r2, r3
 8008e14:	f362 000f 	bfi	r0, r2, #0, #16
 8008e18:	0c1b      	lsrs	r3, r3, #16
 8008e1a:	b082      	sub	sp, #8
 8008e1c:	f363 401f 	bfi	r0, r3, #16, #16
 8008e20:	b002      	add	sp, #8
 8008e22:	4770      	bx	lr

08008e24 <STC_ForceSpeedReferenceToCurrentSpeed>:
 8008e24:	b510      	push	{r4, lr}
 8008e26:	4604      	mov	r4, r0
 8008e28:	6940      	ldr	r0, [r0, #20]
 8008e2a:	f7ff fef1 	bl	8008c10 <SPD_GetAvrgMecSpeedUnit>
 8008e2e:	0400      	lsls	r0, r0, #16
 8008e30:	6060      	str	r0, [r4, #4]
 8008e32:	bd10      	pop	{r4, pc}

08008e34 <STM_Init>:
 8008e34:	2300      	movs	r3, #0
 8008e36:	7003      	strb	r3, [r0, #0]
 8008e38:	f8c0 3002 	str.w	r3, [r0, #2]
 8008e3c:	4770      	bx	lr
 8008e3e:	bf00      	nop

08008e40 <STM_FaultProcessing>:
 8008e40:	8843      	ldrh	r3, [r0, #2]
 8008e42:	b430      	push	{r4, r5}
 8008e44:	8885      	ldrh	r5, [r0, #4]
 8008e46:	4604      	mov	r4, r0
 8008e48:	7800      	ldrb	r0, [r0, #0]
 8008e4a:	430b      	orrs	r3, r1
 8008e4c:	ea23 0202 	bic.w	r2, r3, r2
 8008e50:	4329      	orrs	r1, r5
 8008e52:	280a      	cmp	r0, #10
 8008e54:	80a1      	strh	r1, [r4, #4]
 8008e56:	8062      	strh	r2, [r4, #2]
 8008e58:	d006      	beq.n	8008e68 <STM_FaultProcessing+0x28>
 8008e5a:	b90a      	cbnz	r2, 8008e60 <STM_FaultProcessing+0x20>
 8008e5c:	bc30      	pop	{r4, r5}
 8008e5e:	4770      	bx	lr
 8008e60:	200a      	movs	r0, #10
 8008e62:	7020      	strb	r0, [r4, #0]
 8008e64:	bc30      	pop	{r4, r5}
 8008e66:	4770      	bx	lr
 8008e68:	2a00      	cmp	r2, #0
 8008e6a:	d1f7      	bne.n	8008e5c <STM_FaultProcessing+0x1c>
 8008e6c:	200b      	movs	r0, #11
 8008e6e:	7020      	strb	r0, [r4, #0]
 8008e70:	bc30      	pop	{r4, r5}
 8008e72:	4770      	bx	lr

08008e74 <STM_NextState>:
 8008e74:	b508      	push	{r3, lr}
 8008e76:	7803      	ldrb	r3, [r0, #0]
 8008e78:	2b14      	cmp	r3, #20
 8008e7a:	d819      	bhi.n	8008eb0 <STM_NextState+0x3c>
 8008e7c:	e8df f003 	tbb	[pc, r3]
 8008e80:	240d1257 	.word	0x240d1257
 8008e84:	3c0d352e 	.word	0x3c0d352e
 8008e88:	1818423f 	.word	0x1818423f
 8008e8c:	4a650b47 	.word	0x4a650b47
 8008e90:	53505e4d 	.word	0x53505e4d
 8008e94:	39          	.byte	0x39
 8008e95:	00          	.byte	0x00
 8008e96:	290e      	cmp	r1, #14
 8008e98:	d001      	beq.n	8008e9e <STM_NextState+0x2a>
 8008e9a:	2907      	cmp	r1, #7
 8008e9c:	d108      	bne.n	8008eb0 <STM_NextState+0x3c>
 8008e9e:	7001      	strb	r1, [r0, #0]
 8008ea0:	2001      	movs	r0, #1
 8008ea2:	bd08      	pop	{r3, pc}
 8008ea4:	2907      	cmp	r1, #7
 8008ea6:	d0fa      	beq.n	8008e9e <STM_NextState+0x2a>
 8008ea8:	f1a1 030d 	sub.w	r3, r1, #13
 8008eac:	2b01      	cmp	r3, #1
 8008eae:	d9f6      	bls.n	8008e9e <STM_NextState+0x2a>
 8008eb0:	f001 03fd 	and.w	r3, r1, #253	; 0xfd
 8008eb4:	2b01      	cmp	r3, #1
 8008eb6:	d00f      	beq.n	8008ed8 <STM_NextState+0x64>
 8008eb8:	2907      	cmp	r1, #7
 8008eba:	d00d      	beq.n	8008ed8 <STM_NextState+0x64>
 8008ebc:	2200      	movs	r2, #0
 8008ebe:	2180      	movs	r1, #128	; 0x80
 8008ec0:	f7ff ffbe 	bl	8008e40 <STM_FaultProcessing>
 8008ec4:	2000      	movs	r0, #0
 8008ec6:	bd08      	pop	{r3, pc}
 8008ec8:	2911      	cmp	r1, #17
 8008eca:	d8f7      	bhi.n	8008ebc <STM_NextState+0x48>
 8008ecc:	4b21      	ldr	r3, [pc, #132]	; (8008f54 <STM_NextState+0xe0>)
 8008ece:	40cb      	lsrs	r3, r1
 8008ed0:	07da      	lsls	r2, r3, #31
 8008ed2:	d4e4      	bmi.n	8008e9e <STM_NextState+0x2a>
 8008ed4:	2903      	cmp	r1, #3
 8008ed6:	d1f1      	bne.n	8008ebc <STM_NextState+0x48>
 8008ed8:	2000      	movs	r0, #0
 8008eda:	bd08      	pop	{r3, pc}
 8008edc:	2913      	cmp	r1, #19
 8008ede:	d0de      	beq.n	8008e9e <STM_NextState+0x2a>
 8008ee0:	f001 03fd 	and.w	r3, r1, #253	; 0xfd
 8008ee4:	2b05      	cmp	r3, #5
 8008ee6:	d1e5      	bne.n	8008eb4 <STM_NextState+0x40>
 8008ee8:	e7d9      	b.n	8008e9e <STM_NextState+0x2a>
 8008eea:	1f8b      	subs	r3, r1, #6
 8008eec:	2b01      	cmp	r3, #1
 8008eee:	d8df      	bhi.n	8008eb0 <STM_NextState+0x3c>
 8008ef0:	e7d5      	b.n	8008e9e <STM_NextState+0x2a>
 8008ef2:	2912      	cmp	r1, #18
 8008ef4:	d1d1      	bne.n	8008e9a <STM_NextState+0x26>
 8008ef6:	e7d2      	b.n	8008e9e <STM_NextState+0x2a>
 8008ef8:	2908      	cmp	r1, #8
 8008efa:	d1d9      	bne.n	8008eb0 <STM_NextState+0x3c>
 8008efc:	e7cf      	b.n	8008e9e <STM_NextState+0x2a>
 8008efe:	2909      	cmp	r1, #9
 8008f00:	d1d6      	bne.n	8008eb0 <STM_NextState+0x3c>
 8008f02:	e7cc      	b.n	8008e9e <STM_NextState+0x2a>
 8008f04:	2900      	cmp	r1, #0
 8008f06:	d0ca      	beq.n	8008e9e <STM_NextState+0x2a>
 8008f08:	290c      	cmp	r1, #12
 8008f0a:	d1d1      	bne.n	8008eb0 <STM_NextState+0x3c>
 8008f0c:	e7c7      	b.n	8008e9e <STM_NextState+0x2a>
 8008f0e:	2900      	cmp	r1, #0
 8008f10:	d1ce      	bne.n	8008eb0 <STM_NextState+0x3c>
 8008f12:	e7c4      	b.n	8008e9e <STM_NextState+0x2a>
 8008f14:	2902      	cmp	r1, #2
 8008f16:	d1c0      	bne.n	8008e9a <STM_NextState+0x26>
 8008f18:	e7c1      	b.n	8008e9e <STM_NextState+0x2a>
 8008f1a:	2911      	cmp	r1, #17
 8008f1c:	d1bd      	bne.n	8008e9a <STM_NextState+0x26>
 8008f1e:	e7be      	b.n	8008e9e <STM_NextState+0x2a>
 8008f20:	2904      	cmp	r1, #4
 8008f22:	d1ba      	bne.n	8008e9a <STM_NextState+0x26>
 8008f24:	e7bb      	b.n	8008e9e <STM_NextState+0x2a>
 8008f26:	1f0b      	subs	r3, r1, #4
 8008f28:	2b01      	cmp	r3, #1
 8008f2a:	d8b6      	bhi.n	8008e9a <STM_NextState+0x26>
 8008f2c:	e7b7      	b.n	8008e9e <STM_NextState+0x2a>
 8008f2e:	f001 03fd 	and.w	r3, r1, #253	; 0xfd
 8008f32:	2b01      	cmp	r3, #1
 8008f34:	d0b3      	beq.n	8008e9e <STM_NextState+0x2a>
 8008f36:	290c      	cmp	r1, #12
 8008f38:	d1be      	bne.n	8008eb8 <STM_NextState+0x44>
 8008f3a:	e7b0      	b.n	8008e9e <STM_NextState+0x2a>
 8008f3c:	2914      	cmp	r1, #20
 8008f3e:	d8b7      	bhi.n	8008eb0 <STM_NextState+0x3c>
 8008f40:	4b05      	ldr	r3, [pc, #20]	; (8008f58 <STM_NextState+0xe4>)
 8008f42:	40cb      	lsrs	r3, r1
 8008f44:	07db      	lsls	r3, r3, #31
 8008f46:	d4aa      	bmi.n	8008e9e <STM_NextState+0x2a>
 8008f48:	e7b2      	b.n	8008eb0 <STM_NextState+0x3c>
 8008f4a:	f001 03f7 	and.w	r3, r1, #247	; 0xf7
 8008f4e:	2b07      	cmp	r3, #7
 8008f50:	d1ae      	bne.n	8008eb0 <STM_NextState+0x3c>
 8008f52:	e7a4      	b.n	8008e9e <STM_NextState+0x2a>
 8008f54:	00030092 	.word	0x00030092
 8008f58:	00140080 	.word	0x00140080

08008f5c <STM_GetState>:
 8008f5c:	7800      	ldrb	r0, [r0, #0]
 8008f5e:	4770      	bx	lr

08008f60 <STM_FaultAcknowledged>:
 8008f60:	7803      	ldrb	r3, [r0, #0]
 8008f62:	2b0b      	cmp	r3, #11
 8008f64:	d001      	beq.n	8008f6a <STM_FaultAcknowledged+0xa>
 8008f66:	2000      	movs	r0, #0
 8008f68:	4770      	bx	lr
 8008f6a:	2209      	movs	r2, #9
 8008f6c:	2300      	movs	r3, #0
 8008f6e:	7002      	strb	r2, [r0, #0]
 8008f70:	8083      	strh	r3, [r0, #4]
 8008f72:	2001      	movs	r0, #1
 8008f74:	4770      	bx	lr
 8008f76:	bf00      	nop

08008f78 <STM_GetFaultState>:
 8008f78:	8883      	ldrh	r3, [r0, #4]
 8008f7a:	8840      	ldrh	r0, [r0, #2]
 8008f7c:	ea43 4000 	orr.w	r0, r3, r0, lsl #16
 8008f80:	4770      	bx	lr
 8008f82:	bf00      	nop

08008f84 <UFCP_Init>:
 8008f84:	f7fe bb16 	b.w	80075b4 <FCP_Init>

08008f88 <UFCP_TX_IRQ_Handler>:
 8008f88:	f890 2097 	ldrb.w	r2, [r0, #151]	; 0x97
 8008f8c:	b192      	cbz	r2, 8008fb4 <UFCP_TX_IRQ_Handler+0x2c>
 8008f8e:	f890 1098 	ldrb.w	r1, [r0, #152]	; 0x98
 8008f92:	f8d0 2120 	ldr.w	r2, [r0, #288]	; 0x120
 8008f96:	4603      	mov	r3, r0
 8008f98:	b199      	cbz	r1, 8008fc2 <UFCP_TX_IRQ_Handler+0x3a>
 8008f9a:	2901      	cmp	r1, #1
 8008f9c:	d00b      	beq.n	8008fb6 <UFCP_TX_IRQ_Handler+0x2e>
 8008f9e:	7d40      	ldrb	r0, [r0, #21]
 8008fa0:	3001      	adds	r0, #1
 8008fa2:	4281      	cmp	r1, r0
 8008fa4:	dc0f      	bgt.n	8008fc6 <UFCP_TX_IRQ_Handler+0x3e>
 8008fa6:	1858      	adds	r0, r3, r1
 8008fa8:	3101      	adds	r1, #1
 8008faa:	7d00      	ldrb	r0, [r0, #20]
 8008fac:	6290      	str	r0, [r2, #40]	; 0x28
 8008fae:	f883 1098 	strb.w	r1, [r3, #152]	; 0x98
 8008fb2:	4770      	bx	lr
 8008fb4:	4770      	bx	lr
 8008fb6:	7d40      	ldrb	r0, [r0, #21]
 8008fb8:	6290      	str	r0, [r2, #40]	; 0x28
 8008fba:	3101      	adds	r1, #1
 8008fbc:	f883 1098 	strb.w	r1, [r3, #152]	; 0x98
 8008fc0:	4770      	bx	lr
 8008fc2:	7d00      	ldrb	r0, [r0, #20]
 8008fc4:	e7f8      	b.n	8008fb8 <UFCP_TX_IRQ_Handler+0x30>
 8008fc6:	b430      	push	{r4, r5}
 8008fc8:	f893 1096 	ldrb.w	r1, [r3, #150]	; 0x96
 8008fcc:	6291      	str	r1, [r2, #40]	; 0x28
 8008fce:	6811      	ldr	r1, [r2, #0]
 8008fd0:	e9d3 0400 	ldrd	r0, r4, [r3]
 8008fd4:	2500      	movs	r5, #0
 8008fd6:	f021 0180 	bic.w	r1, r1, #128	; 0x80
 8008fda:	6011      	str	r1, [r2, #0]
 8008fdc:	f883 5097 	strb.w	r5, [r3, #151]	; 0x97
 8008fe0:	4623      	mov	r3, r4
 8008fe2:	bc30      	pop	{r4, r5}
 8008fe4:	4718      	bx	r3
 8008fe6:	bf00      	nop

08008fe8 <UFCP_Receive>:
 8008fe8:	f890 311c 	ldrb.w	r3, [r0, #284]	; 0x11c
 8008fec:	b10b      	cbz	r3, 8008ff2 <UFCP_Receive+0xa>
 8008fee:	2001      	movs	r0, #1
 8008ff0:	4770      	bx	lr
 8008ff2:	f8d0 2120 	ldr.w	r2, [r0, #288]	; 0x120
 8008ff6:	f880 311d 	strb.w	r3, [r0, #285]	; 0x11d
 8008ffa:	6813      	ldr	r3, [r2, #0]
 8008ffc:	2101      	movs	r1, #1
 8008ffe:	f043 0320 	orr.w	r3, r3, #32
 8009002:	f880 111c 	strb.w	r1, [r0, #284]	; 0x11c
 8009006:	2002      	movs	r0, #2
 8009008:	6013      	str	r3, [r2, #0]
 800900a:	4770      	bx	lr

0800900c <UFCP_Send>:
 800900c:	e92d 41f0 	stmdb	sp!, {r4, r5, r6, r7, r8, lr}
 8009010:	4604      	mov	r4, r0
 8009012:	f890 0097 	ldrb.w	r0, [r0, #151]	; 0x97
 8009016:	b110      	cbz	r0, 800901e <UFCP_Send+0x12>
 8009018:	2001      	movs	r0, #1
 800901a:	e8bd 81f0 	ldmia.w	sp!, {r4, r5, r6, r7, r8, pc}
 800901e:	1e58      	subs	r0, r3, #1
 8009020:	7521      	strb	r1, [r4, #20]
 8009022:	7563      	strb	r3, [r4, #21]
 8009024:	b2c1      	uxtb	r1, r0
 8009026:	f104 0716 	add.w	r7, r4, #22
 800902a:	2b00      	cmp	r3, #0
 800902c:	d05d      	beq.n	80090ea <UFCP_Send+0xde>
 800902e:	1d10      	adds	r0, r2, #4
 8009030:	f104 051a 	add.w	r5, r4, #26
 8009034:	4295      	cmp	r5, r2
 8009036:	bf88      	it	hi
 8009038:	42b8      	cmphi	r0, r7
 800903a:	d86b      	bhi.n	8009114 <UFCP_Send+0x108>
 800903c:	2b0b      	cmp	r3, #11
 800903e:	d969      	bls.n	8009114 <UFCP_Send+0x108>
 8009040:	4250      	negs	r0, r2
 8009042:	f000 0003 	and.w	r0, r0, #3
 8009046:	1cc5      	adds	r5, r0, #3
 8009048:	42a9      	cmp	r1, r5
 800904a:	d339      	bcc.n	80090c0 <UFCP_Send+0xb4>
 800904c:	2800      	cmp	r0, #0
 800904e:	d06c      	beq.n	800912a <UFCP_Send+0x11e>
 8009050:	7811      	ldrb	r1, [r2, #0]
 8009052:	75a1      	strb	r1, [r4, #22]
 8009054:	2801      	cmp	r0, #1
 8009056:	f1a3 0102 	sub.w	r1, r3, #2
 800905a:	b2c9      	uxtb	r1, r1
 800905c:	f102 0c01 	add.w	ip, r2, #1
 8009060:	f104 0717 	add.w	r7, r4, #23
 8009064:	d012      	beq.n	800908c <UFCP_Send+0x80>
 8009066:	7851      	ldrb	r1, [r2, #1]
 8009068:	75e1      	strb	r1, [r4, #23]
 800906a:	2803      	cmp	r0, #3
 800906c:	f1a3 0103 	sub.w	r1, r3, #3
 8009070:	b2c9      	uxtb	r1, r1
 8009072:	f102 0c02 	add.w	ip, r2, #2
 8009076:	f104 0718 	add.w	r7, r4, #24
 800907a:	d107      	bne.n	800908c <UFCP_Send+0x80>
 800907c:	7891      	ldrb	r1, [r2, #2]
 800907e:	7621      	strb	r1, [r4, #24]
 8009080:	1f19      	subs	r1, r3, #4
 8009082:	b2c9      	uxtb	r1, r1
 8009084:	f102 0c03 	add.w	ip, r2, #3
 8009088:	f104 0719 	add.w	r7, r4, #25
 800908c:	1a1b      	subs	r3, r3, r0
 800908e:	b2dd      	uxtb	r5, r3
 8009090:	f100 0316 	add.w	r3, r0, #22
 8009094:	4402      	add	r2, r0
 8009096:	ea4f 0895 	mov.w	r8, r5, lsr #2
 800909a:	18e0      	adds	r0, r4, r3
 800909c:	2300      	movs	r3, #0
 800909e:	3301      	adds	r3, #1
 80090a0:	b2de      	uxtb	r6, r3
 80090a2:	f852 eb04 	ldr.w	lr, [r2], #4
 80090a6:	f840 eb04 	str.w	lr, [r0], #4
 80090aa:	45b0      	cmp	r8, r6
 80090ac:	d8f7      	bhi.n	800909e <UFCP_Send+0x92>
 80090ae:	f005 03fc 	and.w	r3, r5, #252	; 0xfc
 80090b2:	1ac9      	subs	r1, r1, r3
 80090b4:	429d      	cmp	r5, r3
 80090b6:	b2c9      	uxtb	r1, r1
 80090b8:	eb0c 0203 	add.w	r2, ip, r3
 80090bc:	441f      	add	r7, r3
 80090be:	d014      	beq.n	80090ea <UFCP_Send+0xde>
 80090c0:	7813      	ldrb	r3, [r2, #0]
 80090c2:	703b      	strb	r3, [r7, #0]
 80090c4:	b189      	cbz	r1, 80090ea <UFCP_Send+0xde>
 80090c6:	7853      	ldrb	r3, [r2, #1]
 80090c8:	707b      	strb	r3, [r7, #1]
 80090ca:	2901      	cmp	r1, #1
 80090cc:	d00d      	beq.n	80090ea <UFCP_Send+0xde>
 80090ce:	7893      	ldrb	r3, [r2, #2]
 80090d0:	70bb      	strb	r3, [r7, #2]
 80090d2:	2902      	cmp	r1, #2
 80090d4:	d009      	beq.n	80090ea <UFCP_Send+0xde>
 80090d6:	78d3      	ldrb	r3, [r2, #3]
 80090d8:	70fb      	strb	r3, [r7, #3]
 80090da:	2903      	cmp	r1, #3
 80090dc:	d005      	beq.n	80090ea <UFCP_Send+0xde>
 80090de:	7913      	ldrb	r3, [r2, #4]
 80090e0:	713b      	strb	r3, [r7, #4]
 80090e2:	2904      	cmp	r1, #4
 80090e4:	d001      	beq.n	80090ea <UFCP_Send+0xde>
 80090e6:	7953      	ldrb	r3, [r2, #5]
 80090e8:	717b      	strb	r3, [r7, #5]
 80090ea:	f104 0014 	add.w	r0, r4, #20
 80090ee:	f7fe fa77 	bl	80075e0 <FCP_CalcCRC>
 80090f2:	f8d4 2120 	ldr.w	r2, [r4, #288]	; 0x120
 80090f6:	f884 0096 	strb.w	r0, [r4, #150]	; 0x96
 80090fa:	2300      	movs	r3, #0
 80090fc:	f884 3098 	strb.w	r3, [r4, #152]	; 0x98
 8009100:	6813      	ldr	r3, [r2, #0]
 8009102:	2101      	movs	r1, #1
 8009104:	f043 0380 	orr.w	r3, r3, #128	; 0x80
 8009108:	f884 1097 	strb.w	r1, [r4, #151]	; 0x97
 800910c:	2002      	movs	r0, #2
 800910e:	6013      	str	r3, [r2, #0]
 8009110:	e8bd 81f0 	ldmia.w	sp!, {r4, r5, r6, r7, r8, pc}
 8009114:	3101      	adds	r1, #1
 8009116:	4411      	add	r1, r2
 8009118:	f104 0315 	add.w	r3, r4, #21
 800911c:	f812 0b01 	ldrb.w	r0, [r2], #1
 8009120:	f803 0f01 	strb.w	r0, [r3, #1]!
 8009124:	428a      	cmp	r2, r1
 8009126:	d1f9      	bne.n	800911c <UFCP_Send+0x110>
 8009128:	e7df      	b.n	80090ea <UFCP_Send+0xde>
 800912a:	4694      	mov	ip, r2
 800912c:	e7ae      	b.n	800908c <UFCP_Send+0x80>
 800912e:	bf00      	nop

08009130 <UFCP_RX_IRQ_Handler>:
 8009130:	f890 311c 	ldrb.w	r3, [r0, #284]	; 0x11c
 8009134:	b1b3      	cbz	r3, 8009164 <UFCP_RX_IRQ_Handler+0x34>
 8009136:	b530      	push	{r4, r5, lr}
 8009138:	f890 311d 	ldrb.w	r3, [r0, #285]	; 0x11d
 800913c:	4604      	mov	r4, r0
 800913e:	b083      	sub	sp, #12
 8009140:	b2c8      	uxtb	r0, r1
 8009142:	b1e3      	cbz	r3, 800917e <UFCP_RX_IRQ_Handler+0x4e>
 8009144:	2b01      	cmp	r3, #1
 8009146:	d00f      	beq.n	8009168 <UFCP_RX_IRQ_Handler+0x38>
 8009148:	f894 109a 	ldrb.w	r1, [r4, #154]	; 0x9a
 800914c:	3101      	adds	r1, #1
 800914e:	428b      	cmp	r3, r1
 8009150:	dc1f      	bgt.n	8009192 <UFCP_RX_IRQ_Handler+0x62>
 8009152:	18e1      	adds	r1, r4, r3
 8009154:	3301      	adds	r3, #1
 8009156:	f881 0099 	strb.w	r0, [r1, #153]	; 0x99
 800915a:	4823      	ldr	r0, [pc, #140]	; (80091e8 <UFCP_RX_IRQ_Handler+0xb8>)
 800915c:	f884 311d 	strb.w	r3, [r4, #285]	; 0x11d
 8009160:	b003      	add	sp, #12
 8009162:	bd30      	pop	{r4, r5, pc}
 8009164:	4820      	ldr	r0, [pc, #128]	; (80091e8 <UFCP_RX_IRQ_Handler+0xb8>)
 8009166:	4770      	bx	lr
 8009168:	060b      	lsls	r3, r1, #24
 800916a:	f884 009a 	strb.w	r0, [r4, #154]	; 0x9a
 800916e:	481e      	ldr	r0, [pc, #120]	; (80091e8 <UFCP_RX_IRQ_Handler+0xb8>)
 8009170:	bf54      	ite	pl
 8009172:	2302      	movpl	r3, #2
 8009174:	2300      	movmi	r3, #0
 8009176:	f884 311d 	strb.w	r3, [r4, #285]	; 0x11d
 800917a:	b003      	add	sp, #12
 800917c:	bd30      	pop	{r4, r5, pc}
 800917e:	8a21      	ldrh	r1, [r4, #16]
 8009180:	f884 0099 	strb.w	r0, [r4, #153]	; 0x99
 8009184:	4819      	ldr	r0, [pc, #100]	; (80091ec <UFCP_RX_IRQ_Handler+0xbc>)
 8009186:	8261      	strh	r1, [r4, #18]
 8009188:	2301      	movs	r3, #1
 800918a:	f884 311d 	strb.w	r3, [r4, #285]	; 0x11d
 800918e:	b003      	add	sp, #12
 8009190:	bd30      	pop	{r4, r5, pc}
 8009192:	f8d4 1120 	ldr.w	r1, [r4, #288]	; 0x120
 8009196:	f884 011b 	strb.w	r0, [r4, #283]	; 0x11b
 800919a:	680b      	ldr	r3, [r1, #0]
 800919c:	2200      	movs	r2, #0
 800919e:	f023 0320 	bic.w	r3, r3, #32
 80091a2:	8262      	strh	r2, [r4, #18]
 80091a4:	f104 0099 	add.w	r0, r4, #153	; 0x99
 80091a8:	600b      	str	r3, [r1, #0]
 80091aa:	f884 211c 	strb.w	r2, [r4, #284]	; 0x11c
 80091ae:	f7fe fa17 	bl	80075e0 <FCP_CalcCRC>
 80091b2:	f894 311b 	ldrb.w	r3, [r4, #283]	; 0x11b
 80091b6:	4283      	cmp	r3, r0
 80091b8:	d10a      	bne.n	80091d0 <UFCP_RX_IRQ_Handler+0xa0>
 80091ba:	6820      	ldr	r0, [r4, #0]
 80091bc:	68a5      	ldr	r5, [r4, #8]
 80091be:	f894 309a 	ldrb.w	r3, [r4, #154]	; 0x9a
 80091c2:	f894 1099 	ldrb.w	r1, [r4, #153]	; 0x99
 80091c6:	f104 029b 	add.w	r2, r4, #155	; 0x9b
 80091ca:	47a8      	blx	r5
 80091cc:	4808      	ldr	r0, [pc, #32]	; (80091f0 <UFCP_RX_IRQ_Handler+0xc0>)
 80091ce:	e7c7      	b.n	8009160 <UFCP_RX_IRQ_Handler+0x30>
 80091d0:	aa02      	add	r2, sp, #8
 80091d2:	230a      	movs	r3, #10
 80091d4:	f802 3d01 	strb.w	r3, [r2, #-1]!
 80091d8:	4620      	mov	r0, r4
 80091da:	2301      	movs	r3, #1
 80091dc:	21ff      	movs	r1, #255	; 0xff
 80091de:	f7ff ff15 	bl	800900c <UFCP_Send>
 80091e2:	4803      	ldr	r0, [pc, #12]	; (80091f0 <UFCP_RX_IRQ_Handler+0xc0>)
 80091e4:	e7bc      	b.n	8009160 <UFCP_RX_IRQ_Handler+0x30>
 80091e6:	bf00      	nop
 80091e8:	08009eda 	.word	0x08009eda
 80091ec:	08009edc 	.word	0x08009edc
 80091f0:	08009ede 	.word	0x08009ede

080091f4 <UFCP_OVR_IRQ_Handler>:
 80091f4:	b500      	push	{lr}
 80091f6:	b083      	sub	sp, #12
 80091f8:	aa02      	add	r2, sp, #8
 80091fa:	2308      	movs	r3, #8
 80091fc:	f802 3d01 	strb.w	r3, [r2, #-1]!
 8009200:	21ff      	movs	r1, #255	; 0xff
 8009202:	2301      	movs	r3, #1
 8009204:	f7ff ff02 	bl	800900c <UFCP_Send>
 8009208:	b003      	add	sp, #12
 800920a:	f85d fb04 	ldr.w	pc, [sp], #4
 800920e:	bf00      	nop

08009210 <UFCP_AbortReceive>:
 8009210:	2300      	movs	r3, #0
 8009212:	f880 311c 	strb.w	r3, [r0, #284]	; 0x11c
 8009216:	4770      	bx	lr

08009218 <VSS_Clear>:
 8009218:	2300      	movs	r3, #0
 800921a:	8ec2      	ldrh	r2, [r0, #54]	; 0x36
 800921c:	85c2      	strh	r2, [r0, #46]	; 0x2e
 800921e:	7003      	strb	r3, [r0, #0]
 8009220:	6043      	str	r3, [r0, #4]
 8009222:	60c3      	str	r3, [r0, #12]
 8009224:	8243      	strh	r3, [r0, #18]
 8009226:	e9c0 3308 	strd	r3, r3, [r0, #32]
 800922a:	8503      	strh	r3, [r0, #40]	; 0x28
 800922c:	8603      	strh	r3, [r0, #48]	; 0x30
 800922e:	f880 302c 	strb.w	r3, [r0, #44]	; 0x2c
 8009232:	f880 302d 	strb.w	r3, [r0, #45]	; 0x2d
 8009236:	f880 3032 	strb.w	r3, [r0, #50]	; 0x32
 800923a:	f880 3033 	strb.w	r3, [r0, #51]	; 0x33
 800923e:	4770      	bx	lr

08009240 <VSS_Init>:
 8009240:	b508      	push	{r3, lr}
 8009242:	f7ff ffe9 	bl	8009218 <VSS_Clear>
 8009246:	bd08      	pop	{r3, pc}

08009248 <VSS_CalcElAngle>:
 8009248:	f890 2033 	ldrb.w	r2, [r0, #51]	; 0x33
 800924c:	4603      	mov	r3, r0
 800924e:	bb7a      	cbnz	r2, 80092b0 <VSS_CalcElAngle+0x68>
 8009250:	b4f0      	push	{r4, r5, r6, r7}
 8009252:	8e02      	ldrh	r2, [r0, #48]	; 0x30
 8009254:	f9b0 500e 	ldrsh.w	r5, [r0, #14]
 8009258:	88c7      	ldrh	r7, [r0, #6]
 800925a:	f890 602c 	ldrb.w	r6, [r0, #44]	; 0x2c
 800925e:	7844      	ldrb	r4, [r0, #1]
 8009260:	fb95 f4f4 	sdiv	r4, r5, r4
 8009264:	442a      	add	r2, r5
 8009266:	b292      	uxth	r2, r2
 8009268:	b210      	sxth	r0, r2
 800926a:	443c      	add	r4, r7
 800926c:	8618      	strh	r0, [r3, #48]	; 0x30
 800926e:	80dc      	strh	r4, [r3, #6]
 8009270:	b1de      	cbz	r6, 80092aa <VSS_CalcElAngle+0x62>
 8009272:	f9b3 402e 	ldrsh.w	r4, [r3, #46]	; 0x2e
 8009276:	b1fc      	cbz	r4, 80092b8 <VSS_CalcElAngle+0x70>
 8009278:	3c01      	subs	r4, #1
 800927a:	b224      	sxth	r4, r4
 800927c:	85dc      	strh	r4, [r3, #46]	; 0x2e
 800927e:	2d00      	cmp	r5, #0
 8009280:	8809      	ldrh	r1, [r1, #0]
 8009282:	db29      	blt.n	80092d8 <VSS_CalcElAngle+0x90>
 8009284:	1a8a      	subs	r2, r1, r2
 8009286:	b212      	sxth	r2, r2
 8009288:	2601      	movs	r6, #1
 800928a:	fb02 f404 	mul.w	r4, r2, r4
 800928e:	f9b3 5036 	ldrsh.w	r5, [r3, #54]	; 0x36
 8009292:	fb94 f4f5 	sdiv	r4, r4, r5
 8009296:	2a00      	cmp	r2, #0
 8009298:	fb14 f406 	smulbb	r4, r4, r6
 800929c:	b2a4      	uxth	r4, r4
 800929e:	db14      	blt.n	80092ca <VSS_CalcElAngle+0x82>
 80092a0:	1b0c      	subs	r4, r1, r4
 80092a2:	2201      	movs	r2, #1
 80092a4:	b220      	sxth	r0, r4
 80092a6:	f883 2032 	strb.w	r2, [r3, #50]	; 0x32
 80092aa:	8098      	strh	r0, [r3, #4]
 80092ac:	bcf0      	pop	{r4, r5, r6, r7}
 80092ae:	4770      	bx	lr
 80092b0:	f9b1 0000 	ldrsh.w	r0, [r1]
 80092b4:	8098      	strh	r0, [r3, #4]
 80092b6:	4770      	bx	lr
 80092b8:	f9b1 0000 	ldrsh.w	r0, [r1]
 80092bc:	701c      	strb	r4, [r3, #0]
 80092be:	2201      	movs	r2, #1
 80092c0:	f883 202d 	strb.w	r2, [r3, #45]	; 0x2d
 80092c4:	8098      	strh	r0, [r3, #4]
 80092c6:	bcf0      	pop	{r4, r5, r6, r7}
 80092c8:	4770      	bx	lr
 80092ca:	f893 2032 	ldrb.w	r2, [r3, #50]	; 0x32
 80092ce:	2a00      	cmp	r2, #0
 80092d0:	d0eb      	beq.n	80092aa <VSS_CalcElAngle+0x62>
 80092d2:	440c      	add	r4, r1
 80092d4:	b220      	sxth	r0, r4
 80092d6:	e7e8      	b.n	80092aa <VSS_CalcElAngle+0x62>
 80092d8:	1a52      	subs	r2, r2, r1
 80092da:	b212      	sxth	r2, r2
 80092dc:	f64f 76ff 	movw	r6, #65535	; 0xffff
 80092e0:	e7d3      	b.n	800928a <VSS_CalcElAngle+0x42>
 80092e2:	bf00      	nop

080092e4 <VSS_CalcAvrgMecSpeedUnit>:
 80092e4:	8d03      	ldrh	r3, [r0, #40]	; 0x28
 80092e6:	2b01      	cmp	r3, #1
 80092e8:	b470      	push	{r4, r5, r6}
 80092ea:	d927      	bls.n	800933c <VSS_CalcAvrgMecSpeedUnit+0x58>
 80092ec:	e9d0 2308 	ldrd	r2, r3, [r0, #32]
 80092f0:	4413      	add	r3, r2
 80092f2:	6243      	str	r3, [r0, #36]	; 0x24
 80092f4:	2b00      	cmp	r3, #0
 80092f6:	bfbc      	itt	lt
 80092f8:	f503 437f 	addlt.w	r3, r3, #65280	; 0xff00
 80092fc:	33ff      	addlt	r3, #255	; 0xff
 80092fe:	8b42      	ldrh	r2, [r0, #26]
 8009300:	7846      	ldrb	r6, [r0, #1]
 8009302:	69c5      	ldr	r5, [r0, #28]
 8009304:	141c      	asrs	r4, r3, #16
 8009306:	fb04 f202 	mul.w	r2, r4, r2
 800930a:	eb02 0282 	add.w	r2, r2, r2, lsl #2
 800930e:	0053      	lsls	r3, r2, #1
 8009310:	fb05 f506 	mul.w	r5, r5, r6
 8009314:	fb93 f3f5 	sdiv	r3, r3, r5
 8009318:	b21b      	sxth	r3, r3
 800931a:	81c4      	strh	r4, [r0, #14]
 800931c:	800b      	strh	r3, [r1, #0]
 800931e:	8d02      	ldrh	r2, [r0, #40]	; 0x28
 8009320:	8183      	strh	r3, [r0, #12]
 8009322:	1e53      	subs	r3, r2, #1
 8009324:	8503      	strh	r3, [r0, #40]	; 0x28
 8009326:	f890 302d 	ldrb.w	r3, [r0, #45]	; 0x2d
 800932a:	b923      	cbnz	r3, 8009336 <VSS_CalcAvrgMecSpeedUnit+0x52>
 800932c:	78c2      	ldrb	r2, [r0, #3]
 800932e:	7002      	strb	r2, [r0, #0]
 8009330:	bc70      	pop	{r4, r5, r6}
 8009332:	4618      	mov	r0, r3
 8009334:	4770      	bx	lr
 8009336:	bc70      	pop	{r4, r5, r6}
 8009338:	f7ff bc72 	b.w	8008c20 <SPD_IsMecSpeedReliable>
 800933c:	d003      	beq.n	8009346 <VSS_CalcAvrgMecSpeedUnit+0x62>
 800933e:	f9b0 300c 	ldrsh.w	r3, [r0, #12]
 8009342:	800b      	strh	r3, [r1, #0]
 8009344:	e7ef      	b.n	8009326 <VSS_CalcAvrgMecSpeedUnit+0x42>
 8009346:	f9b0 202a 	ldrsh.w	r2, [r0, #42]	; 0x2a
 800934a:	800a      	strh	r2, [r1, #0]
 800934c:	8b43      	ldrh	r3, [r0, #26]
 800934e:	8182      	strh	r2, [r0, #12]
 8009350:	f9b1 5000 	ldrsh.w	r5, [r1]
 8009354:	69c2      	ldr	r2, [r0, #28]
 8009356:	7844      	ldrb	r4, [r0, #1]
 8009358:	eb03 0383 	add.w	r3, r3, r3, lsl #2
 800935c:	fb02 f205 	mul.w	r2, r2, r5
 8009360:	005b      	lsls	r3, r3, #1
 8009362:	fb92 f3f3 	sdiv	r3, r2, r3
 8009366:	2200      	movs	r2, #0
 8009368:	fb14 f303 	smulbb	r3, r4, r3
 800936c:	81c3      	strh	r3, [r0, #14]
 800936e:	8502      	strh	r2, [r0, #40]	; 0x28
 8009370:	e7d9      	b.n	8009326 <VSS_CalcAvrgMecSpeedUnit+0x42>
 8009372:	bf00      	nop

08009374 <VSS_SetMecAngle>:
 8009374:	8601      	strh	r1, [r0, #48]	; 0x30
 8009376:	8081      	strh	r1, [r0, #4]
 8009378:	7843      	ldrb	r3, [r0, #1]
 800937a:	fb91 f1f3 	sdiv	r1, r1, r3
 800937e:	80c1      	strh	r1, [r0, #6]
 8009380:	4770      	bx	lr
 8009382:	bf00      	nop

08009384 <VSS_SetMecAcceleration>:
 8009384:	f890 302c 	ldrb.w	r3, [r0, #44]	; 0x2c
 8009388:	bb73      	cbnz	r3, 80093e8 <VSS_SetMecAcceleration+0x64>
 800938a:	b470      	push	{r4, r5, r6}
 800938c:	8b45      	ldrh	r5, [r0, #26]
 800938e:	69c3      	ldr	r3, [r0, #28]
 8009390:	7844      	ldrb	r4, [r0, #1]
 8009392:	eb05 0585 	add.w	r5, r5, r5, lsl #2
 8009396:	006d      	lsls	r5, r5, #1
 8009398:	fb03 f301 	mul.w	r3, r3, r1
 800939c:	fb93 f3f5 	sdiv	r3, r3, r5
 80093a0:	b1d2      	cbz	r2, 80093d8 <VSS_SetMecAcceleration+0x54>
 80093a2:	8e86      	ldrh	r6, [r0, #52]	; 0x34
 80093a4:	4d11      	ldr	r5, [pc, #68]	; (80093ec <VSS_SetMecAcceleration+0x68>)
 80093a6:	8541      	strh	r1, [r0, #42]	; 0x2a
 80093a8:	fb02 f206 	mul.w	r2, r2, r6
 80093ac:	fba5 1202 	umull	r1, r2, r5, r2
 80093b0:	f3c2 128f 	ubfx	r2, r2, #6, #16
 80093b4:	f9b0 100e 	ldrsh.w	r1, [r0, #14]
 80093b8:	fb91 f5f4 	sdiv	r5, r1, r4
 80093bc:	3201      	adds	r2, #1
 80093be:	1b5b      	subs	r3, r3, r5
 80093c0:	b292      	uxth	r2, r2
 80093c2:	041b      	lsls	r3, r3, #16
 80093c4:	0409      	lsls	r1, r1, #16
 80093c6:	fb93 f3f2 	sdiv	r3, r3, r2
 80093ca:	fb04 f303 	mul.w	r3, r4, r3
 80093ce:	8502      	strh	r2, [r0, #40]	; 0x28
 80093d0:	e9c0 3108 	strd	r3, r1, [r0, #32]
 80093d4:	bc70      	pop	{r4, r5, r6}
 80093d6:	4770      	bx	lr
 80093d8:	fb13 f304 	smulbb	r3, r3, r4
 80093dc:	81c3      	strh	r3, [r0, #14]
 80093de:	8181      	strh	r1, [r0, #12]
 80093e0:	8502      	strh	r2, [r0, #40]	; 0x28
 80093e2:	8541      	strh	r1, [r0, #42]	; 0x2a
 80093e4:	bc70      	pop	{r4, r5, r6}
 80093e6:	4770      	bx	lr
 80093e8:	4770      	bx	lr
 80093ea:	bf00      	nop
 80093ec:	10624dd3 	.word	0x10624dd3

080093f0 <VSS_SetStartTransition>:
 80093f0:	b151      	cbz	r1, 8009408 <VSS_SetStartTransition+0x18>
 80093f2:	f9b0 3036 	ldrsh.w	r3, [r0, #54]	; 0x36
 80093f6:	2201      	movs	r2, #1
 80093f8:	f880 202c 	strb.w	r2, [r0, #44]	; 0x2c
 80093fc:	b923      	cbnz	r3, 8009408 <VSS_SetStartTransition+0x18>
 80093fe:	f880 202d 	strb.w	r2, [r0, #45]	; 0x2d
 8009402:	7003      	strb	r3, [r0, #0]
 8009404:	4618      	mov	r0, r3
 8009406:	4770      	bx	lr
 8009408:	2001      	movs	r0, #1
 800940a:	4770      	bx	lr

0800940c <VSS_TransitionEnded>:
 800940c:	f890 002d 	ldrb.w	r0, [r0, #45]	; 0x2d
 8009410:	4770      	bx	lr
 8009412:	bf00      	nop

08009414 <RUC_Init>:
 8009414:	b430      	push	{r4, r5}
 8009416:	6681      	str	r1, [r0, #104]	; 0x68
 8009418:	2100      	movs	r1, #0
 800941a:	9c02      	ldr	r4, [sp, #8]
 800941c:	f880 1054 	strb.w	r1, [r0, #84]	; 0x54
 8009420:	f880 1055 	strb.w	r1, [r0, #85]	; 0x55
 8009424:	f110 010c 	adds.w	r1, r0, #12
 8009428:	66c2      	str	r2, [r0, #108]	; 0x6c
 800942a:	6703      	str	r3, [r0, #112]	; 0x70
 800942c:	6744      	str	r4, [r0, #116]	; 0x74
 800942e:	d023      	beq.n	8009478 <RUC_Init+0x64>
 8009430:	6943      	ldr	r3, [r0, #20]
 8009432:	b323      	cbz	r3, 800947e <RUC_Init+0x6a>
 8009434:	689b      	ldr	r3, [r3, #8]
 8009436:	b323      	cbz	r3, 8009482 <RUC_Init+0x6e>
 8009438:	689b      	ldr	r3, [r3, #8]
 800943a:	b323      	cbz	r3, 8009486 <RUC_Init+0x72>
 800943c:	689b      	ldr	r3, [r3, #8]
 800943e:	b1c3      	cbz	r3, 8009472 <RUC_Init+0x5e>
 8009440:	689b      	ldr	r3, [r3, #8]
 8009442:	2105      	movs	r1, #5
 8009444:	b1b3      	cbz	r3, 8009474 <RUC_Init+0x60>
 8009446:	2204      	movs	r2, #4
 8009448:	2105      	movs	r1, #5
 800944a:	8805      	ldrh	r5, [r0, #0]
 800944c:	4c0f      	ldr	r4, [pc, #60]	; (800948c <RUC_Init+0x78>)
 800944e:	2364      	movs	r3, #100	; 0x64
 8009450:	fb03 f305 	mul.w	r3, r3, r5
 8009454:	eb02 0242 	add.w	r2, r2, r2, lsl #1
 8009458:	fba4 4303 	umull	r4, r3, r4, r3
 800945c:	eb00 0282 	add.w	r2, r0, r2, lsl #2
 8009460:	2400      	movs	r4, #0
 8009462:	099b      	lsrs	r3, r3, #6
 8009464:	6154      	str	r4, [r2, #20]
 8009466:	f880 1048 	strb.w	r1, [r0, #72]	; 0x48
 800946a:	f880 3056 	strb.w	r3, [r0, #86]	; 0x56
 800946e:	bc30      	pop	{r4, r5}
 8009470:	4770      	bx	lr
 8009472:	2104      	movs	r1, #4
 8009474:	1e4a      	subs	r2, r1, #1
 8009476:	e7e8      	b.n	800944a <RUC_Init+0x36>
 8009478:	f04f 32ff 	mov.w	r2, #4294967295
 800947c:	e7e5      	b.n	800944a <RUC_Init+0x36>
 800947e:	2101      	movs	r1, #1
 8009480:	e7f8      	b.n	8009474 <RUC_Init+0x60>
 8009482:	2102      	movs	r1, #2
 8009484:	e7f6      	b.n	8009474 <RUC_Init+0x60>
 8009486:	2103      	movs	r1, #3
 8009488:	e7f4      	b.n	8009474 <RUC_Init+0x60>
 800948a:	bf00      	nop
 800948c:	10624dd3 	.word	0x10624dd3

08009490 <RUC_Clear>:
 8009490:	e92d 41f0 	stmdb	sp!, {r4, r5, r6, r7, r8, lr}
 8009494:	4604      	mov	r4, r0
 8009496:	6ec7      	ldr	r7, [r0, #108]	; 0x6c
 8009498:	f8d4 8068 	ldr.w	r8, [r4, #104]	; 0x68
 800949c:	80e1      	strh	r1, [r4, #6]
 800949e:	2500      	movs	r5, #0
 80094a0:	4638      	mov	r0, r7
 80094a2:	f884 5055 	strb.w	r5, [r4, #85]	; 0x55
 80094a6:	f884 5058 	strb.w	r5, [r4, #88]	; 0x58
 80094aa:	f884 5053 	strb.w	r5, [r4, #83]	; 0x53
 80094ae:	f884 5054 	strb.w	r5, [r4, #84]	; 0x54
 80094b2:	460e      	mov	r6, r1
 80094b4:	f7ff feb0 	bl	8009218 <VSS_Clear>
 80094b8:	4629      	mov	r1, r5
 80094ba:	4640      	mov	r0, r8
 80094bc:	f7ff fc1a 	bl	8008cf4 <STC_SetControlMode>
 80094c0:	8861      	ldrh	r1, [r4, #2]
 80094c2:	b2b6      	uxth	r6, r6
 80094c4:	fb11 f106 	smulbb	r1, r1, r6
 80094c8:	b209      	sxth	r1, r1
 80094ca:	4638      	mov	r0, r7
 80094cc:	f7ff ff52 	bl	8009374 <VSS_SetMecAngle>
 80094d0:	462a      	mov	r2, r5
 80094d2:	4629      	mov	r1, r5
 80094d4:	4640      	mov	r0, r8
 80094d6:	f7ff fc11 	bl	8008cfc <STC_ExecRamp>
 80094da:	8a21      	ldrh	r1, [r4, #16]
 80094dc:	89a2      	ldrh	r2, [r4, #12]
 80094de:	fb11 f106 	smulbb	r1, r1, r6
 80094e2:	b209      	sxth	r1, r1
 80094e4:	4640      	mov	r0, r8
 80094e6:	f7ff fc09 	bl	8008cfc <STC_ExecRamp>
 80094ea:	89e1      	ldrh	r1, [r4, #14]
 80094ec:	89a2      	ldrh	r2, [r4, #12]
 80094ee:	fb11 f106 	smulbb	r1, r1, r6
 80094f2:	4638      	mov	r0, r7
 80094f4:	b209      	sxth	r1, r1
 80094f6:	f7ff ff45 	bl	8009384 <VSS_SetMecAcceleration>
 80094fa:	89a0      	ldrh	r0, [r4, #12]
 80094fc:	8823      	ldrh	r3, [r4, #0]
 80094fe:	4907      	ldr	r1, [pc, #28]	; (800951c <RUC_Clear+0x8c>)
 8009500:	6962      	ldr	r2, [r4, #20]
 8009502:	f884 5057 	strb.w	r5, [r4, #87]	; 0x57
 8009506:	fb03 f300 	mul.w	r3, r3, r0
 800950a:	fba1 1303 	umull	r1, r3, r1, r3
 800950e:	099b      	lsrs	r3, r3, #6
 8009510:	3301      	adds	r3, #1
 8009512:	80a3      	strh	r3, [r4, #4]
 8009514:	60a2      	str	r2, [r4, #8]
 8009516:	e8bd 81f0 	ldmia.w	sp!, {r4, r5, r6, r7, r8, pc}
 800951a:	bf00      	nop
 800951c:	10624dd3 	.word	0x10624dd3

08009520 <RUC_Exec>:
 8009520:	b538      	push	{r3, r4, r5, lr}
 8009522:	8883      	ldrh	r3, [r0, #4]
 8009524:	b12b      	cbz	r3, 8009532 <RUC_Exec+0x12>
 8009526:	3b01      	subs	r3, #1
 8009528:	b29b      	uxth	r3, r3
 800952a:	8083      	strh	r3, [r0, #4]
 800952c:	b10b      	cbz	r3, 8009532 <RUC_Exec+0x12>
 800952e:	2001      	movs	r0, #1
 8009530:	bd38      	pop	{r3, r4, r5, pc}
 8009532:	6883      	ldr	r3, [r0, #8]
 8009534:	b33b      	cbz	r3, 8009586 <RUC_Exec+0x66>
 8009536:	88c5      	ldrh	r5, [r0, #6]
 8009538:	8899      	ldrh	r1, [r3, #4]
 800953a:	881a      	ldrh	r2, [r3, #0]
 800953c:	4604      	mov	r4, r0
 800953e:	fb11 f105 	smulbb	r1, r1, r5
 8009542:	b209      	sxth	r1, r1
 8009544:	6e80      	ldr	r0, [r0, #104]	; 0x68
 8009546:	f7ff fbd9 	bl	8008cfc <STC_ExecRamp>
 800954a:	68a3      	ldr	r3, [r4, #8]
 800954c:	88e5      	ldrh	r5, [r4, #6]
 800954e:	8859      	ldrh	r1, [r3, #2]
 8009550:	881a      	ldrh	r2, [r3, #0]
 8009552:	6ee0      	ldr	r0, [r4, #108]	; 0x6c
 8009554:	fb11 f105 	smulbb	r1, r1, r5
 8009558:	b209      	sxth	r1, r1
 800955a:	f7ff ff13 	bl	8009384 <VSS_SetMecAcceleration>
 800955e:	68a1      	ldr	r1, [r4, #8]
 8009560:	8823      	ldrh	r3, [r4, #0]
 8009562:	880d      	ldrh	r5, [r1, #0]
 8009564:	4809      	ldr	r0, [pc, #36]	; (800958c <RUC_Exec+0x6c>)
 8009566:	6889      	ldr	r1, [r1, #8]
 8009568:	f894 2058 	ldrb.w	r2, [r4, #88]	; 0x58
 800956c:	60a1      	str	r1, [r4, #8]
 800956e:	fb03 f305 	mul.w	r3, r3, r5
 8009572:	fba0 1303 	umull	r1, r3, r0, r3
 8009576:	3201      	adds	r2, #1
 8009578:	099b      	lsrs	r3, r3, #6
 800957a:	3301      	adds	r3, #1
 800957c:	f884 2058 	strb.w	r2, [r4, #88]	; 0x58
 8009580:	80a3      	strh	r3, [r4, #4]
 8009582:	2001      	movs	r0, #1
 8009584:	bd38      	pop	{r3, r4, r5, pc}
 8009586:	4618      	mov	r0, r3
 8009588:	bd38      	pop	{r3, r4, r5, pc}
 800958a:	bf00      	nop
 800958c:	10624dd3 	.word	0x10624dd3

08009590 <RUC_FirstAccelerationStageReached>:
 8009590:	f890 2058 	ldrb.w	r2, [r0, #88]	; 0x58
 8009594:	f890 0049 	ldrb.w	r0, [r0, #73]	; 0x49
 8009598:	4282      	cmp	r2, r0
 800959a:	bf34      	ite	cc
 800959c:	2000      	movcc	r0, #0
 800959e:	2001      	movcs	r0, #1
 80095a0:	4770      	bx	lr
 80095a2:	bf00      	nop

080095a4 <RUC_SetPhaseDurationms>:
 80095a4:	eb01 0141 	add.w	r1, r1, r1, lsl #1
 80095a8:	eb00 0181 	add.w	r1, r0, r1, lsl #2
 80095ac:	818a      	strh	r2, [r1, #12]
 80095ae:	4770      	bx	lr

080095b0 <RUC_SetPhaseFinalMecSpeedUnit>:
 80095b0:	eb01 0141 	add.w	r1, r1, r1, lsl #1
 80095b4:	eb00 0181 	add.w	r1, r0, r1, lsl #2
 80095b8:	81ca      	strh	r2, [r1, #14]
 80095ba:	4770      	bx	lr

080095bc <RUC_SetPhaseFinalTorque>:
 80095bc:	eb01 0141 	add.w	r1, r1, r1, lsl #1
 80095c0:	eb00 0181 	add.w	r1, r0, r1, lsl #2
 80095c4:	820a      	strh	r2, [r1, #16]
 80095c6:	4770      	bx	lr

080095c8 <RUC_GetPhaseDurationms>:
 80095c8:	eb01 0141 	add.w	r1, r1, r1, lsl #1
 80095cc:	eb00 0181 	add.w	r1, r0, r1, lsl #2
 80095d0:	8988      	ldrh	r0, [r1, #12]
 80095d2:	4770      	bx	lr

080095d4 <RUC_GetPhaseFinalMecSpeedUnit>:
 80095d4:	eb01 0141 	add.w	r1, r1, r1, lsl #1
 80095d8:	eb00 0181 	add.w	r1, r0, r1, lsl #2
 80095dc:	f9b1 000e 	ldrsh.w	r0, [r1, #14]
 80095e0:	4770      	bx	lr
 80095e2:	bf00      	nop

080095e4 <RUC_GetPhaseFinalTorque>:
 80095e4:	eb01 0141 	add.w	r1, r1, r1, lsl #1
 80095e8:	eb00 0181 	add.w	r1, r0, r1, lsl #2
 80095ec:	f9b1 0010 	ldrsh.w	r0, [r1, #16]
 80095f0:	4770      	bx	lr
 80095f2:	bf00      	nop

080095f4 <RUC_GetNumberOfPhases>:
 80095f4:	f890 0048 	ldrb.w	r0, [r0, #72]	; 0x48
 80095f8:	4770      	bx	lr
 80095fa:	bf00      	nop

080095fc <STO_PLL_CalcElAngle>:
 80095fc:	e92d 4ff0 	stmdb	sp!, {r4, r5, r6, r7, r8, r9, sl, fp, lr}
 8009600:	f9b0 302e 	ldrsh.w	r3, [r0, #46]	; 0x2e
 8009604:	f8d0 c068 	ldr.w	ip, [r0, #104]	; 0x68
 8009608:	4604      	mov	r4, r0
 800960a:	03d8      	lsls	r0, r3, #15
 800960c:	1ac2      	subs	r2, r0, r3
 800960e:	4594      	cmp	ip, r2
 8009610:	b087      	sub	sp, #28
 8009612:	f340 80c4 	ble.w	800979e <STO_PLL_CalcElAngle+0x1a2>
 8009616:	66a2      	str	r2, [r4, #104]	; 0x68
 8009618:	4694      	mov	ip, r2
 800961a:	f8b4 511e 	ldrh.w	r5, [r4, #286]	; 0x11e
 800961e:	f8d4 e06c 	ldr.w	lr, [r4, #108]	; 0x6c
 8009622:	fa4c f605 	asr.w	r6, ip, r5
 8009626:	9602      	str	r6, [sp, #8]
 8009628:	4572      	cmp	r2, lr
 800962a:	b236      	sxth	r6, r6
 800962c:	9600      	str	r6, [sp, #0]
 800962e:	f280 80c8 	bge.w	80097c2 <STO_PLL_CalcElAngle+0x1c6>
 8009632:	66e2      	str	r2, [r4, #108]	; 0x6c
 8009634:	4696      	mov	lr, r2
 8009636:	f9b4 302c 	ldrsh.w	r3, [r4, #44]	; 0x2c
 800963a:	6e20      	ldr	r0, [r4, #96]	; 0x60
 800963c:	03de      	lsls	r6, r3, #15
 800963e:	fa4e f205 	asr.w	r2, lr, r5
 8009642:	1af5      	subs	r5, r6, r3
 8009644:	9203      	str	r2, [sp, #12]
 8009646:	42a8      	cmp	r0, r5
 8009648:	b212      	sxth	r2, r2
 800964a:	9201      	str	r2, [sp, #4]
 800964c:	f340 80b3 	ble.w	80097b6 <STO_PLL_CalcElAngle+0x1ba>
 8009650:	6625      	str	r5, [r4, #96]	; 0x60
 8009652:	4628      	mov	r0, r5
 8009654:	6e62      	ldr	r2, [r4, #100]	; 0x64
 8009656:	4295      	cmp	r5, r2
 8009658:	f280 80a7 	bge.w	80097aa <STO_PLL_CalcElAngle+0x1ae>
 800965c:	6665      	str	r5, [r4, #100]	; 0x64
 800965e:	462a      	mov	r2, r5
 8009660:	f8b4 311c 	ldrh.w	r3, [r4, #284]	; 0x11c
 8009664:	f8b1 9006 	ldrh.w	r9, [r1, #6]
 8009668:	888d      	ldrh	r5, [r1, #4]
 800966a:	f9b4 b020 	ldrsh.w	fp, [r4, #32]
 800966e:	f8bd 7000 	ldrh.w	r7, [sp]
 8009672:	f8b1 a008 	ldrh.w	sl, [r1, #8]
 8009676:	f9b1 8000 	ldrsh.w	r8, [r1]
 800967a:	f9b1 6002 	ldrsh.w	r6, [r1, #2]
 800967e:	f8a4 7070 	strh.w	r7, [r4, #112]	; 0x70
 8009682:	fa40 f703 	asr.w	r7, r0, r3
 8009686:	fa42 f303 	asr.w	r3, r2, r3
 800968a:	fb13 f10b 	smulbb	r1, r3, fp
 800968e:	1b7d      	subs	r5, r7, r5
 8009690:	eba3 0309 	sub.w	r3, r3, r9
 8009694:	fb17 f70b 	smulbb	r7, r7, fp
 8009698:	f9b4 9022 	ldrsh.w	r9, [r4, #34]	; 0x22
 800969c:	f8bd b004 	ldrh.w	fp, [sp, #4]
 80096a0:	f8a4 b072 	strh.w	fp, [r4, #114]	; 0x72
 80096a4:	1a51      	subs	r1, r2, r1
 80096a6:	b22d      	sxth	r5, r5
 80096a8:	fb0a f208 	mul.w	r2, sl, r8
 80096ac:	1bc0      	subs	r0, r0, r7
 80096ae:	f9b4 8028 	ldrsh.w	r8, [r4, #40]	; 0x28
 80096b2:	8e67      	ldrh	r7, [r4, #50]	; 0x32
 80096b4:	f9b4 b124 	ldrsh.w	fp, [r4, #292]	; 0x124
 80096b8:	fb09 0005 	mla	r0, r9, r5, r0
 80096bc:	1412      	asrs	r2, r2, #16
 80096be:	fb08 0202 	mla	r2, r8, r2, r0
 80096c2:	9801      	ldr	r0, [sp, #4]
 80096c4:	f1bb 0f00 	cmp.w	fp, #0
 80096c8:	b21b      	sxth	r3, r3
 80096ca:	fa40 fb07 	asr.w	fp, r0, r7
 80096ce:	fb0a f606 	mul.w	r6, sl, r6
 80096d2:	9800      	ldr	r0, [sp, #0]
 80096d4:	fb09 1a03 	mla	sl, r9, r3, r1
 80096d8:	ea4f 4626 	mov.w	r6, r6, asr #16
 80096dc:	f9b4 9026 	ldrsh.w	r9, [r4, #38]	; 0x26
 80096e0:	f9b4 102a 	ldrsh.w	r1, [r4, #42]	; 0x2a
 80096e4:	fb08 a606 	mla	r6, r8, r6, sl
 80096e8:	fa40 f707 	asr.w	r7, r0, r7
 80096ec:	f9b4 800e 	ldrsh.w	r8, [r4, #14]
 80096f0:	f9b4 a024 	ldrsh.w	sl, [r4, #36]	; 0x24
 80096f4:	fb09 e303 	mla	r3, r9, r3, lr
 80096f8:	fb07 f701 	mul.w	r7, r7, r1
 80096fc:	fb01 fb0b 	mul.w	fp, r1, fp
 8009700:	fb07 3718 	mls	r7, r7, r8, r3
 8009704:	9900      	ldr	r1, [sp, #0]
 8009706:	9b01      	ldr	r3, [sp, #4]
 8009708:	f64f 70ff 	movw	r0, #65535	; 0xffff
 800970c:	fb05 c509 	mla	r5, r5, r9, ip
 8009710:	bfb8      	it	lt
 8009712:	4681      	movlt	r9, r0
 8009714:	f9b4 0004 	ldrsh.w	r0, [r4, #4]
 8009718:	bfa8      	it	ge
 800971a:	f04f 0901 	movge.w	r9, #1
 800971e:	fb0a 6613 	mls	r6, sl, r3, r6
 8009722:	fb08 550b 	mla	r5, r8, fp, r5
 8009726:	fb0a 2b11 	mls	fp, sl, r1, r2
 800972a:	f7f7 fe9d 	bl	8001468 <MCM_Trig_Functions>
 800972e:	f8bd 300c 	ldrh.w	r3, [sp, #12]
 8009732:	f8bd 2008 	ldrh.w	r2, [sp, #8]
 8009736:	fb13 f309 	smulbb	r3, r3, r9
 800973a:	fb12 f109 	smulbb	r1, r2, r9
 800973e:	425b      	negs	r3, r3
 8009740:	fb10 f303 	smulbb	r3, r0, r3
 8009744:	fb10 f021 	smultb	r0, r0, r1
 8009748:	f343 33cf 	sbfx	r3, r3, #15, #16
 800974c:	f340 31cf 	sbfx	r1, r0, #15, #16
 8009750:	1a59      	subs	r1, r3, r1
 8009752:	f104 0034 	add.w	r0, r4, #52	; 0x34
 8009756:	f7fd ffff 	bl	8007758 <PI_Controller>
 800975a:	f894 30f4 	ldrb.w	r3, [r4, #244]	; 0xf4
 800975e:	f894 210e 	ldrb.w	r2, [r4, #270]	; 0x10e
 8009762:	8220      	strh	r0, [r4, #16]
 8009764:	3301      	adds	r3, #1
 8009766:	b2db      	uxtb	r3, r3
 8009768:	429a      	cmp	r2, r3
 800976a:	bf0a      	itet	eq
 800976c:	2200      	moveq	r2, #0
 800976e:	461a      	movne	r2, r3
 8009770:	4613      	moveq	r3, r2
 8009772:	eb04 0242 	add.w	r2, r4, r2, lsl #1
 8009776:	f9b2 1074 	ldrsh.w	r1, [r2, #116]	; 0x74
 800977a:	f8a4 110c 	strh.w	r1, [r4, #268]	; 0x10c
 800977e:	f8a2 0074 	strh.w	r0, [r2, #116]	; 0x74
 8009782:	88a2      	ldrh	r2, [r4, #4]
 8009784:	f884 30f4 	strb.w	r3, [r4, #244]	; 0xf4
 8009788:	4410      	add	r0, r2
 800978a:	b200      	sxth	r0, r0
 800978c:	f8c4 b060 	str.w	fp, [r4, #96]	; 0x60
 8009790:	66a5      	str	r5, [r4, #104]	; 0x68
 8009792:	6666      	str	r6, [r4, #100]	; 0x64
 8009794:	66e7      	str	r7, [r4, #108]	; 0x6c
 8009796:	80a0      	strh	r0, [r4, #4]
 8009798:	b007      	add	sp, #28
 800979a:	e8bd 8ff0 	ldmia.w	sp!, {r4, r5, r6, r7, r8, r9, sl, fp, pc}
 800979e:	1a1d      	subs	r5, r3, r0
 80097a0:	45ac      	cmp	ip, r5
 80097a2:	bfdc      	itt	le
 80097a4:	66a5      	strle	r5, [r4, #104]	; 0x68
 80097a6:	46ac      	movle	ip, r5
 80097a8:	e737      	b.n	800961a <STO_PLL_CalcElAngle+0x1e>
 80097aa:	1b9b      	subs	r3, r3, r6
 80097ac:	429a      	cmp	r2, r3
 80097ae:	bfdc      	itt	le
 80097b0:	6663      	strle	r3, [r4, #100]	; 0x64
 80097b2:	461a      	movle	r2, r3
 80097b4:	e754      	b.n	8009660 <STO_PLL_CalcElAngle+0x64>
 80097b6:	1b9a      	subs	r2, r3, r6
 80097b8:	4290      	cmp	r0, r2
 80097ba:	bfdc      	itt	le
 80097bc:	6622      	strle	r2, [r4, #96]	; 0x60
 80097be:	4610      	movle	r0, r2
 80097c0:	e748      	b.n	8009654 <STO_PLL_CalcElAngle+0x58>
 80097c2:	1a1b      	subs	r3, r3, r0
 80097c4:	459e      	cmp	lr, r3
 80097c6:	bfdc      	itt	le
 80097c8:	66e3      	strle	r3, [r4, #108]	; 0x6c
 80097ca:	469e      	movle	lr, r3
 80097cc:	e733      	b.n	8009636 <STO_PLL_CalcElAngle+0x3a>
 80097ce:	bf00      	nop

080097d0 <STO_PLL_CalcAvrgMecSpeedUnit>:
 80097d0:	b5f0      	push	{r4, r5, r6, r7, lr}
 80097d2:	f890 710e 	ldrb.w	r7, [r0, #270]	; 0x10e
 80097d6:	2f00      	cmp	r7, #0
 80097d8:	f000 8099 	beq.w	800990e <STO_PLL_CalcAvrgMecSpeedUnit+0x13e>
 80097dc:	1e7e      	subs	r6, r7, #1
 80097de:	b2f6      	uxtb	r6, r6
 80097e0:	363a      	adds	r6, #58	; 0x3a
 80097e2:	f100 0472 	add.w	r4, r0, #114	; 0x72
 80097e6:	eb00 0646 	add.w	r6, r0, r6, lsl #1
 80097ea:	4622      	mov	r2, r4
 80097ec:	2300      	movs	r3, #0
 80097ee:	f932 5f02 	ldrsh.w	r5, [r2, #2]!
 80097f2:	4296      	cmp	r6, r2
 80097f4:	442b      	add	r3, r5
 80097f6:	d1fa      	bne.n	80097ee <STO_PLL_CalcAvrgMecSpeedUnit+0x1e>
 80097f8:	2500      	movs	r5, #0
 80097fa:	fb93 f6f7 	sdiv	r6, r3, r7
 80097fe:	f934 3f02 	ldrsh.w	r3, [r4, #2]!
 8009802:	1b9b      	subs	r3, r3, r6
 8009804:	42a2      	cmp	r2, r4
 8009806:	fb03 5503 	mla	r5, r3, r3, r5
 800980a:	d1f8      	bne.n	80097fe <STO_PLL_CalcAvrgMecSpeedUnit+0x2e>
 800980c:	fb95 f5f7 	sdiv	r5, r5, r7
 8009810:	f8b0 2110 	ldrh.w	r2, [r0, #272]	; 0x110
 8009814:	8b43      	ldrh	r3, [r0, #26]
 8009816:	7884      	ldrb	r4, [r0, #2]
 8009818:	f890 7104 	ldrb.w	r7, [r0, #260]	; 0x104
 800981c:	fb06 fe06 	mul.w	lr, r6, r6
 8009820:	fb02 f20e 	mul.w	r2, r2, lr
 8009824:	11d2      	asrs	r2, r2, #7
 8009826:	fb06 f303 	mul.w	r3, r6, r3
 800982a:	42aa      	cmp	r2, r5
 800982c:	fb03 f304 	mul.w	r3, r3, r4
 8009830:	bfd8      	it	le
 8009832:	2600      	movle	r6, #0
 8009834:	69c4      	ldr	r4, [r0, #28]
 8009836:	fb93 f3f4 	sdiv	r3, r3, r4
 800983a:	bfc8      	it	gt
 800983c:	2601      	movgt	r6, #1
 800983e:	7844      	ldrb	r4, [r0, #1]
 8009840:	fb93 f3f4 	sdiv	r3, r3, r4
 8009844:	b21c      	sxth	r4, r3
 8009846:	800c      	strh	r4, [r1, #0]
 8009848:	8184      	strh	r4, [r0, #12]
 800984a:	f880 60f5 	strb.w	r6, [r0, #245]	; 0xf5
 800984e:	b1b7      	cbz	r7, 800987e <STO_PLL_CalcAvrgMecSpeedUnit+0xae>
 8009850:	2b00      	cmp	r3, #0
 8009852:	f8b0 411a 	ldrh.w	r4, [r0, #282]	; 0x11a
 8009856:	bfb8      	it	lt
 8009858:	425b      	neglt	r3, r3
 800985a:	42a3      	cmp	r3, r4
 800985c:	db30      	blt.n	80098c0 <STO_PLL_CalcAvrgMecSpeedUnit+0xf0>
 800985e:	2300      	movs	r3, #0
 8009860:	461c      	mov	r4, r3
 8009862:	461e      	mov	r6, r3
 8009864:	f8c0 4100 	str.w	r4, [r0, #256]	; 0x100
 8009868:	f890 40f8 	ldrb.w	r4, [r0, #248]	; 0xf8
 800986c:	f880 30f9 	strb.w	r3, [r0, #249]	; 0xf9
 8009870:	f8c0 60fc 	str.w	r6, [r0, #252]	; 0xfc
 8009874:	b944      	cbnz	r4, 8009888 <STO_PLL_CalcAvrgMecSpeedUnit+0xb8>
 8009876:	e8bd 40f0 	ldmia.w	sp!, {r4, r5, r6, r7, lr}
 800987a:	f7ff b9d1 	b.w	8008c20 <SPD_IsMecSpeedReliable>
 800987e:	f890 40f8 	ldrb.w	r4, [r0, #248]	; 0xf8
 8009882:	2301      	movs	r3, #1
 8009884:	2c00      	cmp	r4, #0
 8009886:	d0f6      	beq.n	8009876 <STO_PLL_CalcAvrgMecSpeedUnit+0xa6>
 8009888:	42aa      	cmp	r2, r5
 800988a:	dc10      	bgt.n	80098ae <STO_PLL_CalcAvrgMecSpeedUnit+0xde>
 800988c:	f890 30f7 	ldrb.w	r3, [r0, #247]	; 0xf7
 8009890:	f890 2117 	ldrb.w	r2, [r0, #279]	; 0x117
 8009894:	3301      	adds	r3, #1
 8009896:	b2db      	uxtb	r3, r3
 8009898:	429a      	cmp	r2, r3
 800989a:	f880 30f7 	strb.w	r3, [r0, #247]	; 0xf7
 800989e:	d8ea      	bhi.n	8009876 <STO_PLL_CalcAvrgMecSpeedUnit+0xa6>
 80098a0:	2300      	movs	r3, #0
 80098a2:	78c2      	ldrb	r2, [r0, #3]
 80098a4:	f880 30f7 	strb.w	r3, [r0, #247]	; 0xf7
 80098a8:	7002      	strb	r2, [r0, #0]
 80098aa:	4618      	mov	r0, r3
 80098ac:	bdf0      	pop	{r4, r5, r6, r7, pc}
 80098ae:	2b00      	cmp	r3, #0
 80098b0:	d0ec      	beq.n	800988c <STO_PLL_CalcAvrgMecSpeedUnit+0xbc>
 80098b2:	2300      	movs	r3, #0
 80098b4:	f880 30f7 	strb.w	r3, [r0, #247]	; 0xf7
 80098b8:	e8bd 40f0 	ldmia.w	sp!, {r4, r5, r6, r7, lr}
 80098bc:	f7ff b9b0 	b.w	8008c20 <SPD_IsMecSpeedReliable>
 80098c0:	f890 4119 	ldrb.w	r4, [r0, #281]	; 0x119
 80098c4:	f9b0 e014 	ldrsh.w	lr, [r0, #20]
 80098c8:	f9b0 7072 	ldrsh.w	r7, [r0, #114]	; 0x72
 80098cc:	f9b0 6070 	ldrsh.w	r6, [r0, #112]	; 0x70
 80098d0:	ebc3 33c3 	rsb	r3, r3, r3, lsl #15
 80098d4:	fb93 f3fe 	sdiv	r3, r3, lr
 80098d8:	fb03 f404 	mul.w	r4, r3, r4
 80098dc:	2c00      	cmp	r4, #0
 80098de:	bfb8      	it	lt
 80098e0:	343f      	addlt	r4, #63	; 0x3f
 80098e2:	11a4      	asrs	r4, r4, #6
 80098e4:	fb04 f403 	mul.w	r4, r4, r3
 80098e8:	fb07 f707 	mul.w	r7, r7, r7
 80098ec:	2c00      	cmp	r4, #0
 80098ee:	fb06 7606 	mla	r6, r6, r6, r7
 80098f2:	4623      	mov	r3, r4
 80098f4:	f890 7118 	ldrb.w	r7, [r0, #280]	; 0x118
 80098f8:	bfb8      	it	lt
 80098fa:	f104 033f 	addlt.w	r3, r4, #63	; 0x3f
 80098fe:	119b      	asrs	r3, r3, #6
 8009900:	fb07 4313 	mls	r3, r7, r3, r4
 8009904:	429e      	cmp	r6, r3
 8009906:	bfd4      	ite	le
 8009908:	2300      	movle	r3, #0
 800990a:	2301      	movgt	r3, #1
 800990c:	e7aa      	b.n	8009864 <STO_PLL_CalcAvrgMecSpeedUnit+0x94>
 800990e:	463d      	mov	r5, r7
 8009910:	463e      	mov	r6, r7
 8009912:	e77d      	b.n	8009810 <STO_PLL_CalcAvrgMecSpeedUnit+0x40>

08009914 <STO_PLL_CalcAvrgElSpeedDpp>:
 8009914:	b470      	push	{r4, r5, r6}
 8009916:	f890 510e 	ldrb.w	r5, [r0, #270]	; 0x10e
 800991a:	f890 310f 	ldrb.w	r3, [r0, #271]	; 0x10f
 800991e:	f890 20f4 	ldrb.w	r2, [r0, #244]	; 0xf4
 8009922:	f8d0 4108 	ldr.w	r4, [r0, #264]	; 0x108
 8009926:	b2ae      	uxth	r6, r5
 8009928:	1af3      	subs	r3, r6, r3
 800992a:	b29b      	uxth	r3, r3
 800992c:	b1c3      	cbz	r3, 8009960 <STO_PLL_CalcAvrgElSpeedDpp+0x4c>
 800992e:	4413      	add	r3, r2
 8009930:	b29b      	uxth	r3, r3
 8009932:	b219      	sxth	r1, r3
 8009934:	428d      	cmp	r5, r1
 8009936:	bfdc      	itt	le
 8009938:	1b9b      	suble	r3, r3, r6
 800993a:	b219      	sxthle	r1, r3
 800993c:	eb00 0242 	add.w	r2, r0, r2, lsl #1
 8009940:	eb00 0141 	add.w	r1, r0, r1, lsl #1
 8009944:	f9b2 3074 	ldrsh.w	r3, [r2, #116]	; 0x74
 8009948:	f9b1 2074 	ldrsh.w	r2, [r1, #116]	; 0x74
 800994c:	4423      	add	r3, r4
 800994e:	1a9b      	subs	r3, r3, r2
 8009950:	f8b0 2120 	ldrh.w	r2, [r0, #288]	; 0x120
 8009954:	f8c0 3108 	str.w	r3, [r0, #264]	; 0x108
 8009958:	4113      	asrs	r3, r2
 800995a:	81c3      	strh	r3, [r0, #14]
 800995c:	bc70      	pop	{r4, r5, r6}
 800995e:	4770      	bx	lr
 8009960:	eb00 0242 	add.w	r2, r0, r2, lsl #1
 8009964:	f9b0 110c 	ldrsh.w	r1, [r0, #268]	; 0x10c
 8009968:	f9b2 3074 	ldrsh.w	r3, [r2, #116]	; 0x74
 800996c:	4423      	add	r3, r4
 800996e:	1a5b      	subs	r3, r3, r1
 8009970:	e7ee      	b.n	8009950 <STO_PLL_CalcAvrgElSpeedDpp+0x3c>
 8009972:	bf00      	nop

08009974 <STO_PLL_Clear>:
 8009974:	b510      	push	{r4, lr}
 8009976:	f890 210e 	ldrb.w	r2, [r0, #270]	; 0x10e
 800997a:	2100      	movs	r1, #0
 800997c:	4604      	mov	r4, r0
 800997e:	6601      	str	r1, [r0, #96]	; 0x60
 8009980:	6641      	str	r1, [r0, #100]	; 0x64
 8009982:	6681      	str	r1, [r0, #104]	; 0x68
 8009984:	66c1      	str	r1, [r0, #108]	; 0x6c
 8009986:	8081      	strh	r1, [r0, #4]
 8009988:	81c1      	strh	r1, [r0, #14]
 800998a:	f880 10f6 	strb.w	r1, [r0, #246]	; 0xf6
 800998e:	f880 10f7 	strb.w	r1, [r0, #247]	; 0xf7
 8009992:	f880 10f8 	strb.w	r1, [r0, #248]	; 0xf8
 8009996:	f880 10f9 	strb.w	r1, [r0, #249]	; 0xf9
 800999a:	f8c0 10fc 	str.w	r1, [r0, #252]	; 0xfc
 800999e:	f8c0 1100 	str.w	r1, [r0, #256]	; 0x100
 80099a2:	f8c0 1108 	str.w	r1, [r0, #264]	; 0x108
 80099a6:	f880 1122 	strb.w	r1, [r0, #290]	; 0x122
 80099aa:	f880 1123 	strb.w	r1, [r0, #291]	; 0x123
 80099ae:	b132      	cbz	r2, 80099be <STO_PLL_Clear+0x4a>
 80099b0:	3a01      	subs	r2, #1
 80099b2:	b2d2      	uxtb	r2, r2
 80099b4:	3201      	adds	r2, #1
 80099b6:	0052      	lsls	r2, r2, #1
 80099b8:	3074      	adds	r0, #116	; 0x74
 80099ba:	f000 f927 	bl	8009c0c <memset>
 80099be:	2100      	movs	r1, #0
 80099c0:	f884 10f4 	strb.w	r1, [r4, #244]	; 0xf4
 80099c4:	f8a4 110c 	strh.w	r1, [r4, #268]	; 0x10c
 80099c8:	f104 0034 	add.w	r0, r4, #52	; 0x34
 80099cc:	e8bd 4010 	ldmia.w	sp!, {r4, lr}
 80099d0:	f7fd beb6 	b.w	8007740 <PID_SetIntegralTerm>

080099d4 <STO_PLL_Init>:
 80099d4:	b538      	push	{r3, r4, r5, lr}
 80099d6:	4604      	mov	r4, r0
 80099d8:	2101      	movs	r1, #1
 80099da:	f890 0116 	ldrb.w	r0, [r0, #278]	; 0x116
 80099de:	f9b4 502e 	ldrsh.w	r5, [r4, #46]	; 0x2e
 80099e2:	4b16      	ldr	r3, [pc, #88]	; (8009a3c <STO_PLL_Init+0x68>)
 80099e4:	fb93 f3f5 	sdiv	r3, r3, r5
 80099e8:	2200      	movs	r2, #0
 80099ea:	b21b      	sxth	r3, r3
 80099ec:	f884 00f6 	strb.w	r0, [r4, #246]	; 0xf6
 80099f0:	8662      	strh	r2, [r4, #50]	; 0x32
 80099f2:	f884 1104 	strb.w	r1, [r4, #260]	; 0x104
 80099f6:	4608      	mov	r0, r1
 80099f8:	b90b      	cbnz	r3, 80099fe <STO_PLL_Init+0x2a>
 80099fa:	e00b      	b.n	8009a14 <STO_PLL_Init+0x40>
 80099fc:	4611      	mov	r1, r2
 80099fe:	eb03 73d3 	add.w	r3, r3, r3, lsr #31
 8009a02:	1c4a      	adds	r2, r1, #1
 8009a04:	105b      	asrs	r3, r3, #1
 8009a06:	ea4f 0040 	mov.w	r0, r0, lsl #1
 8009a0a:	b292      	uxth	r2, r2
 8009a0c:	d1f6      	bne.n	80099fc <STO_PLL_Init+0x28>
 8009a0e:	b200      	sxth	r0, r0
 8009a10:	8661      	strh	r1, [r4, #50]	; 0x32
 8009a12:	4601      	mov	r1, r0
 8009a14:	4b0a      	ldr	r3, [pc, #40]	; (8009a40 <STO_PLL_Init+0x6c>)
 8009a16:	8620      	strh	r0, [r4, #48]	; 0x30
 8009a18:	fb01 f105 	mul.w	r1, r1, r5
 8009a1c:	fb83 2301 	smull	r2, r3, r3, r1
 8009a20:	17c9      	asrs	r1, r1, #31
 8009a22:	ebc1 2123 	rsb	r1, r1, r3, asr #8
 8009a26:	8561      	strh	r1, [r4, #42]	; 0x2a
 8009a28:	4620      	mov	r0, r4
 8009a2a:	f7ff ffa3 	bl	8009974 <STO_PLL_Clear>
 8009a2e:	f104 0034 	add.w	r0, r4, #52	; 0x34
 8009a32:	f7fd fe71 	bl	8007718 <PID_HandleInit>
 8009a36:	2300      	movs	r3, #0
 8009a38:	8263      	strh	r3, [r4, #18]
 8009a3a:	bd38      	pop	{r3, r4, r5, pc}
 8009a3c:	000fea5e 	.word	0x000fea5e
 8009a40:	06488dc5 	.word	0x06488dc5

08009a44 <STO_PLL_IsObserverConverged>:
 8009a44:	f890 2123 	ldrb.w	r2, [r0, #291]	; 0x123
 8009a48:	f8a0 1124 	strh.w	r1, [r0, #292]	; 0x124
 8009a4c:	4603      	mov	r3, r0
 8009a4e:	b10a      	cbz	r2, 8009a54 <STO_PLL_IsObserverConverged+0x10>
 8009a50:	f9b0 100c 	ldrsh.w	r1, [r0, #12]
 8009a54:	f893 0122 	ldrb.w	r0, [r3, #290]	; 0x122
 8009a58:	2800      	cmp	r0, #0
 8009a5a:	d143      	bne.n	8009ae4 <STO_PLL_IsObserverConverged+0xa0>
 8009a5c:	f9b3 200c 	ldrsh.w	r2, [r3, #12]
 8009a60:	b430      	push	{r4, r5}
 8009a62:	fb02 f501 	mul.w	r5, r2, r1
 8009a66:	2d00      	cmp	r5, #0
 8009a68:	460c      	mov	r4, r1
 8009a6a:	dd34      	ble.n	8009ad6 <STO_PLL_IsObserverConverged+0x92>
 8009a6c:	2a00      	cmp	r2, #0
 8009a6e:	bfbc      	itt	lt
 8009a70:	4252      	neglt	r2, r2
 8009a72:	b212      	sxthlt	r2, r2
 8009a74:	2900      	cmp	r1, #0
 8009a76:	bfbc      	itt	lt
 8009a78:	4249      	neglt	r1, r1
 8009a7a:	b20c      	sxthlt	r4, r1
 8009a7c:	f893 10f5 	ldrb.w	r1, [r3, #245]	; 0xf5
 8009a80:	b359      	cbz	r1, 8009ada <STO_PLL_IsObserverConverged+0x96>
 8009a82:	f8b3 5114 	ldrh.w	r5, [r3, #276]	; 0x114
 8009a86:	b291      	uxth	r1, r2
 8009a88:	428d      	cmp	r5, r1
 8009a8a:	d226      	bcs.n	8009ada <STO_PLL_IsObserverConverged+0x96>
 8009a8c:	f893 1113 	ldrb.w	r1, [r3, #275]	; 0x113
 8009a90:	fb04 f101 	mul.w	r1, r4, r1
 8009a94:	2900      	cmp	r1, #0
 8009a96:	bfb8      	it	lt
 8009a98:	310f      	addlt	r1, #15
 8009a9a:	f341 110f 	sbfx	r1, r1, #4, #16
 8009a9e:	428a      	cmp	r2, r1
 8009aa0:	db1b      	blt.n	8009ada <STO_PLL_IsObserverConverged+0x96>
 8009aa2:	f893 1112 	ldrb.w	r1, [r3, #274]	; 0x112
 8009aa6:	fb04 f101 	mul.w	r1, r4, r1
 8009aaa:	2900      	cmp	r1, #0
 8009aac:	bfb8      	it	lt
 8009aae:	310f      	addlt	r1, #15
 8009ab0:	f341 110f 	sbfx	r1, r1, #4, #16
 8009ab4:	428a      	cmp	r2, r1
 8009ab6:	dc10      	bgt.n	8009ada <STO_PLL_IsObserverConverged+0x96>
 8009ab8:	f893 20f6 	ldrb.w	r2, [r3, #246]	; 0xf6
 8009abc:	f893 1116 	ldrb.w	r1, [r3, #278]	; 0x116
 8009ac0:	3201      	adds	r2, #1
 8009ac2:	b2d2      	uxtb	r2, r2
 8009ac4:	4291      	cmp	r1, r2
 8009ac6:	f883 20f6 	strb.w	r2, [r3, #246]	; 0xf6
 8009aca:	d804      	bhi.n	8009ad6 <STO_PLL_IsObserverConverged+0x92>
 8009acc:	2001      	movs	r0, #1
 8009ace:	2200      	movs	r2, #0
 8009ad0:	f883 00f8 	strb.w	r0, [r3, #248]	; 0xf8
 8009ad4:	701a      	strb	r2, [r3, #0]
 8009ad6:	bc30      	pop	{r4, r5}
 8009ad8:	4770      	bx	lr
 8009ada:	2200      	movs	r2, #0
 8009adc:	f883 20f6 	strb.w	r2, [r3, #246]	; 0xf6
 8009ae0:	bc30      	pop	{r4, r5}
 8009ae2:	4770      	bx	lr
 8009ae4:	2001      	movs	r0, #1
 8009ae6:	2200      	movs	r2, #0
 8009ae8:	f883 00f8 	strb.w	r0, [r3, #248]	; 0xf8
 8009aec:	701a      	strb	r2, [r3, #0]
 8009aee:	4770      	bx	lr

08009af0 <STO_PLL_GetEstimatedBemf>:
 8009af0:	6f03      	ldr	r3, [r0, #112]	; 0x70
 8009af2:	2000      	movs	r0, #0
 8009af4:	b29a      	uxth	r2, r3
 8009af6:	f362 000f 	bfi	r0, r2, #0, #16
 8009afa:	0c1b      	lsrs	r3, r3, #16
 8009afc:	f363 401f 	bfi	r0, r3, #16, #16
 8009b00:	b082      	sub	sp, #8
 8009b02:	b002      	add	sp, #8
 8009b04:	4770      	bx	lr
 8009b06:	bf00      	nop

08009b08 <STO_PLL_GetEstimatedCurrent>:
 8009b08:	b410      	push	{r4}
 8009b0a:	6e02      	ldr	r2, [r0, #96]	; 0x60
 8009b0c:	f8b0 411c 	ldrh.w	r4, [r0, #284]	; 0x11c
 8009b10:	6e43      	ldr	r3, [r0, #100]	; 0x64
 8009b12:	4122      	asrs	r2, r4
 8009b14:	b292      	uxth	r2, r2
 8009b16:	4123      	asrs	r3, r4
 8009b18:	2100      	movs	r1, #0
 8009b1a:	b29b      	uxth	r3, r3
 8009b1c:	f362 010f 	bfi	r1, r2, #0, #16
 8009b20:	f363 411f 	bfi	r1, r3, #16, #16
 8009b24:	4608      	mov	r0, r1
 8009b26:	b083      	sub	sp, #12
 8009b28:	b003      	add	sp, #12
 8009b2a:	f85d 4b04 	ldr.w	r4, [sp], #4
 8009b2e:	4770      	bx	lr

08009b30 <STO_PLL_GetObserverGains>:
 8009b30:	f9b0 3022 	ldrsh.w	r3, [r0, #34]	; 0x22
 8009b34:	800b      	strh	r3, [r1, #0]
 8009b36:	f9b0 3026 	ldrsh.w	r3, [r0, #38]	; 0x26
 8009b3a:	8013      	strh	r3, [r2, #0]
 8009b3c:	4770      	bx	lr
 8009b3e:	bf00      	nop

08009b40 <STO_PLL_SetObserverGains>:
 8009b40:	8441      	strh	r1, [r0, #34]	; 0x22
 8009b42:	84c2      	strh	r2, [r0, #38]	; 0x26
 8009b44:	4770      	bx	lr
 8009b46:	bf00      	nop

08009b48 <STO_GetPLLGains>:
 8009b48:	b570      	push	{r4, r5, r6, lr}
 8009b4a:	f100 0434 	add.w	r4, r0, #52	; 0x34
 8009b4e:	4620      	mov	r0, r4
 8009b50:	460e      	mov	r6, r1
 8009b52:	4615      	mov	r5, r2
 8009b54:	f7fd fdec 	bl	8007730 <PID_GetKP>
 8009b58:	8030      	strh	r0, [r6, #0]
 8009b5a:	4620      	mov	r0, r4
 8009b5c:	f7fd fdec 	bl	8007738 <PID_GetKI>
 8009b60:	8028      	strh	r0, [r5, #0]
 8009b62:	bd70      	pop	{r4, r5, r6, pc}

08009b64 <STO_SetPLLGains>:
 8009b64:	b538      	push	{r3, r4, r5, lr}
 8009b66:	f100 0434 	add.w	r4, r0, #52	; 0x34
 8009b6a:	4615      	mov	r5, r2
 8009b6c:	4620      	mov	r0, r4
 8009b6e:	f7fd fddb 	bl	8007728 <PID_SetKP>
 8009b72:	4629      	mov	r1, r5
 8009b74:	4620      	mov	r0, r4
 8009b76:	e8bd 4038 	ldmia.w	sp!, {r3, r4, r5, lr}
 8009b7a:	f7fd bdd7 	b.w	800772c <PID_SetKI>
 8009b7e:	bf00      	nop

08009b80 <STO_OTF_ResetPLL>:
 8009b80:	6800      	ldr	r0, [r0, #0]
 8009b82:	2100      	movs	r1, #0
 8009b84:	3034      	adds	r0, #52	; 0x34
 8009b86:	f7fd bddb 	b.w	8007740 <PID_SetIntegralTerm>
 8009b8a:	bf00      	nop

08009b8c <STO_ResetPLL>:
 8009b8c:	3034      	adds	r0, #52	; 0x34
 8009b8e:	2100      	movs	r1, #0
 8009b90:	f7fd bdd6 	b.w	8007740 <PID_SetIntegralTerm>

08009b94 <STO_PLL_GetEstimatedBemfLevel>:
 8009b94:	f8d0 0100 	ldr.w	r0, [r0, #256]	; 0x100
 8009b98:	4770      	bx	lr
 8009b9a:	bf00      	nop

08009b9c <STO_PLL_GetObservedBemfLevel>:
 8009b9c:	f8d0 00fc 	ldr.w	r0, [r0, #252]	; 0xfc
 8009ba0:	4770      	bx	lr
 8009ba2:	bf00      	nop

08009ba4 <STO_PLL_IsVarianceTight>:
 8009ba4:	6803      	ldr	r3, [r0, #0]
 8009ba6:	f893 00f5 	ldrb.w	r0, [r3, #245]	; 0xf5
 8009baa:	4770      	bx	lr

08009bac <STO_PLL_ForceConvergency1>:
 8009bac:	6803      	ldr	r3, [r0, #0]
 8009bae:	2201      	movs	r2, #1
 8009bb0:	f883 2122 	strb.w	r2, [r3, #290]	; 0x122
 8009bb4:	4770      	bx	lr
 8009bb6:	bf00      	nop

08009bb8 <STO_PLL_ForceConvergency2>:
 8009bb8:	6803      	ldr	r3, [r0, #0]
 8009bba:	2201      	movs	r2, #1
 8009bbc:	f883 2123 	strb.w	r2, [r3, #291]	; 0x123
 8009bc0:	4770      	bx	lr
 8009bc2:	bf00      	nop

08009bc4 <__libc_init_array>:
 8009bc4:	b570      	push	{r4, r5, r6, lr}
 8009bc6:	4e0d      	ldr	r6, [pc, #52]	; (8009bfc <__libc_init_array+0x38>)
 8009bc8:	4c0d      	ldr	r4, [pc, #52]	; (8009c00 <__libc_init_array+0x3c>)
 8009bca:	1ba4      	subs	r4, r4, r6
 8009bcc:	10a4      	asrs	r4, r4, #2
 8009bce:	2500      	movs	r5, #0
 8009bd0:	42a5      	cmp	r5, r4
 8009bd2:	d109      	bne.n	8009be8 <__libc_init_array+0x24>
 8009bd4:	4e0b      	ldr	r6, [pc, #44]	; (8009c04 <__libc_init_array+0x40>)
 8009bd6:	4c0c      	ldr	r4, [pc, #48]	; (8009c08 <__libc_init_array+0x44>)
 8009bd8:	f000 f820 	bl	8009c1c <_init>
 8009bdc:	1ba4      	subs	r4, r4, r6
 8009bde:	10a4      	asrs	r4, r4, #2
 8009be0:	2500      	movs	r5, #0
 8009be2:	42a5      	cmp	r5, r4
 8009be4:	d105      	bne.n	8009bf2 <__libc_init_array+0x2e>
 8009be6:	bd70      	pop	{r4, r5, r6, pc}
 8009be8:	f856 3025 	ldr.w	r3, [r6, r5, lsl #2]
 8009bec:	4798      	blx	r3
 8009bee:	3501      	adds	r5, #1
 8009bf0:	e7ee      	b.n	8009bd0 <__libc_init_array+0xc>
 8009bf2:	f856 3025 	ldr.w	r3, [r6, r5, lsl #2]
 8009bf6:	4798      	blx	r3
 8009bf8:	3501      	adds	r5, #1
 8009bfa:	e7f2      	b.n	8009be2 <__libc_init_array+0x1e>
 8009bfc:	08009ee8 	.word	0x08009ee8
 8009c00:	08009ee8 	.word	0x08009ee8
 8009c04:	08009ee8 	.word	0x08009ee8
 8009c08:	08009eec 	.word	0x08009eec

08009c0c <memset>:
 8009c0c:	4402      	add	r2, r0
 8009c0e:	4603      	mov	r3, r0
 8009c10:	4293      	cmp	r3, r2
 8009c12:	d100      	bne.n	8009c16 <memset+0xa>
 8009c14:	4770      	bx	lr
 8009c16:	f803 1b01 	strb.w	r1, [r3], #1
 8009c1a:	e7f9      	b.n	8009c10 <memset+0x4>

08009c1c <_init>:
 8009c1c:	b5f8      	push	{r3, r4, r5, r6, r7, lr}
 8009c1e:	bf00      	nop
 8009c20:	bcf8      	pop	{r3, r4, r5, r6, r7}
 8009c22:	bc08      	pop	{r3}
 8009c24:	469e      	mov	lr, r3
 8009c26:	4770      	bx	lr

08009c28 <_fini>:
 8009c28:	b5f8      	push	{r3, r4, r5, r6, r7, lr}
 8009c2a:	bf00      	nop
 8009c2c:	bcf8      	pop	{r3, r4, r5, r6, r7}
 8009c2e:	bc08      	pop	{r3}
 8009c30:	469e      	mov	lr, r3
 8009c32:	4770      	bx	lr
